(dp0
S'mobley_1323538'
p1
(dp2
S'smiles'
p3
S'CCOP(=O)(OCC)OCC'
p4
sS'calc'
p5
F-10.8
sS'd_calc'
p6
F0.1
sS'notes'
p7
(lp8
S'Experimental uncertainty as suggested by 10.1039/P29900000291 -- 0.2 kcal/mol.'
p9
asS'iupac'
p10
S'triethylphosphate'
p11
sS'PubChemID'
p12
I6535
sS'd_expt'
p13
F0.2
sS'expt'
p14
F-7.5
sS'groups'
p15
(lp16
S''
p17
asS'expt_reference'
p18
S'10.1039/P29900000291'
p19
sS'calc_reference'
p20
S'10.1021/jp0667442'
p21
ssS'mobley_2661134'
p22
(dp23
g3
S'c1cc(cc(c1)O)C#N'
p24
sS'calc'
p25
F-6.99
sS'd_calc'
p26
F0.03
sg7
(lp27
S'Experimental uncertainty not presently available, so assigned a default value.'
p28
asS'iupac'
p29
S'3-hydroxybenzonitrile'
p30
sg12
I13394
sg13
F0.6
sS'expt'
p31
F-9.65
sg15
(lp32
S'phenol or hydroxyhetarene'
p33
aS'carbonitrile'
p34
aS'aromatic'
p35
asS'expt_reference'
p36
S'10.1021/jp0764384'
p37
sS'calc_reference'
p38
S'10.1021/ct800409d'
p39
ssS'mobley_6929123'
p40
(dp41
g3
S'COC(=O)CCl'
p42
sg25
F-3.92
sg26
F0.02
sg7
(lp43
g28
asg29
S'methyl 2-chloroacetate'
p44
sg12
I7295
sg13
F0.6
sg31
F-4.0
sg15
(lp45
S'alkyl chloride'
p46
aS'carboxylic acid ester'
p47
asg36
S'10.1139/v80-201'
p48
sg38
g39
ssS'mobley_3395921'
p49
(dp50
g3
S'C1CCOCC1'
p51
sg25
F-1.78
sg26
F0.02
sg7
(lp52
g28
asg29
S'tetrahydropyran'
p53
sg12
I8894
sg13
F0.6
sg31
F-3.12
sg15
(lp54
S'dialkyl ether'
p55
aS'heterocyclic'
p56
asg36
g37
sg38
g39
ssS'mobley_5449201'
p57
(dp58
g3
S'CCCCC'
p59
sg5
F2.6
sg6
F0.1
sg7
(lp60
g9
asg10
S'n-pentane'
p61
sg12
I8003
sg13
F0.2
sg14
F2.3
sg15
(lp62
g17
asg18
g19
sg20
g21
ssS'mobley_5631798'
p63
(dp64
g3
S'N'
p65
sg25
F-4.04
sg26
F0.01
sg7
(lp66
g28
asg29
S'ammonia'
p67
sg12
I222
sg13
F0.6
sg31
F-4.29
sg15
(lp68
g17
asg36
g37
sg38
g39
ssS'mobley_1674094'
p69
(dp70
g3
S'CCCCC#C'
p71
sg25
F0.79
sg26
F0.02
sg7
(lp72
g28
asg29
S'hex-1-yne'
p73
sg12
I12732
sg13
F0.6
sg31
F0.29
sg15
(lp74
S'alkyne'
p75
asg36
g37
sg38
g39
ssS'mobley_9838013'
p76
(dp77
g3
S'CCC(C)(C)O'
p78
sg25
F-2.96
sg26
F0.03
sg7
(lp79
g28
asg29
S'2-methylbutan-2-ol'
p80
sg12
I6405
sg13
F0.6
sg31
F-4.43
sg15
(lp81
S'tertiary alcohol'
p82
asg36
g37
sg38
g39
ssS'mobley_1735893'
p83
(dp84
g3
S'CCCCCC(=O)O'
p85
sg25
F-5.08
sg26
F0.03
sg7
(lp86
g28
asg29
S'hexanoic acid'
p87
sg12
I8892
sg13
F0.6
sg31
F-6.21
sg15
(lp88
S'carboxylic acid'
p89
asg36
g37
sg38
g39
ssS'mobley_2198613'
p90
(dp91
g3
S'CCCl'
p92
sg25
F0.78
sg26
F0.02
sg7
(lp93
g28
asg29
S'chloroethane'
p94
sg12
I6337
sg13
F0.6
sg31
F-0.63
sg15
(lp95
S'alkyl chloride'
p96
asg36
g37
sg38
g39
ssS'mobley_1449384'
p97
(dp98
g3
S'Cc1ccc(cc1)C(C)C'
p99
sg25
F0.2
sg26
F0.03
sg7
(lp100
g28
asg29
S'1-isopropyl-4-methyl-benzene'
p101
sg12
I7463
sg13
F0.6
sg31
F-0.68
sg15
(lp102
S'aromatic'
p103
asg36
g37
sg38
g39
ssS'mobley_3682850'
p104
(dp105
g3
S'C1CCC(=O)CC1'
p106
sg25
F-3.84
sg26
F0.02
sg7
(lp107
g28
asg29
S'cyclohexanone'
p108
sg12
I7967
sg13
F0.6
sg31
F-4.91
sg15
(lp109
S'ketone'
p110
asg36
g37
sg38
g39
ssS'mobley_3264884'
p111
(dp112
g3
S'c1ccc2cc(ccc2c1)N'
p113
sg25
F-7.87
sg26
F0.03
sg7
(lp114
g28
asg29
S'naphthalen-2-amine'
p115
sg12
I7057
sg13
F0.6
sg31
F-7.47
sg15
(lp116
S'primary amine'
p117
aS'primary aromatic amine'
p118
aS'aromatic'
p119
asg36
g37
sg38
g39
ssS'mobley_8614858'
p120
(dp121
g3
S'CCCCCCC'
p122
sg25
F3.2
sg26
F0.02
sg7
(lp123
g28
asg29
S'heptane'
p124
sg12
I8900
sg13
F0.6
sg31
F2.67
sg15
(lp125
g17
asg36
g37
sg38
g39
ssS'mobley_4043987'
p126
(dp127
g3
S'CCCCC(C)C'
p128
sg25
F3.0
sg26
F0.03
sg7
(lp129
g28
asg29
S'2-methylhexane'
p130
sg12
I11582
sg13
F0.6
sg31
F2.93
sg15
(lp131
g17
asg36
g37
sg38
g39
ssS'mobley_2864987'
p132
(dp133
g3
S'CCC[C@@H](C)O'
p134
sg25
F-2.87
sg26
F0.02
sg7
(lp135
S'Renamed mobley_2864987 from pentan-2-ol to (2R)-pentan-2-ol (the name from the 3D structure) since the former did not completely specify stereochemistry.\n'
p136
asg29
S'pentan-2-ol'
p137
sg12
I22386
sg13
F0.6
sg31
F-4.39
sg15
(lp138
S'secondary alcohol'
p139
asg36
g37
sg38
g39
ssS'mobley_859464'
p140
(dp141
g3
S'CC(C)COC(=O)C'
p142
sg25
F-2.8
sg26
F0.02
sg7
(lp143
g28
asg29
S'isobutyl acetate'
p144
sg12
I8038
sg13
F0.6
sg31
F-2.36
sg15
(lp145
S'carboxylic acid ester'
p146
asg36
g37
sg38
g39
ssS'mobley_3053621'
p147
(dp148
g3
S'c1ccccc1'
p149
sg5
F-0.6
sg6
F0.1
sg7
(lp150
g9
asg10
S'benzene'
p151
sg12
I241
sg13
F0.2
sg14
F-0.9
sg15
(lp152
S'aromatic'
p153
asg18
g19
sg20
g21
ssS'mobley_4689084'
p154
(dp155
S'smiles'
p156
S'CC(=O)OCCOC(=O)C'
p157
sS'expt_reference'
p158
S'10.1021/jm070549+'
p159
sS'd_calc'
p160
F0.06
sS'notes'
p161
(lp162
S'Called "ethylene glycol diacetate" in Nicholls et al., but renamed according to IUPAC "CC(=O)OCCOC(=O)C" for better automation. This was excluded from the set in v0.1 but re-added in v0.2 due to an error constructing v0.1.\n'
p163
aS'Topology and coordinate files re-generated Jan. 2014 for v0.2 from original .mol2 files.\n'
p164
aS'Experimental uncertainty not presently available; assigned a default value.'
p165
aS'Experimental uncertainty estimate updated to 0.2 as of v0.2 to match uncertainty estimate given in Nicholls et al. paper.\n'
p166
asS'iupac'
p167
S'2-acetoxyethyl acetate'
p168
sg12
I8121
sS'd_expt'
p169
F0.2
sS'expt'
p170
F-6.34
sS'groups'
p171
(lp172
S'carboxylic acid ester'
p173
asS'calc'
p174
F-8.41
sS'calc_reference'
p175
g159
ssS'mobley_1352110'
p176
(dp177
g3
S'CCCCN(CC)C(=O)SCCC'
p178
sS'calc'
p179
F-4.85
sS'd_calc'
p180
F0.04
sg7
(lp181
g28
asS'iupac'
p182
S'pebulate'
p183
sg12
I14215
sS'd_expt'
p184
F1.93
sS'expt'
p185
F-3.64
sg15
(lp186
S'cation'
p187
asS'expt_reference'
p188
S'10.1021/jp806724u'
p189
sS'calc_reference'
p190
S'10.1021/jp806838b'
p191
ssS'mobley_4291494'
p192
(dp193
g3
S'c1ccnc(c1)Cl'
p194
sg25
F-3.36
sg26
F0.02
sg7
(lp195
g28
asg29
S'2-chloropyridine'
p196
sg12
I7977
sg13
F0.6
sg31
F-4.39
sg15
(lp197
S'aryl chloride'
p198
aS'aromatic'
p199
aS'heterocyclic'
p200
asg36
g37
sg38
g39
ssS'mobley_2364370'
p201
(dp202
g3
S'CCCCOC(=O)C'
p203
sg25
F-3.17
sg26
F0.02
sg7
(lp204
g28
asg29
S'butyl acetate'
p205
sg12
I31272
sg13
F0.6
sg31
F-2.64
sg15
(lp206
S'carboxylic acid ester'
p207
asg36
g37
sg38
g39
ssS'mobley_1893815'
p208
(dp209
g3
S'C(C(Cl)(Cl)Cl)Cl'
p210
sS'calc'
p211
F-0.11
sS'd_calc'
p212
F0.02
sg7
(lp213
g28
asS'iupac'
p214
S'1,1,1,2-tetrachloroethane'
p215
sg12
I12418
sS'd_expt'
p216
F0.1
sS'expt'
p217
F-1.43
sg15
(lp218
S'alkyl chloride'
p219
asS'expt_reference'
p220
S'10.1007/s10822-012-9568-8'
p221
sS'calc_reference'
p222
S'10.1007/s10822-011-9528-8'
p223
ssS'mobley_5200358'
p224
(dp225
g3
S'CC(C)(/C=N\\OC(=O)NC)SC'
p226
sg179
F-10.27
sg180
F0.05
sg7
(lp227
S'Renamed mobley_5200358 from aldicarb to [(Z)-(2-methyl-2-methylsulfanyl-propylidene)amino] N-methylcarbamate (the name from the 3D structure) since the former did not completely specify stereochemistry.\n'
p228
asg182
S'aldicarb'
p229
sg12
I9570071
sg184
F0.1
sg185
F-9.84
sg15
(lp230
S'thioether'
p231
asg188
g189
sg190
g191
ssS'mobley_9246215'
p232
(dp233
g3
S'C=CCC=C'
p234
sg25
F2.18
sg26
F0.02
sg7
(lp235
g28
asg29
S'penta-1,4-diene'
p236
sg12
I11587
sg13
F0.6
sg31
F0.93
sg15
(lp237
S'alkene'
p238
asg36
g37
sg38
g39
ssS'mobley_5110043'
p239
(dp240
g3
S'Cc1ccc2cc(ccc2c1)C'
p241
sg25
F-2.65
sg26
F0.03
sg7
(lp242
g28
asg29
S'2,6-dimethylnaphthalene'
p243
sg12
I11387
sg13
F0.6
sg31
F-2.63
sg15
(lp244
S'aromatic'
p245
asg36
g37
sg38
g39
ssS'mobley_6190089'
p246
(dp247
g3
S'C(C(Cl)Cl)(Cl)Cl'
p248
sg211
F-0.53
sg212
F0.02
sg7
(lp249
g28
asg214
S'1,1,2,2-tetrachloroethane'
p250
sg12
I6591
sg216
F0.1
sg217
F-2.37
sg15
(lp251
S'alkyl chloride'
p252
asg220
g221
sg222
g223
ssS'mobley_6266306'
p253
(dp254
g3
S'C1CNC1'
p255
sg25
F-3.41
sg26
F0.02
sg7
(lp256
g28
asg29
S'azetidine'
p257
sg12
I10422
sg13
F0.6
sg31
F-5.56
sg15
(lp258
S'secondary amine'
p259
aS'secondary aliphatic amine (dialkylamine)'
p260
aS'heterocyclic'
p261
asg36
g37
sg38
g39
ssS'mobley_4219614'
p262
(dp263
g3
S'c1cc(c(c(c1Cl)Cl)Cl)Cl'
p264
sg25
F-0.32
sg26
F0.02
sg7
(lp265
g28
asg29
S'1,2,3,4-tetrachlorobenzene'
p266
sg12
I12463
sg13
F0.6
sg31
F-1.34
sg15
(lp267
S'aryl chloride'
p268
aS'aromatic'
p269
asg36
g37
sg38
g39
ssS'mobley_9246351'
p270
(dp271
g3
S'C(Br)Br'
p272
sg25
F0.87
sg26
F0.02
sg7
(lp273
g28
asg29
S'dibromomethane'
p274
sg12
I3024
sg13
F0.6
sg31
F-1.96
sg15
(lp275
S'alkyl bromide'
p276
asg36
g37
sg38
g39
ssS'mobley_8011706'
p277
(dp278
g3
S'CN(C)C=O'
p279
sg25
F-6.86
sg26
F0.03
sg7
(lp280
g28
asg29
S'N,N-dimethylformamide'
p281
sg12
I6228
sg13
F0.6
sg31
F-7.81
sg15
(lp282
S'cation'
p283
asg36
g37
sg38
g39
ssS'mobley_2577969'
p284
(dp285
g3
S'c1cc2ccc3cccc4c3c2c(c1)cc4'
p286
sg25
F-6.62
sg26
F0.03
sg7
(lp287
g28
asg29
S'pyrene'
p288
sg12
I31423
sg13
F0.6
sg31
F-4.52
sg15
(lp289
S'aromatic'
p290
asg36
g37
sg38
g39
ssS'mobley_9942801'
p291
(dp292
g3
S'CCc1ccc(cc1)C'
p293
sg25
F-0.05
sg26
F0.02
sg7
(lp294
g28
asg29
S'1-ethyl-4-methyl-benzene'
p295
sg12
I12160
sg13
F0.6
sg31
F-0.95
sg15
(lp296
S'aromatic'
p297
asg36
g37
sg38
g39
ssS'mobley_7578802'
p298
(dp299
g3
S'C(Br)(Br)Br'
p300
sg25
F0.88
sg26
F0.02
sg7
(lp301
g28
asg29
S'bromoform'
p302
sg12
I5558
sg13
F0.6
sg31
F-2.13
sg15
(lp303
S'halogen derivative'
p304
asg36
g37
sg38
g39
ssS'mobley_8861672'
p305
(dp306
g3
S'Cc1ccnc(c1)C'
p307
sg25
F-3.18
sg26
F0.02
sg7
(lp308
g28
asg29
S'2,4-dimethylpyridine'
p309
sg12
I7936
sg13
F0.6
sg31
F-4.86
sg15
(lp310
S'aromatic'
p311
aS'heterocyclic'
p312
asg36
g37
sg38
g39
ssS'mobley_194273'
p313
(dp314
g3
S'CC[C@H](C)n1c(=O)c(c([nH]c1=O)C)Br'
p315
sg179
F-13.74
sg180
F0.04
sg7
(lp316
S'Renamed mobley_194273 from bromacil to 5-bromo-6-methyl-3-[(1S)-1-methylpropyl]-1H-pyrimidine-2,4-dione (the name from the 3D structure) since the former did not completely specify stereochemistry.\n'
p317
asg182
S'bromacil'
p318
sg12
I9411
sg184
F1.93
sg185
F-9.73
sg15
(lp319
S'aryl bromide'
p320
aS'oxo(het)arene'
p321
aS'aromatic'
p322
aS'heterocyclic'
p323
asg188
g189
sg190
g191
ssS'mobley_1244778'
p324
(dp325
g3
S'C1CCCC(CC1)O'
p326
sg25
F-4.15
sg26
F0.05
sg7
(lp327
g28
asg29
S'cycloheptanol'
p328
sg12
I10399
sg13
F0.6
sg31
F-5.48
sg15
(lp329
S'secondary alcohol'
p330
asg36
g37
sg38
g39
ssS'mobley_468867'
p331
(dp332
g3
S'C1=C[C@@H]([C@@H]2[C@H]1[C@@]3(C(=C([C@]2(C3(Cl)Cl)Cl)Cl)Cl)Cl)Cl'
p333
sg179
F-0.98
sg180
F0.03
sg7
(lp334
g28
asg182
S'heptachlor'
p335
sg12
I3589
sg184
F0.1
sg185
F-2.55
sg15
(lp336
S'alkyl chloride'
p337
aS'alkene'
p338
asg188
g189
sg190
g191
ssS'mobley_8827942'
p339
(dp340
g3
S'c1ccc2c(c1)Oc3c(cc(c(c3O2)Cl)Cl)Cl'
p341
sg211
F-3.29
sg212
F0.03
sg7
(lp342
g28
asg214
S'1,2,4-trichlorodibenzo-p-dioxin'
p343
sg12
I38253
sg216
F0.1
sg217
F-4.05
sg15
(lp344
S'diaryl ether'
p345
aS'aryl chloride'
p346
aS'aromatic'
p347
aS'heterocyclic'
p348
asg220
g221
sg222
g223
ssS'mobley_3738859'
p349
(dp350
g3
S'CCCCCBr'
p351
sg5
F1.5
sg6
F0.1
sg7
(lp352
g9
asg10
S'1-bromo-pentane'
p353
sg12
I8057
sg13
F0.2
sg14
F-0.1
sg15
(lp354
S'alkyl bromide'
p355
asg18
g19
sg20
g21
ssS'mobley_8427539'
p356
(dp357
g3
S'CCC(=O)N'
p358
sg5
F-9.3
sg6
F0.1
sg7
(lp359
g9
asg10
S'propionamide'
p360
sg12
I6578
sg13
F0.2
sg14
F-9.4
sg15
(lp361
g17
asg18
g19
sg20
g21
ssS'mobley_1107178'
p362
(dp363
g3
S'CCI'
p364
sg25
F-0.1
sg26
F0.02
sg7
(lp365
g28
asg29
S'iodoethane'
p366
sg12
I6340
sg13
F0.6
sg31
F-0.74
sg15
(lp367
S'alkyl iodide'
p368
asg36
g37
sg38
g39
ssS'mobley_2789243'
p369
(dp370
g3
S'c1cc(cnc1)Cl'
p371
sg25
F-2.5
sg26
F0.02
sg7
(lp372
g28
asg29
S'3-chloropyridine'
p373
sg12
I12287
sg13
F0.6
sg31
F-4.01
sg15
(lp374
S'aryl chloride'
p375
aS'aromatic'
p376
aS'heterocyclic'
p377
asg36
g37
sg38
g39
ssS'mobley_2008055'
p378
(dp379
g3
S'CC'
p380
sg25
F2.58
sg26
F0.01
sg7
(lp381
g28
asg29
S'ethane'
p382
sg12
I6324
sg13
F0.6
sg31
F1.83
sg15
(lp383
g17
asg36
g37
sg38
g39
ssS'mobley_1873346'
p384
(dp385
g3
S'Cc1ccccc1'
p386
sg5
F-0.7
sg6
F0.1
sg7
(lp387
g9
asg10
S'toluene'
p388
sg12
I1140
sg13
F0.2
sg14
F-0.9
sg15
(lp389
S'aromatic'
p390
asg18
g19
sg20
g21
ssS'mobley_7794077'
p391
(dp392
g3
S'c1c(c(=O)[nH]c(=O)[nH]1)C(F)(F)F'
p393
sS'calc'
p394
F-17.17
sS'd_calc'
p395
F0.07
sg7
(lp396
g28
asS'iupac'
p397
S'5-trifluoromethyluracil'
p398
sg12
I5899
sS'd_expt'
p399
F0.16
sS'expt'
p400
F-15.46
sg15
(lp401
S'halogen derivative'
p402
aS'oxo(het)arene'
p403
aS'aromatic'
p404
aS'heterocyclic'
p405
asS'expt_reference'
p406
S'10.1007/s10822-010-9350-8'
p407
sS'calc_reference'
p408
S'10.1007/s10822-010-9343-7'
p409
ssS'mobley_1849020'
p410
(dp411
g3
S'CCOP(=S)(OCC)SCSc1ccc(cc1)Cl'
p412
sg179
F-8.34
sg180
F0.05
sg7
(lp413
g28
aS'Changed IUPAC name from carbophenothion to 4-chlorophenyl)sulfanylmethylsulfanyl-diethoxy-thioxo-$l^{5}-phosphane for better handling/standardization.'
p414
asg182
S'4-chlorophenyl)sulfanylmethylsulfanyl-diethoxy-thioxo-$l^{5}-phosphane'
p415
sg12
I13081
sg184
F0.83
sg185
F-6.5
sg15
(lp416
S'aryl chloride'
p417
aS'aromatic'
p418
asg188
g189
sg190
g191
ssS'mobley_8798016'
p419
(dp420
g3
S'c1cnccc1C=O'
p421
sg25
F-7.31
sg26
F0.03
sg7
(lp422
g28
asg29
S'pyridine-4-carbaldehyde'
p423
sg12
I13389
sg13
F0.6
sg31
F-7.0
sg15
(lp424
S'aldehyde'
p425
aS'aromatic'
p426
aS'heterocyclic'
p427
asg36
g37
sg38
g39
ssS'mobley_5157661'
p428
(dp429
g3
S'CC(C)C'
p430
sg5
F2.7
sg6
F0.1
sg7
(lp431
g9
asg10
S'isobutane'
p432
sg12
I6360
sg13
F0.2
sg14
F2.3
sg15
(lp433
g17
asg18
g19
sg20
g21
ssS'mobley_6201330'
p434
(dp435
g3
S'CCCOC(=O)c1ccc(cc1)O'
p436
sg394
F-9.34
sg395
F0.06
sg7
(lp437
g28
asg397
S'propyl paraben'
p438
sg12
I7175
sg399
F0.22
sg400
F-9.37
sg15
(lp439
S'phenol or hydroxyhetarene'
p440
aS'carboxylic acid ester'
p441
aS'aromatic'
p442
asg406
g407
sg408
g409
ssS'mobley_4620651'
p443
(dp444
g3
S'COC(=O)C1CC1'
p445
sg25
F-4.49
sg26
F0.04
sg7
(lp446
g28
asg29
S'methyl cyclopropanecarboxylate'
p447
sg12
I76122
sg13
F0.6
sg31
F-4.1
sg15
(lp448
S'carboxylic acid ester'
p449
asg36
g37
sg38
g39
ssS'mobley_9717937'
p450
(dp451
g3
S'c1ccc(cc1)c2ccccc2Cl'
p452
sg211
F-2.42
sg212
F0.03
sg7
(lp453
g28
asg214
S'1-chloro-2-phenyl-benzene'
p454
sg12
I249266
sg216
F0.1
sg217
F-2.69
sg15
(lp455
S'aryl chloride'
p456
aS'aromatic'
p457
asg220
g221
sg222
g223
ssS'mobley_6861308'
p458
(dp459
g3
S'CN(C)C(=O)Nc1ccccc1'
p460
sg179
F-12.08
sg180
F0.04
sg7
(lp461
g28
asg182
S'fenuron'
p462
sg12
I7560
sg184
F1.93
sg185
F-9.13
sg15
(lp463
S'cation'
p464
aS'aromatic'
p465
asg188
g189
sg190
g191
ssS'mobley_4630641'
p466
(dp467
g3
S'COCCOC'
p468
sg25
F-3.36
sg26
F0.02
sg7
(lp469
g28
asg29
S'1,2-dimethoxyethane'
p470
sg12
I8071
sg13
F0.6
sg31
F-4.84
sg15
(lp471
S'dialkyl ether'
p472
asg36
g37
sg38
g39
ssS'mobley_2636578'
p473
(dp474
g3
S'C(CO[N+](=O)[O-])CO[N+](=O)[O-]'
p475
sS'calc'
p476
F-5.53
sS'd_calc'
p477
F0.02
sg7
(lp478
g28
aS'IUPAC name and SMILES standardized in v0.2 to match PubChem.\n'
p479
asS'iupac'
p480
S'3-nitrooxypropyl nitrate'
p481
sg12
I96257
sS'd_expt'
p482
cnumpy.core.multiarray
scalar
p483
(cnumpy
dtype
p484
(S'f8'
p485
I0
I1
tp486
Rp487
(I3
S'<'
p488
NNNI-1
I-1
I0
tp489
bS'\xf6(\\\x8f\xc2\xf5\xd8?'
p490
tp491
Rp492
sS'expt'
p493
g483
(g487
S'333333\x13\xc0'
p494
tp495
Rp496
sg15
(lp497
g17
asS'expt_reference'
p498
S'SAMPL4_Guthrie'
p499
sS'calc_reference'
p500
S'SAMPL4_Mobley'
p501
ssS'mobley_5571660'
p502
(dp503
g3
S'Cc1cccc(c1N)C'
p504
sg25
F-4.87
sg26
F0.03
sg7
(lp505
g28
asg29
S'2,6-dimethylaniline'
p506
sg12
I6896
sg13
F0.6
sg31
F-5.21
sg15
(lp507
S'primary amine'
p508
aS'primary aromatic amine'
p509
aS'aromatic'
p510
asg36
g37
sg38
g39
ssS'mobley_7690440'
p511
(dp512
g3
S'CSSC'
p513
sg25
F1.48
sg26
F0.02
sg7
(lp514
g28
asg29
S'methyldisulfanylmethane'
p515
sg12
I12232
sg13
F0.6
sg31
F-1.83
sg15
(lp516
S'disulfide'
p517
asg36
g37
sg38
g39
ssS'mobley_7463799'
p518
(dp519
g3
S'c1ccc(cc1)CCCO'
p520
sg25
F-5.5
sg26
F0.03
sg7
(lp521
g28
asg29
S'3-phenylpropan-1-ol'
p522
sg12
I31234
sg13
F0.6
sg31
F-6.92
sg15
(lp523
S'primary alcohol'
p524
aS'aromatic'
p525
asg36
g37
sg38
g39
ssS'mobley_8691603'
p526
(dp527
g3
S'Cc1cccc(c1)O'
p528
sg25
F-5.28
sg26
F0.03
sg7
(lp529
g28
asg29
S'm-cresol'
p530
sg12
I342
sg13
F0.6
sg31
F-5.49
sg15
(lp531
S'phenol or hydroxyhetarene'
p532
aS'aromatic'
p533
asg36
g37
sg38
g39
ssS'mobley_7176248'
p534
(dp535
g3
S'CCCN(CCC)c1c(cc(cc1[N+](=O)[O-])C(F)(F)F)[N+](=O)[O-]'
p536
sg179
F-2.58
sg180
F0.04
sg7
(lp537
g28
aS'Changed IUPAC name from trifluralin to 2,6-Dinitro-N,N-dipropyl-4-(trifluoromethyl)aniline for better handling/standardization.'
p538
asg182
S'trifluralin'
p539
sg12
I5569
sg184
F0.1
sg185
F-3.25
sg15
(lp540
S'tertiary amine'
p541
aS'tertiary aliphatic/aromatic amine (alkylarylamine)'
p542
aS'halogen derivative'
p543
aS'nitro'
p544
aS'aromatic'
p545
asg188
g189
sg190
g191
ssS'mobley_2295058'
p546
(dp547
g3
S'COC(=O)c1ccc(cc1)O'
p548
sg394
F-9.94
sg395
F0.05
sg7
(lp549
g28
asg397
S'methyl paraben'
p550
sg12
I7456
sg399
F0.26
sg400
F-9.51
sg15
(lp551
S'phenol or hydroxyhetarene'
p552
aS'carboxylic acid ester'
p553
aS'aromatic'
p554
asg406
g407
sg408
g409
ssS'mobley_819018'
p555
(dp556
g3
S'CC(=CCC/C(=C/CO)/C)C'
p557
sg476
F-2.54
sg477
F0.021
sg7
(lp558
g28
aS'IUPAC name standardized in v0.2 to match PubChem.\n'
p559
asg480
S'(2E)-3,7-dimethylocta-2,6-dien-1-ol'
p560
sg12
I637566
sg482
g483
(g487
S'\xb8\x1e\x85\xebQ\xb8\xce?'
p561
tp562
Rp563
sg493
g483
(g487
S'\xcd\xcc\xcc\xcc\xcc\xcc\x11\xc0'
p564
tp565
Rp566
sg15
(lp567
S'primary alcohol'
p568
aS'alkene'
p569
asg498
g499
sg500
g501
ssS'mobley_1976156'
p570
(dp571
g3
S'CCCCCCCCC=O'
p572
sg25
F-2.51
sg26
F0.03
sg7
(lp573
g28
asg29
S'nonanal'
p574
sg12
I31289
sg13
F0.6
sg31
F-2.07
sg15
(lp575
S'aldehyde'
p576
asg36
g37
sg38
g39
ssS'mobley_2197088'
p577
(dp578
g3
S'CCCCCCCCCC'
p579
sg25
F3.43
sg26
F0.03
sg7
(lp580
g28
asg29
S'decane'
p581
sg12
I15600
sg13
F0.6
sg31
F3.16
sg15
(lp582
g17
asg36
g37
sg38
g39
ssS'mobley_627267'
p583
(dp584
g3
S'CC(C)CBr'
p585
sg25
F1.24
sg26
F0.02
sg7
(lp586
g28
asg29
S'1-bromo-2-methyl-propane'
p587
sg12
I6555
sg13
F0.6
sg31
F-0.03
sg15
(lp588
S'alkyl bromide'
p589
asg36
g37
sg38
g39
ssS'mobley_7415647'
p590
(dp591
g3
S'CN(C)C(=O)c1ccc(cc1)[N+](=O)[O-]'
p592
sg25
F-9.92
sg26
F0.04
sg7
(lp593
g28
asg29
S'N,N-dimethyl-4-nitro-benzamide'
p594
sg12
I138975
sg13
F0.6
sg31
F-11.95
sg15
(lp595
S'cation'
p596
aS'nitro'
p597
aS'aromatic'
p598
asg36
S'10.1139/v92-210'
p599
sg38
g39
ssS'mobley_6812653'
p600
(dp601
g3
S'CCCCCC'
p602
sg25
F3.05
sg26
F0.02
sg7
(lp603
g28
asg29
S'hexane'
p604
sg12
I8058
sg13
F0.6
sg31
F2.48
sg15
(lp605
g17
asg36
g37
sg38
g39
ssS'mobley_5052949'
p606
(dp607
g3
S'CCCSCCC'
p608
sg25
F0.49
sg26
F0.02
sg7
(lp609
g28
asg29
S'1-propylsulfanylpropane'
p610
sg12
I8118
sg13
F0.6
sg31
F-1.28
sg15
(lp611
S'thioether'
p612
asg36
g37
sg38
g39
ssS'mobley_3151666'
p613
(dp614
g3
S'CCCCCCCCCCO'
p615
sg25
F-2.49
sg26
F0.03
sg7
(lp616
g28
asg29
S'decan-1-ol'
p617
sg12
I8174
sg13
F0.6
sg31
F-3.64
sg15
(lp618
S'primary alcohol'
p619
asg36
g37
sg38
g39
ssS'mobley_1659169'
p620
(dp621
g3
S'C1COCCN1'
p622
sg25
F-6.28
sg26
F0.02
sg7
(lp623
g28
asg29
S'morpholine'
p624
sg12
I8083
sg13
F0.6
sg31
F-7.17
sg15
(lp625
S'dialkyl ether'
p626
aS'secondary amine'
p627
aS'secondary aliphatic amine (dialkylamine)'
p628
aS'heterocyclic'
p629
asg36
g37
sg38
g39
ssS'mobley_9534740'
p630
(dp631
g3
S'C([C@@H]1[C@H]([C@@H]([C@H]([C@@H](O1)O)O)O)O)O'
p632
sg394
F-17.01
sg395
F0.09
sg7
(lp633
g28
aS'Changed IUPAC name from d-glucose to (2R,3R,4S,5S,6R)-6-(hydroxymethyl)tetrahydropyran-2,3,4,5-tetrol for better handling/standardization.'
p634
asg397
S'(2R,3R,4S,5S,6R)-6-(hydroxymethyl)tetrahydropyran-2,3,4,5-tetrol'
p635
sg12
I64689
sg399
F0.22
sg400
F-25.47
sg15
(lp636
S'hemiacetal'
p637
aS'primary alcohol'
p638
aS'secondary alcohol'
p639
aS'1,2-diol'
p640
aS'heterocyclic'
p641
asg406
g407
sg408
g409
ssS'mobley_994483'
p642
(dp643
g3
S'CCBr'
p644
sg25
F0.93
sg26
F0.02
sg7
(lp645
g28
asg29
S'bromoethane'
p646
sg12
I6332
sg13
F0.6
sg31
F-0.74
sg15
(lp647
S'alkyl bromide'
p648
asg36
g37
sg38
g39
ssS'mobley_1189457'
p649
(dp650
g3
S'CSc1ccccc1'
p651
sg25
F-1.21
sg26
F0.02
sg7
(lp652
g28
asg29
S'methylsulfanylbenzene'
p653
sg12
I7520
sg13
F0.6
sg31
F-2.73
sg15
(lp654
S'thioether'
p655
aS'aromatic'
p656
asg36
g37
sg38
g39
ssS'mobley_8260524'
p657
(dp658
g3
S'CC#C'
p659
sg25
F0.2
sg26
F0.01
sg7
(lp660
g28
asg29
S'prop-1-yne'
p661
sg12
I6335
sg13
F0.6
sg31
F-0.48
sg15
(lp662
S'alkyne'
p663
asg36
g37
sg38
g39
ssS'mobley_646007'
p664
(dp665
g3
S'C1CCNC1'
p666
sg25
F-3.91
sg26
F0.02
sg7
(lp667
g28
asg29
S'pyrrolidine'
p668
sg12
I31268
sg13
F0.6
sg31
F-5.48
sg15
(lp669
S'secondary amine'
p670
aS'secondary aliphatic amine (dialkylamine)'
p671
aS'heterocyclic'
p672
asg36
g37
sg38
g39
ssS'mobley_8436428'
p673
(dp674
g3
S'CC(C)CC(C)C'
p675
sg25
F2.89
sg26
F0.03
sg7
(lp676
g28
asg29
S'2,4-dimethylpentane'
p677
sg12
I7907
sg13
F0.6
sg31
F2.83
sg15
(lp678
g17
asg36
g37
sg38
g39
ssS'mobley_6804509'
p679
(dp680
g3
S'c1c(c(cc(c1Cl)Cl)Cl)Cl'
p681
sg25
F0.25
sg26
F0.02
sg7
(lp682
g28
asg29
S'1,2,4,5-tetrachlorobenzene'
p683
sg12
I7270
sg13
F0.6
sg31
F-1.34
sg15
(lp684
S'aryl chloride'
p685
aS'aromatic'
p686
asg36
g37
sg38
g39
ssS'mobley_6843802'
p687
(dp688
g3
S'c1ccc(cc1)O[C@@H](C(F)F)F'
p689
sg25
F-2.93
sg26
F0.02
sg7
(lp690
S'Renamed mobley_6843802 from 1,2,2-trifluoroethoxybenzene to [(1R)-1,2,2-trifluoroethoxy]benzene (the name from the 3D structure) since the former did not completely specify stereochemistry.\n'
p691
asg29
S'1,2,2-trifluoroethoxybenzene'
p692
sg12
I21269179
sg13
F0.6
sg31
F-1.29
sg15
(lp693
S'alkyl fluoride'
p694
aS'aromatic'
p695
asg36
S'J. Lu, 1994, Ph.D. Thesis, University of Western Ontario'
p696
sg38
g39
ssS'mobley_1922649'
p697
(dp698
g3
S'COP(=S)(OC)Oc1ccc(cc1)[N+](=O)[O-]'
p699
sg179
F-9.87
sg180
F0.04
sg7
(lp700
g28
aS'Changed IUPAC name from methyparathion to methylparathion for better handling/standardization.'
p701
asg182
S'methylparathion'
p702
sg12
I4130
sg184
F0.1
sg185
F-7.19
sg15
(lp703
S'nitro'
p704
aS'aromatic'
p705
asg188
g189
sg190
g191
ssS'mobley_632905'
p706
(dp707
g3
S'CC(=O)c1ccc(cc1)OC'
p708
sg25
F-6.29
sg26
F0.03
sg7
(lp709
g28
asg29
S'1-(4-methoxyphenyl)ethanone'
p710
sg12
I7476
sg13
F0.6
sg31
F-4.4
sg15
(lp711
S'ketone'
p712
aS'alkyl aryl ether'
p713
aS'aromatic'
p714
asg36
g37
sg38
g39
ssS'mobley_4039055'
p715
(dp716
g3
S'c1c(c(=O)[nH]c(=O)[nH]1)Br'
p717
sg394
F-16.61
sg395
F0.06
sg7
(lp718
g28
asg397
S'5-bromouracil'
p719
sg12
I5802
sg399
F0.55
sg400
F-18.17
sg15
(lp720
S'aryl bromide'
p721
aS'oxo(het)arene'
p722
aS'aromatic'
p723
aS'heterocyclic'
p724
asg406
g407
sg408
g409
ssS'mobley_4934872'
p725
(dp726
g3
S'CCOC(OCC)Oc1ccccc1'
p727
sg25
F-4.44
sg26
F0.04
sg7
(lp728
g28
asg29
S'diethoxymethoxybenzene'
p729
sg12
I84440
sg13
F0.6
sg31
F-5.23
sg15
(lp730
S'orthocarboxylic acid derivative'
p731
aS'orthoester'
p732
aS'aromatic'
p733
asg36
S'J. Peter Guthrie, unpublished data, as provided to D. Mobley 2007/2008, and as cited in 10.1021/jp0764384'
p734
sg38
g39
ssS'mobley_4683624'
p735
(dp736
g3
S'CCCc1ccc(cc1)O'
p737
sg25
F-5.5
sg26
F0.02
sg7
(lp738
g28
aS'Experimental value updated 10/22/13 as the average of -5.90 and -4.52, which are measured experimental values from Varhanickova, D., Shiu, W., Mackay, D., J. Chem. Eng. Data 1995, 40, 448-451 and Terres, E., Gebert, F., Hulsemann, H., Petereit, H., Toepsch, H., Ruppert, W., Brennstoff-Chemie 1955, 36, 272-274., respectively. The uncertainty was taken as the standard deviation across these two measurements.\n'
p739
asg29
S'4-propylphenol'
p740
sg12
I12580
sg13
F0.69
sg31
g483
(g487
S'\xd7\xa3p=\n\xd7\x14\xc0'
p741
tp742
Rp743
sg15
(lp744
S'phenol or hydroxyhetarene'
p745
aS'aromatic'
p746
asg36
S'10.1021/je00018a020 and Terres, E., Gebert, F., Hulsemann, H., Petereit, H., Toepsch, H., Ruppert, W., Brennstoff-Chemie 1955, 36, 272-274'
p747
sg38
g39
ssS'mobley_6619554'
p748
(dp749
g3
S'CCCCC(=O)OCC'
p750
sg25
F-3.09
sg26
F0.03
sg7
(lp751
g28
asg29
S'ethyl pentanoate'
p752
sg12
I10882
sg13
F0.6
sg31
F-2.49
sg15
(lp753
S'carboxylic acid ester'
p754
asg36
g37
sg38
g39
ssS'mobley_3034976'
p755
(dp756
g3
S'CC(=O)O'
p757
sg25
F-5.95
sg26
F0.02
sg7
(lp758
g28
asg29
S'acetic acid'
p759
sg12
I176
sg13
F0.6
sg31
F-6.69
sg15
(lp760
S'carboxylic acid'
p761
asg36
g37
sg38
g39
ssS'mobley_8426916'
p762
(dp763
g3
S'CCNCC'
p764
sg25
F-2.72
sg26
F0.02
sg7
(lp765
g28
asg29
S'N-ethylethanamine'
p766
sg12
I8021
sg13
F0.6
sg31
F-4.07
sg15
(lp767
S'secondary amine'
p768
aS'secondary aliphatic amine (dialkylamine)'
p769
asg36
g37
sg38
g39
ssS'mobley_550662'
p770
(dp771
g3
S'CC(OC)(OC)OC'
p772
sg25
F-3.89
sg26
F0.02
sg7
(lp773
g28
asg29
S'1,1,1-trimethoxyethane'
p774
sg12
I15050
sg13
F0.6
sg31
F-4.42
sg15
(lp775
S'orthocarboxylic acid derivative'
p776
aS'orthoester'
p777
asg36
S'10.1021/ja00802a021'
p778
sg38
g39
ssS'mobley_755351'
p779
(dp780
g3
S'COc1cccc(c1)N'
p781
sg25
F-7.45
sg26
F0.03
sg7
(lp782
g28
asg29
S'3-methoxyaniline'
p783
sg12
I10824
sg13
F0.6
sg31
F-7.29
sg15
(lp784
S'alkyl aryl ether'
p785
aS'primary amine'
p786
aS'primary aromatic amine'
p787
aS'aromatic'
p788
asg36
g37
sg38
g39
ssS'mobley_2751110'
p789
(dp790
g3
S'c1cc(ccc1[N+](=O)[O-])O'
p791
sg25
F-8.22
sg26
F0.02
sg7
(lp792
g28
asg29
S'4-nitrophenol'
p793
sg12
I980
sg13
F0.6
sg31
F-10.64
sg15
(lp794
S'phenol or hydroxyhetarene'
p795
aS'nitro'
p796
aS'aromatic'
p797
asg36
g37
sg38
g39
ssS'mobley_5977084'
p798
(dp799
g3
S'Cc1cccnc1'
p800
sg25
F-3.19
sg26
F0.02
sg7
(lp801
g28
asg29
S'3-methylpyridine'
p802
sg12
I7970
sg13
F0.6
sg31
F-4.77
sg15
(lp803
S'aromatic'
p804
aS'heterocyclic'
p805
asg36
g37
sg38
g39
ssS'mobley_5816127'
p806
(dp807
g3
S'COCCO'
p808
sg25
F-5.37
sg26
F0.03
sg7
(lp809
g28
aS'Updated 10/22/13 using the mean of experimental data from two sources listed as experimental references.\n'
p810
asg29
S'2-methoxyethanol'
p811
sg12
I8019
sg13
F0.4
sg31
g483
(g487
S'z\x14\xaeG\xe1z\x1a\xc0'
p812
tp813
Rp814
sg15
(lp815
S'primary alcohol'
p816
aS'dialkyl ether'
p817
asg36
S'10.1007/BF00646936 and 10.1136/oem.45.8.561'
p818
sg38
g39
ssS'mobley_6257907'
p819
(dp820
g3
S'c1cc(cc(c1)Cl)N'
p821
sg25
F-5.37
sg26
F0.02
sg7
(lp822
g28
asg29
S'3-chloroaniline'
p823
sg12
I7932
sg13
F0.6
sg31
F-5.82
sg15
(lp824
S'primary amine'
p825
aS'primary aromatic amine'
p826
aS'aryl chloride'
p827
aS'aromatic'
p828
asg36
g37
sg38
g39
ssS'mobley_1963873'
p829
(dp830
g3
S'CC(=O)NC'
p831
sg25
F-8.39
sg26
F0.03
sg7
(lp832
g28
asg29
S'N-methylacetamide'
p833
sg12
I6582
sg13
F0.6
sg31
F-10.0
sg15
(lp834
g17
asg36
g37
sg38
g39
ssS'mobley_7015518'
p835
(dp836
g3
S'COC'
p837
sg25
F-0.85
sg26
F0.02
sg7
(lp838
g28
asg29
S'methoxymethane'
p839
sg12
I8254
sg13
F0.6
sg31
F-1.91
sg15
(lp840
S'dialkyl ether'
p841
asg36
g37
sg38
g39
ssS'mobley_6195751'
p842
(dp843
g3
S'COc1c(c(c(c(c1Cl)C=O)Cl)OC)O'
p844
sg476
F-9.94
sg477
F0.024
sg7
(lp845
g28
asg480
S'2,6-dichlorosyringaldehyde'
p846
sg12
I53476
sg482
g483
(g487
S'R\xb8\x1e\x85\xebQ\xe8?'
p847
tp848
Rp849
sg493
F-8.68
sg15
(lp850
S'aldehyde'
p851
aS'phenol or hydroxyhetarene'
p852
aS'alkyl aryl ether'
p853
aS'aryl chloride'
p854
aS'aromatic'
p855
asg498
g499
sg500
g501
ssS'mobley_5390332'
p856
(dp857
g3
S'CCCC(=O)OC'
p858
sg25
F-3.32
sg26
F0.02
sg7
(lp859
g28
asg29
S'methyl butanoate'
p860
sg12
I12180
sg13
F0.6
sg31
F-2.83
sg15
(lp861
S'carboxylic acid ester'
p862
asg36
g37
sg38
g39
ssS'mobley_1017962'
p863
(dp864
g3
S'CCCCCC(=O)OC'
p865
sg25
F-3.02
sg26
F0.03
sg7
(lp866
g28
asg29
S'methyl hexanoate'
p867
sg12
I7824
sg13
F0.6
sg31
F-2.49
sg15
(lp868
S'carboxylic acid ester'
p869
asg36
g37
sg38
g39
ssS'mobley_5538249'
p870
(dp871
g3
S'c1ccc(cc1)c2c(cc(cc2Cl)Cl)Cl'
p872
sg211
F-1.14
sg212
F0.03
sg7
(lp873
g28
asg214
S'1,3,5-trichloro-2-phenyl-benzene'
p874
sg12
I37247
sg216
F0.1
sg217
F-2.16
sg15
(lp875
S'aryl chloride'
p876
aS'aromatic'
p877
asg220
g221
sg222
g223
ssS'mobley_9741965'
p878
(dp879
g3
S'C[C@@H](CCON([O-])[O-])ON([O-])[O-]'
p880
sg476
F-5.35
sg477
F0.021
sg7
(lp881
g28
asg480
S'1,3-bis-(nitrooxy)butane'
p882
sg12
I138747
sg482
g483
(g487
S'\xf6(\\\x8f\xc2\xf5\xd8?'
p883
tp884
Rp885
sg493
g483
(g487
S')\\\x8f\xc2\xf5(\x11\xc0'
p886
tp887
Rp888
sg15
(lp889
g17
asg498
g499
sg500
g501
ssS'mobley_5616693'
p890
(dp891
g3
S'C[C@@H]1CC[C@H](C(=O)C1)C(C)C'
p892
sg476
F-3.42
sg477
F0.021
sg7
(lp893
g28
asg480
S'(2S,5R)-2-isopropyl-5-methylcyclohexanone'
p894
sg12
I26447
sg482
F0.25
sg493
F-2.53
sg15
(lp895
S'ketone'
p896
asg498
g499
sg500
g501
ssS'mobley_9114381'
p897
(dp898
g3
S'COC(=O)CC#N'
p899
sg25
F-6.34
sg26
F0.02
sg7
(lp900
g28
asg29
S'methyl 2-cyanoacetate'
p901
sg12
I7747
sg13
F0.6
sg31
F-6.72
sg15
(lp902
S'carboxylic acid ester'
p903
aS'carbonitrile'
p904
asg36
g48
sg38
g39
ssS'mobley_9209581'
p905
(dp906
g3
S'CN(C)C'
p907
sg25
F-2.32
sg26
F0.02
sg7
(lp908
g28
asg29
S'N,N-dimethylmethanamine'
p909
sg12
I1146
sg13
F0.6
sg31
F-3.2
sg15
(lp910
S'tertiary amine'
p911
aS'tertiary aliphatic amine (trialkylamine)'
p912
asg36
g37
sg38
g39
ssS'mobley_52782'
p913
(dp914
g3
S'C(CO[N+](=O)[O-])O[N+](=O)[O-]'
p915
sg179
F-5.97
sg180
F0.02
sg7
(lp916
g28
aS'Changed IUPAC name from nitroglycol to 1,2-dinitroxyethane for better handling/standardization.'
p917
asg182
S'1,2-dinitroxyethane'
p918
sg12
I40818
sg184
F0.1
sg185
F-5.73
sg15
(lp919
S'nitrate'
p920
asg188
g189
sg190
g191
ssS'mobley_3515580'
p921
(dp922
g3
S'COc1ccccc1O'
p923
sg476
F-4.62
sg477
F0.018
sg7
(lp924
g28
asg480
S'2-methoxyphenol'
p925
sg12
I460
sg482
g483
(g487
S'\x9a\x99\x99\x99\x99\x99\xb9?'
p926
tp927
Rp928
sg493
g483
(g487
S'\xc3\xf5(\\\x8f\xc2\x17\xc0'
p929
tp930
Rp931
sg15
(lp932
S'phenol or hydroxyhetarene'
p933
aS'alkyl aryl ether'
p934
aS'aromatic'
p935
asg498
g499
sg500
g501
ssS'mobley_1571523'
p936
(dp937
g3
S'Cc1cccc(c1C)O'
p938
sg25
F-4.67
sg26
F0.03
sg7
(lp939
g28
asg29
S'2,3-dimethylphenol'
p940
sg12
I10687
sg13
F0.6
sg31
F-6.16
sg15
(lp941
S'phenol or hydroxyhetarene'
p942
aS'aromatic'
p943
asg36
g37
sg38
g39
ssS'mobley_2023925'
p944
(dp945
g3
S'[C@@H](C(F)(F)F)(OC(F)F)Cl'
p946
sg25
F-1.38
sg26
F0.02
sg7
(lp947
S'Renamed mobley_2023925 from 2-chloro-2-(difluoromethoxy)-1,1,1-trifluoro-ethane to (2R)-2-chloro-2-(difluoromethoxy)-1,1,1-trifluoro-ethane (the name from the 3D structure) since the former did not completely specify stereochemistry.\n'
p948
asg29
S'2-chloro-2-(difluoromethoxy)-1,1,1-trifluoro-ethane'
p949
sg12
I11095291
sg13
F0.6
sg31
F0.1
sg15
(lp950
S'alkyl chloride'
p951
aS'orthocarboxylic acid derivative'
p952
asg36
g37
sg38
g39
ssS'mobley_8785107'
p953
(dp954
g3
S'C[C@H]1CC[C@@H](O1)C'
p955
sg25
F-1.89
sg26
F0.02
sg7
(lp956
S'Renamed mobley_8785107 from 2,5-dimethyltetrahydrofuran to (2S,5S)-2,5-dimethyltetrahydrofuran (the name from the 3D structure) since the former did not completely specify stereochemistry.\n'
p957
asg29
S'2,5-dimethyltetrahydrofuran'
p958
sg12
I13855
sg13
F0.6
sg31
F-2.92
sg15
(lp959
S'dialkyl ether'
p960
aS'heterocyclic'
p961
asg36
g37
sg38
g39
ssS'mobley_2881590'
p962
(dp963
g3
S'CC(C)CO[N+](=O)[O-]'
p964
sg179
F-1.72
sg180
F0.03
sg7
(lp965
g28
asg182
S'isobutyl nitrate'
p966
sg12
I10974
sg184
F0.1
sg185
F-1.88
sg15
(lp967
S'nitrate'
p968
asg188
g189
sg190
g191
ssS'mobley_313406'
p969
(dp970
g3
S'CCCO'
p971
sg25
F-3.12
sg26
F0.02
sg7
(lp972
g28
asg29
S'propan-1-ol'
p973
sg12
I1031
sg13
F0.6
sg31
F-4.85
sg15
(lp974
S'primary alcohol'
p975
asg36
g37
sg38
g39
ssS'mobley_3274817'
p976
(dp977
g3
S'CC[C@@H](C)c1cc(cc(c1O)[N+](=O)[O-])[N+](=O)[O-]'
p978
sg179
F-5.76
sg180
F0.04
sg7
(lp979
g28
aS'Changed IUPAC name from dinoseb to 2-[(1R)-1-methylpropyl]-4,6-dinitro-phenolate for better handling/standardization.'
p980
asg182
S'2-[(1R)-1-methylpropyl]-4,6-dinitro-phenolate'
p981
sg12
I688400
sg184
F1.93
sg185
F-6.23
sg15
(lp982
S'phenol or hydroxyhetarene'
p983
aS'nitro'
p984
aS'aromatic'
p985
asg188
g189
sg190
g191
ssS'mobley_9979854'
p986
(dp987
g3
S'C[C@H](C(F)(F)F)O'
p988
sg5
F-3.8
sg6
F0.1
sg7
(lp989
S'Renamed mobley_9979854 from 1,1,1-trifluoropropan-2-ol to (2R)-1,1,1-trifluoropropan-2-ol (the name from the 3D structure) since the former did not completely specify stereochemistry.\n'
p990
asg10
S'111-trifluoropropan-2-ol'
p991
sg12
I6993809
sg13
F0.2
sg14
F-4.2
sg15
(lp992
S'secondary alcohol'
p993
aS'halogen derivative'
p994
asg18
g19
sg20
g21
ssS'mobley_2126135'
p995
(dp996
g3
S'CCc1ccccc1O'
p997
sg476
F-4.7
sg477
F0.019
sg7
(lp998
g28
asg480
S'2-ethylphenol'
p999
sg12
I6997
sg482
g483
(g487
S'\x9a\x99\x99\x99\x99\x99\xb9?'
p1000
tp1001
Rp1002
sg493
g483
(g487
S'\xa4p=\n\xd7\xa3\x16\xc0'
p1003
tp1004
Rp1005
sg15
(lp1006
S'phenol or hydroxyhetarene'
p1007
aS'aromatic'
p1008
asg498
g499
sg500
g501
ssS'mobley_6743808'
p1009
(dp1010
g3
S'Cc1ccc(cc1C)O'
p1011
sg25
F-5.33
sg26
F0.03
sg7
(lp1012
g28
asg29
S'3,4-dimethylphenol'
p1013
sg12
I7249
sg13
F0.6
sg31
F-6.5
sg15
(lp1014
S'phenol or hydroxyhetarene'
p1015
aS'aromatic'
p1016
asg36
g37
sg38
g39
ssS'mobley_2493732'
p1017
(dp1018
g3
S'C=C(Cl)Cl'
p1019
sg25
F1.24
sg26
F0.02
sg7
(lp1020
g28
asg29
S'1,1-dichloroethylene'
p1021
sg12
I6366
sg13
F0.6
sg31
F0.25
sg15
(lp1022
S'ketene acetal or derivative'
p1023
aS'halogen derivative'
p1024
asg36
g37
sg38
g39
ssS'mobley_9407874'
p1025
(dp1026
g3
S'CCCCCCC(=O)C'
p1027
sg25
F-2.3
sg26
F0.03
sg7
(lp1028
g28
asg29
S'octan-2-one'
p1029
sg12
I8093
sg13
F0.6
sg31
F-2.88
sg15
(lp1030
S'ketone'
p1031
asg36
g37
sg38
g39
ssS'mobley_7142697'
p1032
(dp1033
g3
S'CCCCCN'
p1034
sg25
F-2.99
sg26
F0.02
sg7
(lp1035
g28
asg29
S'pentan-1-amine'
p1036
sg12
I8060
sg13
F0.6
sg31
F-4.09
sg15
(lp1037
S'primary amine'
p1038
aS'primary aliphatic amine (alkylamine)'
p1039
asg36
g37
sg38
g39
ssS'mobley_8311303'
p1040
(dp1041
g3
S'c1cc(c(cc1c2c(c(cc(c2Cl)Cl)Cl)Cl)Cl)Cl'
p1042
sg211
F-0.7
sg212
F0.04
sg7
(lp1043
g28
asg214
S'1,2,4,5-tetrachloro-3-(3,4-dichlorophenyl)benzene'
p1044
sg12
I63079
sg216
F0.22
sg217
F-4.38
sg15
(lp1045
S'aryl chloride'
p1046
aS'aromatic'
p1047
asg220
g221
sg222
g223
ssS'mobley_49274'
p1048
(dp1049
g3
S'CCCCCC#C'
p1050
sg25
F0.84
sg26
F0.02
sg7
(lp1051
g28
asg29
S'hept-1-yne'
p1052
sg12
I12350
sg13
F0.6
sg31
F0.6
sg15
(lp1053
S'alkyne'
p1054
asg36
g37
sg38
g39
ssS'mobley_4694328'
p1055
(dp1056
g3
S'CCCCCCCC=O'
p1057
sg25
F-2.57
sg26
F0.03
sg7
(lp1058
g28
asg29
S'octanal'
p1059
sg12
I454
sg13
F0.6
sg31
F-2.29
sg15
(lp1060
S'aldehyde'
p1061
asg36
g37
sg38
g39
ssS'mobley_7913234'
p1062
(dp1063
g3
S'CCCCOC[C@H](C)O'
p1064
sg476
F-3.78
sg477
F0.023
sg7
(lp1065
S'Renamed mobley_7913234 from 1-butoxy-2-propanol to (2S)-1-butoxypropan-2-ol (the name from the 3D structure) since the former did not completely specify stereochemistry.\n'
p1066
asg480
S'1-butoxy-2-propanol'
p1067
sg12
I21210
sg482
g483
(g487
S'333333\xc3?'
p1068
tp1069
Rp1070
sg493
g483
(g487
S'\xecQ\xb8\x1e\x85\xeb\x16\xc0'
p1071
tp1072
Rp1073
sg15
(lp1074
S'secondary alcohol'
p1075
aS'dialkyl ether'
p1076
asg498
g499
sg500
g501
ssS'mobley_2763835'
p1077
(dp1078
g3
S'CCOc1ccccc1'
p1079
sg25
F-2.01
sg26
F0.02
sg7
(lp1080
g28
asg29
S'ethoxybenzene'
p1081
sg12
I7674
sg13
F0.6
sg31
F-2.22
sg15
(lp1082
S'alkyl aryl ether'
p1083
aS'aromatic'
p1084
asg36
g37
sg38
g39
ssS'mobley_951560'
p1085
(dp1086
g3
S'C1CNCCN1'
p1087
sg25
F-8.34
sg26
F0.03
sg7
(lp1088
g28
asg29
S'piperazine'
p1089
sg12
I4837
sg13
F0.6
sg31
F-7.4
sg15
(lp1090
S'secondary amine'
p1091
aS'secondary aliphatic amine (dialkylamine)'
p1092
aS'heterocyclic'
p1093
asg36
g37
sg38
g39
ssS'mobley_3211679'
p1094
(dp1095
g3
S'C1CCC=CC1'
p1096
sg476
F1.14
sg477
F0.017
sg7
(lp1097
g28
asg480
S'cyclohexene'
p1098
sg12
I8079
sg482
g483
(g487
S'\x9a\x99\x99\x99\x99\x99\xb9?'
p1099
tp1100
Rp1101
sg493
g483
(g487
S'\xecQ\xb8\x1e\x85\xeb\xc1?'
p1102
tp1103
Rp1104
sg15
(lp1105
S'alkene'
p1106
asg498
g499
sg500
g501
ssS'mobley_6359156'
p1107
(dp1108
g3
S'c1ccc(cc1)c2cc(ccc2Cl)Cl'
p1109
sg211
F-1.77
sg212
F0.03
sg7
(lp1110
g28
asg214
S'1,4-dichloro-2-phenyl-benzene'
p1111
sg12
I36980
sg216
F0.1
sg217
F-2.46
sg15
(lp1112
S'aryl chloride'
p1113
aS'aromatic'
p1114
asg220
g221
sg222
g223
ssS'mobley_3234716'
p1115
(dp1116
g3
S'Cc1ccc(cc1)C'
p1117
sg25
F-0.67
sg26
F0.02
sg7
(lp1118
g28
asg29
S'p-xylene'
p1119
sg12
I7809
sg13
F0.6
sg31
F-0.8
sg15
(lp1120
S'aromatic'
p1121
asg36
g37
sg38
g39
ssS'mobley_5286200'
p1122
(dp1123
g3
S'C(CCCl)CCl'
p1124
sg25
F-0.27
sg26
F0.02
sg7
(lp1125
g28
asg29
S'1,4-dichlorobutane'
p1126
sg12
I8059
sg13
F0.6
sg31
F-2.32
sg15
(lp1127
S'alkyl chloride'
p1128
asg36
g37
sg38
g39
ssS'mobley_2727678'
p1129
(dp1130
g3
S'c1c(c(=O)[nH]c(=O)[nH]1)I'
p1131
sg394
F-17.14
sg395
F0.06
sg7
(lp1132
g28
asg397
S'5-iodouracil'
p1133
sg12
I69672
sg399
F0.64
sg400
F-18.72
sg15
(lp1134
S'aryl iodide'
p1135
aS'oxo(het)arene'
p1136
aS'aromatic'
p1137
aS'heterocyclic'
p1138
asg406
g407
sg408
g409
ssS'mobley_6973347'
p1139
(dp1140
g3
S'CCOC(=O)C'
p1141
sg25
F-3.23
sg26
F0.02
sg7
(lp1142
g28
asg29
S'ethyl acetate'
p1143
sg12
I8857
sg13
F0.6
sg31
F-2.94
sg15
(lp1144
S'carboxylic acid ester'
p1145
asg36
g37
sg38
g39
ssS'mobley_9617923'
p1146
(dp1147
g3
S'CCCCCCCCC(=O)C'
p1148
sg25
F-1.98
sg26
F0.03
sg7
(lp1149
g28
asg29
S'decan-2-one'
p1150
sg12
I12741
sg13
F0.6
sg31
F-2.34
sg15
(lp1151
S'ketone'
p1152
asg36
g37
sg38
g39
ssS'mobley_6309289'
p1153
(dp1154
g3
S'C1CCNCC1'
p1155
sg25
F-3.46
sg26
F0.02
sg7
(lp1156
g28
asg29
S'piperidine'
p1157
sg12
I8082
sg13
F0.6
sg31
F-5.11
sg15
(lp1158
S'secondary amine'
p1159
aS'secondary aliphatic amine (dialkylamine)'
p1160
aS'heterocyclic'
p1161
asg36
g37
sg38
g39
ssS'mobley_1235151'
p1162
(dp1163
g3
S'CCCCC[N+](=O)[O-]'
p1164
sg25
F-1.29
sg26
F0.02
sg7
(lp1165
g28
asg29
S'1-nitropentane'
p1166
sg12
I220639
sg13
F0.6
sg31
F-2.82
sg15
(lp1167
S'nitro'
p1168
asg36
g37
sg38
g39
ssS'mobley_2689721'
p1169
(dp1170
g3
S'C1CCCCC1'
p1171
sg25
F1.67
sg26
F0.02
sg7
(lp1172
g28
asg29
S'cyclohexane'
p1173
sg12
I8078
sg13
F0.6
sg31
F1.23
sg15
(lp1174
g17
asg36
g37
sg38
g39
ssS'mobley_820789'
p1175
(dp1176
g3
S'CCCC(=O)O'
p1177
sg25
F-5.46
sg26
F0.03
sg7
(lp1178
g28
asg29
S'butyric acid'
p1179
sg12
I264
sg13
F0.6
sg31
F-6.35
sg15
(lp1180
S'carboxylic acid'
p1181
asg36
g37
sg38
g39
ssS'mobley_1838110'
p1182
(dp1183
g3
S'C(C(F)(Cl)Cl)(F)(F)Cl'
p1184
sg25
F1.53
sg26
F0.02
sg7
(lp1185
g28
asg29
S'1,1,2-trichloro-1,2,2-trifluoro-ethane'
p1186
sg12
I6428
sg13
F0.6
sg31
F1.77
sg15
(lp1187
S'halogen derivative'
p1188
asg36
g37
sg38
g39
ssS'mobley_3083321'
p1189
(dp1190
g3
S'COCOC'
p1191
sS'calc'
p1192
F-3.2
sS'd_calc'
p1193
F0.1
sS'notes'
p1194
(lp1195
S'Topology and coordinate files re-generated 10/9/13 from original .mol2 files.'
p1196
ag28
ag166
asS'iupac'
p1197
S'dimethoxymethane'
p1198
sg12
I8020
sg13
F0.2
sS'expt'
p1199
F-2.93
sg15
(lp1200
S'acetal'
p1201
asS'expt_reference'
p1202
S'10.1021/jm070549+'
p1203
sS'calc_reference'
p1204
g1203
ssS'mobley_3572203'
p1205
(dp1206
g3
S'CCCCCOC(=O)CC'
p1207
sg25
F-3.36
sg26
F0.03
sg7
(lp1208
g28
asg29
S'pentyl propanoate'
p1209
sg12
I12217
sg13
F0.6
sg31
F-2.11
sg15
(lp1210
S'carboxylic acid ester'
p1211
asg36
g37
sg38
g39
ssS'mobley_3843583'
p1212
(dp1213
g3
S'c1ccc2c(c1)cccc2N'
p1214
sg25
F-7.76
sg26
F0.03
sg7
(lp1215
g28
asg29
S'naphthalen-1-amine'
p1216
sg12
I8640
sg13
F0.6
sg31
F-7.28
sg15
(lp1217
S'primary amine'
p1218
aS'primary aromatic amine'
p1219
aS'aromatic'
p1220
asg36
g37
sg38
g39
ssS'mobley_8127829'
p1221
(dp1222
g3
S'CCc1ccccc1'
p1223
sg25
F-0.59
sg26
F0.02
sg7
(lp1224
g28
asg29
S'ethylbenzene'
p1225
sg12
I7500
sg13
F0.6
sg31
F-0.79
sg15
(lp1226
S'aromatic'
p1227
asg36
g37
sg38
g39
ssS'mobley_7983227'
p1228
(dp1229
g3
S'CC[C@@H](C)CO'
p1230
sg25
F-2.78
sg26
F0.02
sg7
(lp1231
S'Renamed mobley_7983227 from 2-methylbutan-1-ol to (2R)-2-methylbutan-1-ol (the name from the 3D structure) since the former did not completely specify stereochemistry.\n'
p1232
asg29
S'2-methylbutan-1-ol'
p1233
sg12
I8723
sg13
F0.6
sg31
F-4.42
sg15
(lp1234
S'primary alcohol'
p1235
asg36
g37
sg38
g39
ssS'mobley_2390199'
p1236
(dp1237
g3
S'CCCC(=O)CCC'
p1238
sg25
F-2.68
sg26
F0.02
sg7
(lp1239
g28
asg29
S'heptan-4-one'
p1240
sg12
I31246
sg13
F0.6
sg31
F-2.92
sg15
(lp1241
S'ketone'
p1242
asg36
g37
sg38
g39
ssS'mobley_2960202'
p1243
(dp1244
g3
S'c1c2c(cc(c1Cl)Cl)Oc3c(c(c(c(c3Cl)Cl)Cl)Cl)O2'
p1245
sg211
F-1.9
sg212
F0.03
sg7
(lp1246
g28
asg214
S'1,2,3,4,7,8-hexachlorodibenzo-p-dioxin'
p1247
sg12
I38251
sg216
F1.0
sg217
F-3.71
sg15
(lp1248
S'diaryl ether'
p1249
aS'aryl chloride'
p1250
aS'aromatic'
p1251
aS'heterocyclic'
p1252
asg220
g221
sg222
g223
ssS'mobley_5326154'
p1253
(dp1254
g3
S'CN(C)c1ccccc1'
p1255
sg25
F-4.7
sg26
F0.02
sg7
(lp1256
g28
asg29
S'N,N-dimethylaniline'
p1257
sg12
I949
sg13
F0.6
sg31
F-3.45
sg15
(lp1258
S'tertiary amine'
p1259
aS'tertiary aliphatic/aromatic amine (alkylarylamine)'
p1260
aS'aromatic'
p1261
asg36
g37
sg38
g39
ssS'mobley_7176290'
p1262
(dp1263
g3
S'c1cc(cc(c1)O)[N+](=O)[O-]'
p1264
sg25
F-7.66
sg26
F0.03
sg7
(lp1265
g28
asg29
S'3-nitrophenol'
p1266
sg12
I11137
sg13
F0.6
sg31
F-9.62
sg15
(lp1267
S'phenol or hydroxyhetarene'
p1268
aS'nitro'
p1269
aS'aromatic'
p1270
asg36
g37
sg38
g39
ssS'mobley_6334915'
p1271
(dp1272
g3
S'COP(=O)([C@H](C(Cl)(Cl)Cl)O)OC'
p1273
sg179
F-14.03
sg180
F0.04
sg7
(lp1274
g28
aS'Changed IUPAC name from trichlorfon to (1R)-2,2,2-trichloro-1-dimethoxyphosphoryl-ethanol for better handling/standardization.'
p1275
asg182
S'(1R)-2,2,2-trichloro-1-dimethoxyphosphoryl-ethanol'
p1276
sg12
I6604183
sg184
F1.93
sg185
F-12.74
sg15
(lp1277
S'halogen derivative'
p1278
asg188
g189
sg190
g191
ssS'mobley_6497672'
p1279
(dp1280
g3
S'C/C=C/C=O'
p1281
sg25
F-3.66
sg26
F0.02
sg7
(lp1282
S'Renamed mobley_6497672 from but-2-enal to (E)-but-2-enal (the name from the 3D structure) since the former did not completely specify stereochemistry.\n'
p1283
asg29
S'but-2-enal'
p1284
sg12
I447466
sg13
F0.6
sg31
F-4.22
sg15
(lp1285
S'aldehyde'
p1286
aS'alkene'
p1287
asg36
g37
sg38
g39
ssS'mobley_5665561'
p1288
(dp1289
g3
S'Cc1cc(c2ccccc2c1)C'
p1290
sg25
F-2.79
sg26
F0.03
sg7
(lp1291
g28
asg29
S'1,3-dimethylnaphthalene'
p1292
sg12
I11327
sg13
F0.6
sg31
F-2.47
sg15
(lp1293
S'aromatic'
p1294
asg36
g37
sg38
g39
ssS'mobley_4850657'
p1295
(dp1296
g3
S'CS(=O)(=O)Cl'
p1297
sg25
F-6.33
sg26
F0.02
sg7
(lp1298
g28
asg29
S'methanesulfonyl chloride'
p1299
sg12
I31297
sg13
F0.6
sg31
F-4.87
sg15
(lp1300
S'sulfonyl halide'
p1301
asg36
S'10.1139/v98-084'
p1302
sg38
g39
ssS'mobley_8809190'
p1303
(dp1304
g3
S'CCCCc1ccccc1'
p1305
sg25
F-0.3
sg26
F0.02
sg7
(lp1306
g28
asg29
S'butylbenzene'
p1307
sg12
I7705
sg13
F0.6
sg31
F-0.4
sg15
(lp1308
S'aromatic'
p1309
asg36
g37
sg38
g39
ssS'mobley_1743409'
p1310
(dp1311
g3
S'CCOC(=O)CCC(=O)OCC'
p1312
sg25
F-8.47
sg26
F0.04
sg7
(lp1313
g28
asg29
S'diethyl butanedioate'
p1314
sg12
I31249
sg13
F0.6
sg31
F-5.71
sg15
(lp1315
S'carboxylic acid ester'
p1316
asg36
S'10.1139/v91-2'
p1317
sg38
g39
ssS'mobley_900088'
p1318
(dp1319
g3
S'CC(=C)C(=C)C'
p1320
sg25
F1.69
sg26
F0.02
sg7
(lp1321
g28
asg29
S'2,3-dimethylbuta-1,3-diene'
p1322
sg12
I10566
sg13
F0.6
sg31
F0.4
sg15
(lp1323
S'alkene'
p1324
asg36
g37
sg38
g39
ssS'mobley_5759258'
p1325
(dp1326
g3
S'CCCCCO'
p1327
sg25
F-3.14
sg26
F0.02
sg7
(lp1328
g28
asg29
S'pentan-1-ol'
p1329
sg12
I6276
sg13
F0.6
sg31
F-4.57
sg15
(lp1330
S'primary alcohol'
p1331
asg36
g37
sg38
g39
ssS'mobley_7608435'
p1332
(dp1333
g3
S'CCCCCCCC(=O)OC'
p1334
sg25
F-2.94
sg26
F0.03
sg7
(lp1335
g28
asg29
S'methyl octanoate'
p1336
sg12
I8091
sg13
F0.6
sg31
F-2.04
sg15
(lp1337
S'carboxylic acid ester'
p1338
asg36
g37
sg38
g39
ssS'mobley_3006808'
p1339
(dp1340
g3
S'C(C(F)(F)F)O'
p1341
sg25
F-3.95
sg26
F0.03
sg7
(lp1342
g28
asg29
S'2,2,2-trifluoroethanol'
p1343
sg12
I6409
sg13
F0.6
sg31
F-4.31
sg15
(lp1344
S'primary alcohol'
p1345
aS'halogen derivative'
p1346
asg36
S'10.1039/F19736901577'
p1347
sg38
g39
ssS'mobley_6303022'
p1348
(dp1349
g3
S'CCc1ccncc1'
p1350
sg25
F-2.87
sg26
F0.02
sg7
(lp1351
g28
asg29
S'4-ethylpyridine'
p1352
sg12
I10822
sg13
F0.6
sg31
F-4.73
sg15
(lp1353
S'aromatic'
p1354
aS'heterocyclic'
p1355
asg36
g37
sg38
g39
ssS'mobley_7047032'
p1356
(dp1357
g3
S'CC(C)(C)Cl'
p1358
sg25
F0.82
sg26
F0.02
sg7
(lp1359
g28
asg29
S'2-chloro-2-methyl-propane'
p1360
sg12
I10486
sg13
F0.6
sg31
F1.09
sg15
(lp1361
S'alkyl chloride'
p1362
asg36
g37
sg38
g39
ssS'mobley_1708457'
p1363
(dp1364
g3
S'CS(=O)(=O)C'
p1365
sg25
F-10.36
sg26
F0.03
sg7
(lp1366
g28
asg29
S'methylsulfonylmethane'
p1367
sg12
I6213
sg13
F0.6
sg31
F-10.08
sg15
(lp1368
S'sulfone'
p1369
asg36
g734
sg38
g39
ssS'mobley_1079207'
p1370
(dp1371
g3
S'c1cc(cc(c1)Cl)Cl'
p1372
sg25
F0.01
sg26
F0.02
sg7
(lp1373
g28
asg29
S'1,3-dichlorobenzene'
p1374
sg12
I10943
sg13
F0.6
sg31
F-0.98
sg15
(lp1375
S'aryl chloride'
p1376
aS'aromatic'
p1377
asg36
g37
sg38
g39
ssS'mobley_8573194'
p1378
(dp1379
g3
S'CCCC=O'
p1380
sg25
F-3.01
sg26
F0.02
sg7
(lp1381
g28
asg29
S'butanal'
p1382
sg12
I261
sg13
F0.6
sg31
F-3.18
sg15
(lp1383
S'aldehyde'
p1384
asg36
g37
sg38
g39
ssS'mobley_7375018'
p1385
(dp1386
g3
S'CCCCCCCCCC(=O)C'
p1387
sg25
F-2.12
sg26
F0.03
sg7
(lp1388
g28
asg29
S'undecan-2-one'
p1389
sg12
I8163
sg13
F0.6
sg31
F-2.15
sg15
(lp1390
S'ketone'
p1391
asg36
g37
sg38
g39
ssS'mobley_4792268'
p1392
(dp1393
g3
S'CCCCC(=O)O'
p1394
sg25
F-5.37
sg26
F0.06
sg7
(lp1395
g28
asg29
S'pentanoic acid'
p1396
sg12
I7991
sg13
F0.6
sg31
F-6.16
sg15
(lp1397
S'carboxylic acid'
p1398
asg36
g37
sg38
g39
ssS'mobley_1520842'
p1399
(dp1400
g3
S'Cc1ccncc1'
p1401
sg25
F-3.41
sg26
F0.02
sg7
(lp1402
g28
asg29
S'4-methylpyridine'
p1403
sg12
I7963
sg13
F0.6
sg31
F-4.93
sg15
(lp1404
S'aromatic'
p1405
aS'heterocyclic'
p1406
asg36
g37
sg38
g39
ssS'mobley_5520946'
p1407
(dp1408
g3
S'c1ccc(cc1)S'
p1409
sg25
F-1.43
sg26
F0.02
sg7
(lp1410
g28
asg29
S'benzenethiol'
p1411
sg12
I7969
sg13
F0.6
sg31
F-2.55
sg15
(lp1412
S'thiol (sulfanyl)'
p1413
aS'arylthiol (thiophenol)'
p1414
aS'aromatic'
p1415
asg36
g37
sg38
g39
ssS'mobley_2005792'
p1416
(dp1417
g3
S'c1ccc(cc1)c2ccccc2'
p1418
sg5
F-3.5
sg6
F0.1
sg7
(lp1419
g9
aS'Changed IUPAC name from biphenyle to biphenyl for better handling/standardization.'
p1420
asg10
S'biphenyle'
p1421
sg12
I7095
sg13
F0.2
sg14
F-2.7
sg15
(lp1422
S'aromatic'
p1423
asg18
g19
sg20
g21
ssS'mobley_7688753'
p1424
(dp1425
g3
S'c1cc(cc(c1)O)C=O'
p1426
sg25
F-9.24
sg26
F0.03
sg7
(lp1427
g28
aS"Experimental value updated 10/22/13 from J. Peter Guthrie's examination of published data. A range of values -7.48 to -9.52 seem possible, but the original experimental data has not yet been located. More work is needed.\n"
p1428
asg29
S'3-hydroxybenzaldehyde'
p1429
sg12
I101
sg13
F1.9
sg31
F-9.52
sg15
(lp1430
S'aldehyde'
p1431
aS'phenol or hydroxyhetarene'
p1432
aS'aromatic'
p1433
asg36
g37
sg38
g39
ssS'mobley_1723043'
p1434
(dp1435
g3
S'C1(C(C(C1(F)F)(F)F)(F)F)(F)F'
p1436
sg394
F3.01
sg395
F0.04
sg7
(lp1437
g28
asg397
S'octafluorocyclobutane'
p1438
sg12
I8263
sg399
F0.03
sg400
F3.43
sg15
(lp1439
S'alkyl fluoride'
p1440
asg406
g407
sg408
g409
ssS'mobley_7860938'
p1441
(dp1442
g3
S'CCCCNCCCC'
p1443
sg25
F-1.63
sg26
F0.03
sg7
(lp1444
g28
asg29
S'N-butylbutan-1-amine'
p1445
sg12
I8148
sg13
F0.6
sg31
F-3.24
sg15
(lp1446
S'secondary amine'
p1447
aS'secondary aliphatic amine (dialkylamine)'
p1448
asg36
g37
sg38
g39
ssS'mobley_4845722'
p1449
(dp1450
g3
S'c1(c(c(c(c(c1Cl)Cl)Cl)Cl)Cl)Cl'
p1451
sg394
F0.24
sg395
F0.04
sg7
(lp1452
g28
asg397
S'hexachlorobenzene'
p1453
sg12
I8370
sg399
F1.16
sg400
F-2.33
sg15
(lp1454
S'aryl chloride'
p1455
aS'aromatic'
p1456
asg406
g407
sg408
g409
ssS'mobley_3709920'
p1457
(dp1458
g3
S'CCCCCCCC=C'
p1459
sg25
F2.91
sg26
F0.03
sg7
(lp1460
g28
asg29
S'non-1-ene'
p1461
sg12
I31285
sg13
F0.6
sg31
F2.06
sg15
(lp1462
S'alkene'
p1463
asg36
g37
sg38
g39
ssS'mobley_7542832'
p1464
(dp1465
g3
S'CCCOCCC'
p1466
sg25
F0.21
sg26
F0.02
sg7
(lp1467
g28
asg29
S'1-propoxypropane'
p1468
sg12
I8114
sg13
F0.6
sg31
F-1.16
sg15
(lp1469
S'dialkyl ether'
p1470
asg36
g37
sg38
g39
ssS'mobley_2492140'
p1471
(dp1472
g3
S'C(C(Cl)(Cl)Cl)(Cl)Cl'
p1473
sg211
F0.13
sg212
F0.02
sg7
(lp1474
g28
asg214
S'1,1,1,2,2-pentachloroethane'
p1475
sg12
I6419
sg216
F0.1
sg217
F-1.23
sg15
(lp1476
S'alkyl chloride'
p1477
asg220
g221
sg222
g223
ssS'mobley_8899867'
p1478
(dp1479
g3
S'C1CCC(C1)O'
p1480
sg25
F-4.15
sg26
F0.02
sg7
(lp1481
g28
asg29
S'cyclopentanol'
p1482
sg12
I7298
sg13
F0.6
sg31
F-5.49
sg15
(lp1483
S'secondary alcohol'
p1484
asg36
g37
sg38
g39
ssS'mobley_5371840'
p1485
(dp1486
g3
S'c1ccc2c(c1)Oc3ccc(cc3O2)Cl'
p1487
sg211
F-3.99
sg212
F0.02
sg7
(lp1488
g28
asg214
S'2-chlorodibenzo-p-dioxin'
p1489
sg12
I38252
sg216
F0.1
sg217
F-3.1
sg15
(lp1490
S'diaryl ether'
p1491
aS'aryl chloride'
p1492
aS'aromatic'
p1493
aS'heterocyclic'
p1494
asg220
g221
sg222
g223
ssS'mobley_2929847'
p1495
(dp1496
g3
S'CC(C)CC(=O)O'
p1497
sg25
F-5.51
sg26
F0.03
sg7
(lp1498
g28
asg29
S'3-methylbutanoic acid'
p1499
sg12
I10430
sg13
F0.6
sg31
F-6.09
sg15
(lp1500
S'carboxylic acid'
p1501
asg36
g37
sg38
g39
ssS'mobley_8006582'
p1502
(dp1503
g3
S'C1CCCC1'
p1504
sg25
F1.53
sg26
F0.02
sg7
(lp1505
g28
asg29
S'cyclopentane'
p1506
sg12
I9253
sg13
F0.6
sg31
F1.2
sg15
(lp1507
g17
asg36
g37
sg38
g39
ssS'mobley_2146331'
p1508
(dp1509
g3
S'C=O'
p1510
sg25
F-3.22
sg26
F0.01
sg7
(lp1511
g28
aS'Formaldehyde is covalently hydrated in water. Our value here is the true free energy of hydration (based on the concentration of formaldehyde in gas vs in water) as opposed to the apparent one. See Guthrie, J. P., J. Am. Chem. Soc. 2000, 122, 5529-5538.\n'
p1512
asg29
S'formaldehyde'
p1513
sg12
I712
sg13
F0.6
sg31
F-2.75
sg15
(lp1514
S'aldehyde'
p1515
asg36
g37
sg38
g39
ssS'mobley_2099370'
p1516
(dp1517
g3
S'C[C@@H](c1cccc(c1)C(=O)c2ccccc2)C(=O)O'
p1518
sg394
F-11.9
sg395
F0.1
sg7
(lp1519
S'Renamed mobley_2099370 from ketoprofen to (2S)-2-(3-benzoylphenyl)propanoic acid (the name from the 3D structure) since the former did not completely specify stereochemistry.\n'
p1520
asg397
S'ketoprofen'
p1521
sg12
I3825
sg399
F0.18
sg400
F-10.78
sg15
(lp1522
S'ketone'
p1523
aS'carboxylic acid'
p1524
aS'aromatic'
p1525
asg406
g407
sg408
g409
ssS'mobley_3968043'
p1526
(dp1527
g3
S'C1CCC(=O)C1'
p1528
sg25
F-3.71
sg26
F0.02
sg7
(lp1529
g28
asg29
S'cyclopentanone'
p1530
sg12
I8452
sg13
F0.6
sg31
F-4.7
sg15
(lp1531
S'ketone'
p1532
asg36
g37
sg38
g39
ssS'mobley_3323117'
p1533
(dp1534
g3
S'C1CC[S+2](C1)([O-])[O-]'
p1535
sg394
F-9.45
sg395
F0.05
sg7
(lp1536
g28
asg397
S'sulfolane'
p1537
sg12
I31347
sg399
F0.31
sg400
F-8.61
sg15
(lp1538
S'heterocyclic'
p1539
asg406
g407
sg408
g409
ssS'mobley_4043951'
p1540
(dp1541
g3
S'CCCC=C'
p1542
sg25
F2.44
sg26
F0.02
sg7
(lp1543
g28
asg29
S'pent-1-ene'
p1544
sg12
I8004
sg13
F0.6
sg31
F1.68
sg15
(lp1545
S'alkene'
p1546
asg36
g37
sg38
g39
ssS'mobley_8705848'
p1547
(dp1548
g3
S'CC(C)NC(C)C'
p1549
sg25
F-1.97
sg26
F0.02
sg7
(lp1550
g28
asg29
S'N-isopropylpropan-2-amine'
p1551
sg12
I7912
sg13
F0.6
sg31
F-3.22
sg15
(lp1552
S'secondary amine'
p1553
aS'secondary aliphatic amine (dialkylamine)'
p1554
asg36
g37
sg38
g39
ssS'mobley_2484519'
p1555
(dp1556
g3
S'c1ccc(cc1)CCl'
p1557
sg1192
F-1.5
sg1193
F0.08
sg1194
(lp1558
g1196
ag28
ag166
asg1197
S'benzyl chloride'
p1559
sg12
I7503
sg13
F0.2
sg1199
F-1.93
sg15
(lp1560
S'alkyl chloride'
p1561
aS'aromatic'
p1562
asg1202
g1203
sg1204
g1203
ssS'mobley_547634'
p1563
(dp1564
g3
S'Cc1cc2ccccc2cc1C'
p1565
sg25
F-2.59
sg26
F0.02
sg7
(lp1566
g28
asg29
S'2,3-dimethylnaphthalene'
p1567
sg12
I11386
sg13
F0.6
sg31
F-2.78
sg15
(lp1568
S'aromatic'
p1569
asg36
g37
sg38
g39
ssS'mobley_8311321'
p1570
(dp1571
g3
S'C(F)(F)Cl'
p1572
sg25
F-0.04
sg26
F0.02
sg7
(lp1573
g28
asg29
S'chloro-difluoro-methane'
p1574
sg12
I6372
sg13
F0.6
sg31
F-0.5
sg15
(lp1575
S'halogen derivative'
p1576
asg36
g37
sg38
g39
ssS'mobley_3318135'
p1577
(dp1578
g3
S'CCCCC(=O)CCCC'
p1579
sg25
F-2.34
sg26
F0.03
sg7
(lp1580
g28
asg29
S'nonan-5-one'
p1581
sg12
I10405
sg13
F0.6
sg31
F-2.64
sg15
(lp1582
S'ketone'
p1583
asg36
g37
sg38
g39
ssS'mobley_3761215'
p1584
(dp1585
g3
S'CC(Cl)(Cl)Cl'
p1586
sg25
F0.75
sg26
F0.02
sg7
(lp1587
g28
asg29
S'1,1,1-trichloroethane'
p1588
sg12
I6278
sg13
F0.6
sg31
F-0.19
sg15
(lp1589
S'halogen derivative'
p1590
asg36
g37
sg38
g39
ssS'mobley_282648'
p1591
(dp1592
g3
S'c1ccc2ccccc2c1'
p1593
sg25
F-3.34
sg26
F0.02
sg7
(lp1594
g28
asg29
S'naphthalene'
p1595
sg12
I931
sg13
F0.6
sg31
F-2.4
sg15
(lp1596
S'aromatic'
p1597
asg36
g37
sg38
g39
ssS'mobley_3183805'
p1598
(dp1599
g3
S'Cc1ccc(c(c1)C)C'
p1600
sg25
F-0.36
sg26
F0.02
sg7
(lp1601
g28
asg29
S'1,2,4-trimethylbenzene'
p1602
sg12
I7247
sg13
F0.6
sg31
F-0.86
sg15
(lp1603
S'aromatic'
p1604
asg36
g37
sg38
g39
ssS'mobley_1717215'
p1605
(dp1606
g3
S'COC=O'
p1607
sg25
F-3.17
sg26
F0.02
sg7
(lp1608
g28
asg29
S'methyl formate'
p1609
sg12
I7865
sg13
F0.6
sg31
F-2.78
sg15
(lp1610
S'carboxylic acid ester'
p1611
asg36
g37
sg38
g39
ssS'mobley_5600967'
p1612
(dp1613
g3
S'CN(C)C(=O)c1ccc(cc1)OC'
p1614
sg25
F-9.29
sg26
F0.04
sg7
(lp1615
g28
asg29
S'4-methoxy-N,N-dimethyl-benzamide'
p1616
sg12
I81713
sg13
F0.6
sg31
F-11.01
sg15
(lp1617
S'cation'
p1618
aS'alkyl aryl ether'
p1619
aS'aromatic'
p1620
asg36
g599
sg38
g39
ssS'mobley_6794076'
p1621
(dp1622
g3
S'CC(=O)c1ccncc1'
p1623
sg25
F-7.63
sg26
F0.03
sg7
(lp1624
g28
asg29
S'1-(4-pyridyl)ethanone'
p1625
sg12
I14282
sg13
F0.6
sg31
F-7.62
sg15
(lp1626
S'ketone'
p1627
aS'aromatic'
p1628
aS'heterocyclic'
p1629
asg36
g37
sg38
g39
ssS'mobley_6055410'
p1630
(dp1631
g3
S'c1cc(c(cc1c2ccc(cc2F)F)C(=O)O)O'
p1632
sg394
F-6.5
sg395
F0.1
sg7
(lp1633
g28
asg397
S'diflunisal'
p1634
sg12
I3059
sg399
F0.2
sg400
F-9.4
sg15
(lp1635
S'phenol or hydroxyhetarene'
p1636
aS'aryl fluoride'
p1637
aS'carboxylic acid'
p1638
aS'aromatic'
p1639
asg406
g407
sg408
g409
ssS'mobley_7393673'
p1640
(dp1641
g3
S'COc1ccc(cc1)C(=O)OC'
p1642
sg25
F-6.32
sg26
F0.03
sg7
(lp1643
g28
asg29
S'methyl 4-methoxybenzoate'
p1644
sg12
I8499
sg13
F0.6
sg31
F-5.33
sg15
(lp1645
S'alkyl aryl ether'
p1646
aS'carboxylic acid ester'
p1647
aS'aromatic'
p1648
asg36
g599
sg38
g39
ssS'mobley_7676709'
p1649
(dp1650
g3
S'CC1=CC(=O)[C@@H](CC1)C(C)C'
p1651
sg476
F-3.81
sg477
F0.022
sg7
(lp1652
S'Renamed mobley_7676709 from 6-isopropyl-3-methyl-1-cyclohex-2-enone to (6S)-6-isopropyl-3-methyl-cyclohex-2-en-1-one (the name from the 3D structure) since the former did not completely specify stereochemistry.\n'
p1653
asg480
S'6-isopropyl-3-methyl-1-cyclohex-2-enone'
p1654
sg12
I61362
sg482
F0.1
sg493
F-4.51
sg15
(lp1655
S'ketone'
p1656
aS'alkene'
p1657
asg498
g499
sg500
g501
ssS'mobley_2845466'
p1658
(dp1659
g3
S'c1c2c(cc(c1Cl)Cl)Oc3cc(c(cc3O2)Cl)Cl'
p1660
sg211
F-2.49
sg212
F0.03
sg7
(lp1661
g28
asg214
S'2,3,7,8-tetrachlorodibenzo-p-dioxin'
p1662
sg12
I15625
sg216
F1.0
sg217
F-3.37
sg15
(lp1663
S'diaryl ether'
p1664
aS'aryl chloride'
p1665
aS'aromatic'
p1666
aS'heterocyclic'
p1667
asg220
g221
sg222
g223
ssS'mobley_9197172'
p1668
(dp1669
g3
S'CCCCCCC=C'
p1670
sg25
F2.77
sg26
F0.03
sg7
(lp1671
g28
asg29
S'oct-1-ene'
p1672
sg12
I8125
sg13
F0.6
sg31
F1.92
sg15
(lp1673
S'alkene'
p1674
asg36
g37
sg38
g39
ssS'mobley_9055303'
p1675
(dp1676
g3
S'C'
p1677
sg5
F2.6
sg6
F0.1
sg7
(lp1678
g9
asg10
S'methane'
p1679
sg12
I297
sg13
F0.2
sg14
F2.0
sg15
(lp1680
g17
asg18
g19
sg20
g21
ssS'mobley_6935906'
p1681
(dp1682
g3
S'CC(=CCC[C@](C)(C=C)OC(=O)C)C'
p1683
sg476
F-2.58
sg477
F0.024
sg7
(lp1684
g28
asg480
S'(3R)-3,7-Dimethylocta-1,6-dien-3-yl acetate'
p1685
sg12
I442474
sg482
g483
(g487
S'333333\xeb?'
p1686
tp1687
Rp1688
sg493
g483
(g487
S'\xecQ\xb8\x1e\x85\xeb\x03\xc0'
p1689
tp1690
Rp1691
sg15
(lp1692
S'carboxylic acid ester'
p1693
aS'alkene'
p1694
asg498
g499
sg500
g501
ssS'mobley_7239499'
p1695
(dp1696
g3
S'c1ccc2c(c1)Oc3cccc(c3O2)Cl'
p1697
sg211
F-4.38
sg212
F0.02
sg7
(lp1698
g28
asg214
S'1-chlorodibenzo-p-dioxin'
p1699
sg12
I37207
sg216
F0.1
sg217
F-3.52
sg15
(lp1700
S'diaryl ether'
p1701
aS'aryl chloride'
p1702
aS'aromatic'
p1703
aS'heterocyclic'
p1704
asg220
g221
sg222
g223
ssS'mobley_4193752'
p1705
(dp1706
g3
S'c1ccc(cc1)[N+](=O)[O-]'
p1707
sg25
F-3.4
sg26
F0.02
sg7
(lp1708
g28
asg29
S'nitrobenzene'
p1709
sg12
I7416
sg13
F0.6
sg31
F-4.12
sg15
(lp1710
S'nitro'
p1711
aS'aromatic'
p1712
asg36
g37
sg38
g39
ssS'mobley_2844990'
p1713
(dp1714
g3
S'c1cc2c(cc1Cl)Oc3cc(c(c(c3O2)Cl)Cl)Cl'
p1715
sg211
F-2.58
sg212
F0.03
sg7
(lp1716
g28
asg214
S'1,2,3,7-tetrachlorodibenzo-p-dioxin'
p1717
sg12
I48889
sg216
F1.0
sg217
F-3.84
sg15
(lp1718
S'diaryl ether'
p1719
aS'aryl chloride'
p1720
aS'aromatic'
p1721
aS'heterocyclic'
p1722
asg220
g221
sg222
g223
ssS'mobley_2925352'
p1723
(dp1724
g3
S'Cc1ccc(cc1)O'
p1725
sg25
F-5.36
sg26
F0.02
sg7
(lp1726
g28
asg29
S'p-cresol'
p1727
sg12
I2879
sg13
F0.6
sg31
F-6.13
sg15
(lp1728
S'phenol or hydroxyhetarene'
p1729
aS'aromatic'
p1730
asg36
g37
sg38
g39
ssS'mobley_5346580'
p1731
(dp1732
g3
S'CC(=O)C(C)(C)C'
p1733
sg25
F-2.91
sg26
F0.02
sg7
(lp1734
g28
asg29
S'3,3-dimethylbutan-2-one'
p1735
sg12
I6416
sg13
F0.6
sg31
F-3.11
sg15
(lp1736
S'ketone'
p1737
asg36
g37
sg38
g39
ssS'mobley_1923244'
p1738
(dp1739
g3
S'CCCC'
p1740
sg5
F3.1
sg6
F0.1
sg7
(lp1741
g9
asg10
S'n-butane'
p1742
sg12
I7843
sg13
F0.2
sg14
F2.1
sg15
(lp1743
g17
asg18
g19
sg20
g21
ssS'mobley_3690931'
p1744
(dp1745
g3
S'CCCC(=O)OCCC'
p1746
sg25
F-2.88
sg26
F0.03
sg7
(lp1747
g28
asg29
S'propyl butanoate'
p1748
sg12
I7770
sg13
F0.6
sg31
F-2.28
sg15
(lp1749
S'carboxylic acid ester'
p1750
asg36
g37
sg38
g39
ssS'mobley_6359135'
p1751
(dp1752
g3
S'C(Cl)(Cl)(Cl)Cl'
p1753
sg25
F1.41
sg26
F0.02
sg7
(lp1754
g28
asg29
S'carbon tetrachloride'
p1755
sg12
I5943
sg13
F0.6
sg31
F0.08
sg15
(lp1756
S'halogen derivative'
p1757
asg36
g37
sg38
g39
ssS'mobley_1857976'
p1758
(dp1759
g3
S'C(CCl)Cl'
p1760
sg25
F-0.52
sg26
F0.02
sg7
(lp1761
g28
asg29
S'1,2-dichloroethane'
p1762
sg12
I11
sg13
F0.6
sg31
F-1.79
sg15
(lp1763
S'alkyl chloride'
p1764
asg36
g37
sg38
g39
ssS'mobley_718988'
p1765
(dp1766
g3
S'CCCCCCCN'
p1767
sg25
F-2.72
sg26
F0.03
sg7
(lp1768
g28
asg29
S'heptan-1-amine'
p1769
sg12
I8127
sg13
F0.6
sg31
F-3.79
sg15
(lp1770
S'primary amine'
p1771
aS'primary aliphatic amine (alkylamine)'
p1772
asg36
g37
sg38
g39
ssS'mobley_1160109'
p1773
(dp1774
g3
S'C[C@@H]1CC[C@H](CC1=O)C(=C)C'
p1775
sg476
F-3.31
sg477
F0.021
sg7
(lp1776
g28
asg480
S'(2R,5R)-2-methyl-5-(1-methylethenyl)-cyclohexanone'
p1777
sg12
I22227
sg482
F0.21
sg493
F-3.75
sg15
(lp1778
S'ketone'
p1779
aS'alkene'
p1780
asg498
g499
sg500
g501
ssS'mobley_4584540'
p1781
(dp1782
g3
S'Cc1cccc(n1)C'
p1783
sg25
F-3.36
sg26
F0.02
sg7
(lp1784
g28
asg29
S'2,6-dimethylpyridine'
p1785
sg12
I7937
sg13
F0.6
sg31
F-4.59
sg15
(lp1786
S'aromatic'
p1787
aS'heterocyclic'
p1788
asg36
g37
sg38
g39
ssS'mobley_7573149'
p1789
(dp1790
g3
S'CCCOC(=O)C'
p1791
sg25
F-3.33
sg26
F0.02
sg7
(lp1792
g28
asg29
S'propyl acetate'
p1793
sg12
I7997
sg13
F0.6
sg31
F-2.79
sg15
(lp1794
S'carboxylic acid ester'
p1795
asg36
g37
sg38
g39
ssS'mobley_7758918'
p1796
(dp1797
g3
S'CCC(=O)O'
p1798
sg25
F-6.41
sg26
F0.03
sg7
(lp1799
g28
asg29
S'propionic acid'
p1800
sg12
I1032
sg13
F0.6
sg31
F-6.46
sg15
(lp1801
S'carboxylic acid'
p1802
asg36
g37
sg38
g39
ssS'mobley_1178614'
p1803
(dp1804
g3
S'c1ccc(c(c1)O)Cl'
p1805
sg25
F-3.23
sg26
F0.03
sg7
(lp1806
g28
asg29
S'2-chlorophenol'
p1807
sg12
I7245
sg13
F0.6
sg31
F-4.55
sg15
(lp1808
S'phenol or hydroxyhetarene'
p1809
aS'aryl chloride'
p1810
aS'aromatic'
p1811
asg36
g37
sg38
g39
ssS'mobley_4218209'
p1812
(dp1813
g3
S'COc1ccc(cc1)N'
p1814
sg25
F-6.92
sg26
F0.03
sg7
(lp1815
g28
asg29
S'4-methoxyaniline'
p1816
sg12
I7732
sg13
F0.6
sg31
F-7.48
sg15
(lp1817
S'alkyl aryl ether'
p1818
aS'primary amine'
p1819
aS'primary aromatic amine'
p1820
aS'aromatic'
p1821
asg36
g37
sg38
g39
ssS'mobley_7988076'
p1822
(dp1823
g3
S'c1cc(ccc1C=O)O'
p1824
sg25
F-10.0
sg26
F0.03
sg7
(lp1825
g28
asg29
S'4-hydroxybenzaldehyde'
p1826
sg12
I126
sg13
F0.6
sg31
F-8.83
sg15
(lp1827
S'aldehyde'
p1828
aS'phenol or hydroxyhetarene'
p1829
aS'aromatic'
p1830
asg36
g37
sg38
g39
ssS'mobley_6854178'
p1831
(dp1832
g3
S'CC(C)OC=O'
p1833
sg25
F-2.64
sg26
F0.02
sg7
(lp1834
g28
asg29
S'isopropyl formate'
p1835
sg12
I12257
sg13
F0.6
sg31
F-2.02
sg15
(lp1836
S'carboxylic acid ester'
p1837
asg36
g37
sg38
g39
ssS'mobley_6175884'
p1838
(dp1839
g3
S'Cc1ccc(cc1)C=O'
p1840
sg25
F-4.9
sg26
F0.03
sg7
(lp1841
g28
asg29
S'4-methylbenzaldehyde'
p1842
sg12
I7725
sg13
F0.6
sg31
F-4.27
sg15
(lp1843
S'aldehyde'
p1844
aS'aromatic'
p1845
asg36
g37
sg38
g39
ssS'mobley_6235784'
p1846
(dp1847
g3
S'CC[C@H](C)Cl'
p1848
sg25
F1.21
sg26
F0.02
sg7
(lp1849
S'Renamed mobley_6235784 from 2-chlorobutane to (2S)-2-chlorobutane (the name from the 3D structure) since the former did not completely specify stereochemistry.\n'
p1850
asg29
S'2-chlorobutane'
p1851
sg12
I6563
sg13
F0.6
sg31
F0.0
sg15
(lp1852
S'alkyl chloride'
p1853
asg36
g37
sg38
g39
ssS'mobley_9100956'
p1854
(dp1855
g3
S'CC1CCCCC1'
p1856
sg25
F1.82
sg26
F0.02
sg7
(lp1857
g28
asg29
S'methylcyclohexane'
p1858
sg12
I7962
sg13
F0.6
sg31
F1.7
sg15
(lp1859
g17
asg36
g37
sg38
g39
ssS'mobley_5026370'
p1860
(dp1861
g3
S'c1cnccc1C#N'
p1862
sg25
F-5.01
sg26
F0.02
sg7
(lp1863
g28
asg29
S'pyridine-4-carbonitrile'
p1864
sg12
I7506
sg13
F0.6
sg31
F-6.02
sg15
(lp1865
S'carbonitrile'
p1866
aS'aromatic'
p1867
aS'heterocyclic'
p1868
asg36
g37
sg38
g39
ssS'mobley_3762186'
p1869
(dp1870
g3
S'C(Cl)Cl'
p1871
sg25
F0.23
sg26
F0.01
sg7
(lp1872
g28
asg29
S'dichloromethane'
p1873
sg12
I6344
sg13
F0.6
sg31
F-1.31
sg15
(lp1874
S'alkyl chloride'
p1875
asg36
g37
sg38
g39
ssS'mobley_1977493'
p1876
(dp1877
g3
S'CCCCl'
p1878
sg25
F0.92
sg26
F0.02
sg7
(lp1879
g28
asg29
S'1-chloropropane'
p1880
sg12
I10899
sg13
F0.6
sg31
F-0.33
sg15
(lp1881
S'alkyl chloride'
p1882
asg36
g37
sg38
g39
ssS'mobley_9626434'
p1883
(dp1884
g3
S'CCOCCO'
p1885
sg25
F-4.77
sg26
F0.03
sg7
(lp1886
g28
asg29
S'2-ethoxyethanol'
p1887
sg12
I8076
sg13
F0.6
sg31
F-6.69
sg15
(lp1888
S'primary alcohol'
p1889
aS'dialkyl ether'
p1890
asg36
g37
sg38
g39
ssS'mobley_1396156'
p1891
(dp1892
g3
S'c1(c(c(c(c(c1Cl)Cl)Cl)Cl)Cl)N(=O)=O'
p1893
sg394
F-2.26
sg395
F0.05
sg7
(lp1894
g28
asg397
S'pentachloronitrobenzene'
p1895
sg12
I6720
sg399
F0.25
sg400
F-5.22
sg15
(lp1896
S'aryl chloride'
p1897
aS'nitro'
p1898
aS'aromatic'
p1899
asg406
g407
sg408
g409
ssS'mobley_9507933'
p1900
(dp1901
g3
S'Cc1ccc(nc1)C'
p1902
sg25
F-2.83
sg26
F0.02
sg7
(lp1903
g28
asg29
S'2,5-dimethylpyridine'
p1904
sg12
I11526
sg13
F0.6
sg31
F-4.72
sg15
(lp1905
S'aromatic'
p1906
aS'heterocyclic'
p1907
asg36
g37
sg38
g39
ssS'mobley_9913368'
p1908
(dp1909
g3
S'C(=C/Cl)\\Cl'
p1910
sg25
F1.2
sg26
F0.02
sg7
(lp1911
S'Renamed mobley_9913368 from (E)-1,2-dichloroethylene to (E)-1,2-dichloroethylene (the name from the 3D structure) since the former did not completely specify stereochemistry.\n'
p1912
asg29
S'(E)-1,2-dichloroethylene'
p1913
sg12
I638186
sg13
F0.6
sg31
F-0.78
sg15
(lp1914
S'halogen derivative'
p1915
aS'alkene'
p1916
asg36
g37
sg38
g39
ssS'mobley_3167746'
p1917
(dp1918
g3
S'CCCCCCCC'
p1919
sg25
F3.13
sg26
F0.03
sg7
(lp1920
g28
asg29
S'octane'
p1921
sg12
I356
sg13
F0.6
sg31
F2.88
sg15
(lp1922
g17
asg36
g37
sg38
g39
ssS'mobley_2725802'
p1923
(dp1924
g3
S'CC(=O)N1CCCC1'
p1925
sg25
F-7.97
sg26
F0.02
sg7
(lp1926
g28
asg29
S'1-pyrrolidin-1-ylethanone'
p1927
sg12
I77650
sg13
F0.6
sg31
F-9.8
sg15
(lp1928
S'cation'
p1929
aS'heterocyclic'
p1930
asg36
g37
sg38
g39
ssS'mobley_4678740'
p1931
(dp1932
g3
S'c1cc(cc(c1)C(F)(F)F)C(F)(F)F'
p1933
sg1192
F-0.27
sg1193
F0.04
sg1194
(lp1934
g1196
ag28
aS'Changed IUPAC name from m-bis(trifluoromethyl)benzene to 1,3-bis(trifluoromethyl)benzene for better handling/standardization.'
p1935
ag166
asg1197
S'm-bis(trifluoromethyl)benzene'
p1936
sg12
I223106
sg13
F0.2
sg1199
F1.07
sg15
(lp1937
S'halogen derivative'
p1938
aS'aromatic'
p1939
asg1202
g1203
sg1204
g1203
ssS'mobley_242480'
p1940
(dp1941
g3
S'c1ccc2c(c1)C(=O)c3c(ccc(c3C2=O)N)N'
p1942
sg476
F-14.2
sg477
F0.024
sg7
(lp1943
g28
asg480
S'1,4-diamino-9,10-anthracenedione'
p1944
sg12
I31420
sg482
g483
(g487
S'ffffff\xd6?'
p1945
tp1946
Rp1947
sg493
g483
(g487
S"33333\xb3'\xc0"
p1948
tp1949
Rp1950
sg15
(lp1951
S'ketone'
p1952
aS'primary amine'
p1953
aS'primary aromatic amine'
p1954
aS'aromatic'
p1955
asg498
g499
sg500
g501
ssS'mobley_5445548'
p1956
(dp1957
g3
S'CC(C)c1ccccc1'
p1958
sg25
F-0.31
sg26
F0.02
sg7
(lp1959
g28
asg29
S'cumene'
p1960
sg12
I7406
sg13
F0.6
sg31
F-0.3
sg15
(lp1961
S'aromatic'
p1962
asg36
g37
sg38
g39
ssS'mobley_8823527'
p1963
(dp1964
g3
S'c1cc(c(cc1Cl)c2cc(c(c(c2)Cl)Cl)Cl)Cl'
p1965
sg211
F-0.86
sg212
F0.03
sg7
(lp1966
g28
asg214
S'1,2,3-trichloro-5-(2,5-dichlorophenyl)benzene'
p1967
sg12
I63088
sg216
F0.13
sg217
F-3.61
sg15
(lp1968
S'aryl chloride'
p1969
aS'aromatic'
p1970
asg220
g221
sg222
g223
ssS'mobley_1019269'
p1971
(dp1972
g3
S'CCCCO'
p1973
sg25
F-3.14
sg26
F0.02
sg7
(lp1974
g28
asg29
S'butan-1-ol'
p1975
sg12
I263
sg13
F0.6
sg31
F-4.72
sg15
(lp1976
S'primary alcohol'
p1977
asg36
g37
sg38
g39
ssS'mobley_1755375'
p1978
(dp1979
g3
S'Cc1cccc(c1O)C'
p1980
sg25
F-4.09
sg26
F0.03
sg7
(lp1981
g28
asg29
S'2,6-dimethylphenol'
p1982
sg12
I11335
sg13
F0.6
sg31
F-5.26
sg15
(lp1983
S'phenol or hydroxyhetarene'
p1984
aS'aromatic'
p1985
asg36
g37
sg38
g39
ssS'mobley_4371692'
p1986
(dp1987
g3
S'c1ccc2c(c1)C(=O)c3c(ccc(c3C2=O)O)N'
p1988
sg476
F-11.22
sg477
F0.022
sg7
(lp1989
g28
asg480
S'1-amino-4-hydroxy-9,10-anthracenedione'
p1990
sg12
I8323
sg482
g483
(g487
S'\xecQ\xb8\x1e\x85\xeb\xd1?'
p1991
tp1992
Rp1993
sg493
g483
(g487
S'\x8f\xc2\xf5(\\\x0f#\xc0'
p1994
tp1995
Rp1996
sg15
(lp1997
S'ketone'
p1998
aS'phenol or hydroxyhetarene'
p1999
aS'primary amine'
p2000
aS'primary aromatic amine'
p2001
aS'aromatic'
p2002
asg498
g499
sg500
g501
ssS'mobley_1139153'
p2003
(dp2004
g3
S'CC(C)CC(C)(C)C'
p2005
sg25
F2.93
sg26
F0.03
sg7
(lp2006
g28
asg29
S'2,2,4-trimethylpentane'
p2007
sg12
I10907
sg13
F0.6
sg31
F2.89
sg15
(lp2008
g17
asg36
g37
sg38
g39
ssS'mobley_5471704'
p2009
(dp2010
g3
S'CC(C)CCOC(=O)C'
p2011
sg25
F-3.05
sg26
F0.03
sg7
(lp2012
g28
asg29
S'isopentyl acetate'
p2013
sg12
I31276
sg13
F0.6
sg31
F-2.21
sg15
(lp2014
S'carboxylic acid ester'
p2015
asg36
g37
sg38
g39
ssS'mobley_6060301'
p2016
(dp2017
g3
S'CCCCCCN'
p2018
sg25
F-2.54
sg26
F0.02
sg7
(lp2019
g28
asg29
S'hexan-1-amine'
p2020
sg12
I8102
sg13
F0.6
sg31
F-3.95
sg15
(lp2021
S'primary amine'
p2022
aS'primary aliphatic amine (alkylamine)'
p2023
asg36
g37
sg38
g39
ssS'mobley_588781'
p2024
(dp2025
g3
S'CCCCCCc1ccccc1'
p2026
sg25
F0.24
sg26
F0.03
sg7
(lp2027
g28
asg29
S'hexylbenzene'
p2028
sg12
I14109
sg13
F0.6
sg31
F-0.04
sg15
(lp2029
S'aromatic'
p2030
asg36
g37
sg38
g39
ssS'mobley_2354112'
p2031
(dp2032
g3
S'CCc1cccc(c1)O'
p2033
sg25
F-5.02
sg26
F0.03
sg7
(lp2034
g28
asg29
S'3-ethylphenol'
p2035
sg12
I12101
sg13
F0.6
sg31
F-6.25
sg15
(lp2036
S'phenol or hydroxyhetarene'
p2037
aS'aromatic'
p2038
asg36
g37
sg38
g39
ssS'mobley_5747188'
p2039
(dp2040
g3
S'Cc1ccccc1[N+](=O)[O-]'
p2041
sg25
F-3.14
sg26
F0.02
sg7
(lp2042
g28
asg29
S'1-methyl-2-nitro-benzene'
p2043
sg12
I6944
sg13
F0.6
sg31
F-3.58
sg15
(lp2044
S'nitro'
p2045
aS'aromatic'
p2046
asg36
g37
sg38
g39
ssS'mobley_8772587'
p2047
(dp2048
g3
S'CCCCI'
p2049
sg25
F0.58
sg26
F0.02
sg7
(lp2050
g28
asg29
S'1-iodobutane'
p2051
sg12
I10962
sg13
F0.6
sg31
F-0.25
sg15
(lp2052
S'alkyl iodide'
p2053
asg36
g37
sg38
g39
ssS'mobley_5456566'
p2054
(dp2055
g3
S'c1(c(c(c(c(c1Cl)Cl)Cl)Cl)Cl)c2c(c(c(c(c2Cl)Cl)Cl)Cl)Cl'
p2056
sg211
F0.87
sg212
F0.06
sg7
(lp2057
g28
asg214
S'1,2,3,4,5-pentachloro-6-(2,3,4,5,6-pentachlorophenyl)benzene'
p2058
sg12
I16318
sg216
F1.0
sg217
F-2.98
sg15
(lp2059
S'aryl chloride'
p2060
aS'aromatic'
p2061
asg220
g221
sg222
g223
ssS'mobley_2371092'
p2062
(dp2063
g3
S'Cc1ccncc1C'
p2064
sg25
F-3.18
sg26
F0.02
sg7
(lp2065
g28
asg29
S'3,4-dimethylpyridine'
p2066
sg12
I11417
sg13
F0.6
sg31
F-5.22
sg15
(lp2067
S'aromatic'
p2068
aS'heterocyclic'
p2069
asg36
g37
sg38
g39
ssS'mobley_1328936'
p2070
(dp2071
g3
S'COC(=O)c1ccc(cc1)[N+](=O)[O-]'
p2072
sg25
F-6.39
sg26
F0.03
sg7
(lp2073
g28
asg29
S'methyl 4-nitrobenzoate'
p2074
sg12
I12083
sg13
F0.6
sg31
F-6.88
sg15
(lp2075
S'carboxylic acid ester'
p2076
aS'nitro'
p2077
aS'aromatic'
p2078
asg36
g599
sg38
g39
ssS'mobley_5499659'
p2079
(dp2080
g3
S'Cn1ccnc1'
p2081
sg25
F-6.33
sg26
F0.03
sg7
(lp2082
g28
asg29
S'1-methylimidazole'
p2083
sg12
I1390
sg13
F0.6
sg31
F-8.41
sg15
(lp2084
S'aromatic'
p2085
aS'heterocyclic'
p2086
asg36
g37
sg38
g39
ssS'mobley_2792521'
p2087
(dp2088
g3
S'CCC/C=C/C=O'
p2089
sg25
F-3.22
sg26
F0.02
sg7
(lp2090
S'Renamed mobley_2792521 from hex-2-enal to (E)-hex-2-enal (the name from the 3D structure) since the former did not completely specify stereochemistry.\n'
p2091
aS'Experimental value provided by J. Peter Guthrie, University of Western Ontario, 10/23/2013, as a weighted average of the Buttery et al. and Karl et al. values noted in the experimental reference field.'
p2092
asg29
S'(2E)-hex-2-enal'
p2093
sg12
I5281168
sg13
F0.6
sg31
F-3.68
sg15
(lp2094
S'aldehyde'
p2095
aS'alkene'
p2096
asg36
S'10.1021/jf60178a004 and 10.1016/S1387-3806(02)00927-2'
p2097
sg38
g39
ssS'mobley_9974966'
p2098
(dp2099
g3
S'CC(C)SC(C)C'
p2100
sg25
F0.1
sg26
F0.02
sg7
(lp2101
g28
asg29
S'2-isopropylsulfanylpropane'
p2102
sg12
I12264
sg13
F0.6
sg31
F-1.21
sg15
(lp2103
S'thioether'
p2104
asg36
g37
sg38
g39
ssS'mobley_6733657'
p2105
(dp2106
g3
S'C1[C@H]([C@@H]2[C@H]([C@H]1Cl)[C@]3(C(=C([C@@]2(C3(Cl)Cl)Cl)Cl)Cl)Cl)Cl'
p2107
sg179
F-3.25
sg180
F0.03
sg7
(lp2108
g28
asg182
S'chlordane'
p2109
sg12
I5993
sg184
F0.1
sg185
F-3.44
sg15
(lp2110
S'alkyl chloride'
p2111
aS'alkene'
p2112
asg188
g189
sg190
g191
ssS'mobley_6082662'
p2113
(dp2114
g3
S'c1cc(ccc1N)N(=O)=O'
p2115
sg394
F-10.38
sg395
F0.05
sg7
(lp2116
g28
asg397
S'4-nitroaniline'
p2117
sg12
I7475
sg399
F0.1
sg400
F-9.82
sg15
(lp2118
S'primary amine'
p2119
aS'primary aromatic amine'
p2120
aS'nitro'
p2121
aS'aromatic'
p2122
asg406
g407
sg408
g409
ssS'mobley_2310185'
p2123
(dp2124
g3
S'CCO'
p2125
sg25
F-3.45
sg26
F0.03
sg7
(lp2126
g28
asg29
S'ethanol'
p2127
sg12
I702
sg13
F0.6
sg31
F-5.0
sg15
(lp2128
S'primary alcohol'
p2129
asg36
g37
sg38
g39
ssS'mobley_7099614'
p2130
(dp2131
g3
S'C=CCCl'
p2132
sg25
F0.88
sg26
F0.02
sg7
(lp2133
g28
asg29
S'3-chloroprop-1-ene'
p2134
sg12
I7850
sg13
F0.6
sg31
F-0.57
sg15
(lp2135
S'alkyl chloride'
p2136
aS'alkene'
p2137
asg36
g37
sg38
g39
ssS'mobley_7859387'
p2138
(dp2139
g3
S'CCCCCCC=O'
p2140
sg25
F-2.63
sg26
F0.03
sg7
(lp2141
g28
asg29
S'heptanal'
p2142
sg12
I8130
sg13
F0.6
sg31
F-2.67
sg15
(lp2143
S'aldehyde'
p2144
asg36
g37
sg38
g39
ssS'mobley_63712'
p2145
(dp2146
g3
S'CN1CCCCC1'
p2147
sg25
F-3.21
sg26
F0.02
sg7
(lp2148
g28
asg29
S'1-methylpiperidine'
p2149
sg12
I12291
sg13
F0.6
sg31
F-3.88
sg15
(lp2150
S'tertiary amine'
p2151
aS'tertiary aliphatic amine (trialkylamine)'
p2152
aS'heterocyclic'
p2153
asg36
g37
sg38
g39
ssS'mobley_3060426'
p2154
(dp2155
g3
S'CC(C)CCC(C)(C)C'
p2156
sg25
F2.86
sg26
F0.03
sg7
(lp2157
g28
asg29
S'2,2,5-trimethylhexane'
p2158
sg12
I19041
sg13
F0.6
sg31
F2.93
sg15
(lp2159
g17
asg36
g37
sg38
g39
ssS'mobley_5282042'
p2160
(dp2161
g3
S'CN(C)CCC=C1c2ccccc2CCc3c1cccc3'
p2162
sg476
F-8.28
sg477
F0.031
sg7
(lp2163
g28
asg480
S'Amitriptyline'
p2164
sg12
I2160
sg482
F0.6
sg493
F-7.43
sg15
(lp2165
S'tertiary amine'
p2166
aS'tertiary aliphatic amine (trialkylamine)'
p2167
aS'alkene'
p2168
aS'aromatic'
p2169
asg498
g499
sg500
g501
ssS'mobley_2607611'
p2170
(dp2171
g3
S'CCCCCCOC(=O)C'
p2172
sg25
F-2.97
sg26
F0.03
sg7
(lp2173
g28
asg29
S'hexyl acetate'
p2174
sg12
I8908
sg13
F0.6
sg31
F-2.26
sg15
(lp2175
S'carboxylic acid ester'
p2176
asg36
g37
sg38
g39
ssS'mobley_1036761'
p2177
(dp2178
g3
S'C1CCC(CC1)N'
p2179
sg25
F-3.94
sg26
F0.02
sg7
(lp2180
g28
asg29
S'cyclohexanamine'
p2181
sg12
I7965
sg13
F0.6
sg31
F-4.59
sg15
(lp2182
S'primary amine'
p2183
aS'primary aliphatic amine (alkylamine)'
p2184
asg36
g37
sg38
g39
ssS'mobley_4893032'
p2185
(dp2186
g3
S'CCCCC#N'
p2187
sg25
F-2.16
sg26
F0.02
sg7
(lp2188
g28
asg29
S'pentanenitrile'
p2189
sg12
I8061
sg13
F0.6
sg31
F-3.52
sg15
(lp2190
S'carbonitrile'
p2191
asg36
g37
sg38
g39
ssS'mobley_8558116'
p2192
(dp2193
g3
S'CN1CCOCC1'
p2194
sg25
F-5.87
sg26
F0.03
sg7
(lp2195
g28
asg29
S'4-methylmorpholine'
p2196
sg12
I7972
sg13
F0.6
sg31
F-6.32
sg15
(lp2197
S'dialkyl ether'
p2198
aS'tertiary amine'
p2199
aS'tertiary aliphatic amine (trialkylamine)'
p2200
aS'heterocyclic'
p2201
asg36
g37
sg38
g39
ssS'mobley_5518547'
p2202
(dp2203
g3
S'Cc1ccc(cc1)N'
p2204
sg25
F-5.56
sg26
F0.03
sg7
(lp2205
g28
asg29
S'4-methylaniline'
p2206
sg12
I7813
sg13
F0.6
sg31
F-5.57
sg15
(lp2207
S'primary amine'
p2208
aS'primary aromatic amine'
p2209
aS'aromatic'
p2210
asg36
g37
sg38
g39
ssS'mobley_3378420'
p2211
(dp2212
g3
S'CCCCCCCCCO'
p2213
sg25
F-2.54
sg26
F0.03
sg7
(lp2214
g28
asg29
S'nonan-1-ol'
p2215
sg12
I8914
sg13
F0.6
sg31
F-3.88
sg15
(lp2216
S'primary alcohol'
p2217
asg36
g37
sg38
g39
ssS'mobley_9794857'
p2218
(dp2219
g3
S'CC(C)(C)OC'
p2220
sg25
F-0.68
sg26
F0.02
sg7
(lp2221
g28
asg29
S'2-methoxy-2-methyl-propane'
p2222
sg12
I15413
sg13
F0.6
sg31
F-2.21
sg15
(lp2223
S'dialkyl ether'
p2224
asg36
g1317
sg38
g39
ssS'mobley_6456034'
p2225
(dp2226
g3
S'CC(C)COC(=O)C(C)C'
p2227
sg25
F-2.55
sg26
F0.03
sg7
(lp2228
g28
asg29
S'isobutyl 2-methylpropanoate'
p2229
sg12
I7351
sg13
F0.6
sg31
F-1.69
sg15
(lp2230
S'carboxylic acid ester'
p2231
asg36
g37
sg38
g39
ssS'mobley_3573480'
p2232
(dp2233
g3
S'CCCCCC(=O)C'
p2234
sg25
F-2.8
sg26
F0.02
sg7
(lp2235
g28
asg29
S'heptan-2-one'
p2236
sg12
I8051
sg13
F0.6
sg31
F-3.04
sg15
(lp2237
S'ketone'
p2238
asg36
g37
sg38
g39
ssS'mobley_676247'
p2239
(dp2240
g3
S'C(F)(F)(F)F'
p2241
sg25
F2.42
sg26
F0.01
sg7
(lp2242
g28
asg29
S'tetrafluoromethane'
p2243
sg12
I6393
sg13
F0.6
sg31
F3.12
sg15
(lp2244
S'halogen derivative'
p2245
asg36
g37
sg38
g39
ssS'mobley_5760563'
p2246
(dp2247
g3
S'COS(=O)(=O)OC'
p2248
sg25
F-7.85
sg26
F0.02
sg7
(lp2249
g28
asg29
S'dimethyl sulfate'
p2250
sg12
I6497
sg13
F0.6
sg31
F-5.1
sg15
(lp2251
S'sulfuric acid diester'
p2252
asg36
S'10.1139/v78-385'
p2253
sg38
g39
ssS'mobley_8754702'
p2254
(dp2255
g3
S'CCCOC=O'
p2256
sg25
F-3.5
sg26
F0.02
sg7
(lp2257
g28
asg29
S'propyl formate'
p2258
sg12
I8073
sg13
F0.6
sg31
F-2.48
sg15
(lp2259
S'carboxylic acid ester'
p2260
asg36
g37
sg38
g39
ssS'mobley_1424265'
p2261
(dp2262
g3
S'Cc1cccc(c1)C'
p2263
sg25
F-0.17
sg26
F0.02
sg7
(lp2264
g28
asg29
S'm-xylene'
p2265
sg12
I7929
sg13
F0.6
sg31
F-0.83
sg15
(lp2266
S'aromatic'
p2267
asg36
g37
sg38
g39
ssS'mobley_3169935'
p2268
(dp2269
g3
S'c1ccc(c(c1)N)Cl'
p2270
sg25
F-4.96
sg26
F0.03
sg7
(lp2271
g28
asg29
S'2-chloroaniline'
p2272
sg12
I7240
sg13
F0.6
sg31
F-4.91
sg15
(lp2273
S'primary amine'
p2274
aS'primary aromatic amine'
p2275
aS'aryl chloride'
p2276
aS'aromatic'
p2277
asg36
g37
sg38
g39
ssS'mobley_5311804'
p2278
(dp2279
g3
S'c1ccc(cc1)CO'
p2280
sg25
F-5.41
sg26
F0.03
sg7
(lp2281
g28
asg29
S'phenylmethanol'
p2282
sg12
I244
sg13
F0.6
sg31
F-6.62
sg15
(lp2283
S'primary alcohol'
p2284
aS'aromatic'
p2285
asg36
g37
sg38
g39
ssS'mobley_6115639'
p2286
(dp2287
g3
S'COP(=O)(OC)OC'
p2288
sg394
F-11.36
sg395
F0.06
sg7
(lp2289
g28
asg397
S'trimethyl phosphate'
p2290
sg12
I10541
sg399
F0.1
sg400
F-8.7
sg15
(lp2291
g17
asg406
g407
sg408
g409
ssS'mobley_6714389'
p2292
(dp2293
g3
S'CN'
p2294
sg25
F-3.44
sg26
F0.01
sg7
(lp2295
g28
asg29
S'methanamine'
p2296
sg12
I6329
sg13
F0.6
sg31
F-4.55
sg15
(lp2297
S'primary amine'
p2298
aS'primary aliphatic amine (alkylamine)'
p2299
asg36
g37
sg38
g39
ssS'mobley_9015240'
p2300
(dp2301
g3
S'CCCCCCCCBr'
p2302
sg25
F1.92
sg26
F0.03
sg7
(lp2303
g28
asg29
S'1-bromooctane'
p2304
sg12
I8140
sg13
F0.6
sg31
F0.52
sg15
(lp2305
S'alkyl bromide'
p2306
asg36
g37
sg38
g39
ssS'mobley_1417007'
p2307
(dp2308
g3
S'C1C=CC[C@@H]2[C@@H]1C(=O)N(C2=O)SC(Cl)(Cl)Cl'
p2309
sg179
F-8.71
sg180
F0.04
sg7
(lp2310
S'Renamed mobley_1417007 from captan to (3aR,7aR)-2-(trichloromethylsulfanyl)-3a,4,7,7a-tetrahydroisoindole-1,3-dione (the name from the 3D structure) since the former did not completely specify stereochemistry.\n'
p2311
asg182
S'captan'
p2312
sg12
I8606
sg184
F1.93
sg185
F-9.01
sg15
(lp2313
S'halogen derivative'
p2314
aS'carboxylic acid imide, N-substituted'
p2315
aS'alkene'
p2316
aS'heterocyclic'
p2317
asg188
g189
sg190
g191
ssS'mobley_2681549'
p2318
(dp2319
g3
S'c1c(cc(cc1Cl)Cl)Cl'
p2320
sg25
F0.45
sg26
F0.02
sg7
(lp2321
g28
asg29
S'1,3,5-trichlorobenzene'
p2322
sg12
I7950
sg13
F0.6
sg31
F-0.78
sg15
(lp2323
S'aryl chloride'
p2324
aS'aromatic'
p2325
asg36
g37
sg38
g39
ssS'mobley_4287564'
p2326
(dp2327
g3
S'Cc1ccccn1'
p2328
sg25
F-3.41
sg26
F0.02
sg7
(lp2329
g28
asg29
S'2-methylpyridine'
p2330
sg12
I7975
sg13
F0.6
sg31
F-4.63
sg15
(lp2331
S'aromatic'
p2332
aS'heterocyclic'
p2333
asg36
g37
sg38
g39
ssS'mobley_2043882'
p2334
(dp2335
g3
S'CC(=O)C1CCCCC1'
p2336
sg25
F-3.9
sg26
F0.02
sg7
(lp2337
g28
asg29
S'1-cyclohexylethanone'
p2338
sg12
I13207
sg13
F0.6
sg31
F-3.9
sg15
(lp2339
S'ketone'
p2340
asg36
g37
sg38
g39
ssS'mobley_352111'
p2341
(dp2342
g3
S'CC(=O)OCCOC(=O)C'
p2343
sg25
F-8.32
sg26
F0.04
sg7
(lp2344
g28
asg29
S'2-acetoxyethyl acetate'
p2345
sg12
I8121
sg13
F0.6
sg31
F-6.34
sg15
(lp2346
S'carboxylic acid ester'
p2347
asg36
g37
sg38
g39
ssS'mobley_3686115'
p2348
(dp2349
g3
S'CCOC(C)OCC'
p2350
sg1192
F-1.89
sg1193
F0.08
sg1194
(lp2351
g1196
ag28
ag166
asg1197
S'1,1-diethoxyethane'
p2352
sg12
I7765
sg13
F0.2
sg1199
F-3.28
sg15
(lp2353
S'acetal'
p2354
asg1202
g1203
sg1204
g1203
ssS'mobley_8337722'
p2355
(dp2356
g3
S'C[C@@H]1CC[C@H]([C@@H](C1)O)C(C)C'
p2357
sg476
F-3.39
sg477
F0.021
sg7
(lp2358
g28
asg480
S'(1R,2S,5R)-2-isopropyl-5-methylcyclohexanol'
p2359
sg12
I16666
sg482
F0.28
sg493
F-3.2
sg15
(lp2360
S'secondary alcohol'
p2361
asg498
g499
sg500
g501
ssS'mobley_7326706'
p2362
(dp2363
g3
S'CCOP(=S)(OCC)Oc1c(cc(c(n1)Cl)Cl)Cl'
p2364
sg179
F-9.05
sg180
F0.04
sg7
(lp2365
g28
asg182
S'chlorpyrifos'
p2366
sg12
I2730
sg184
F0.21
sg185
F-5.04
sg15
(lp2367
S'aryl chloride'
p2368
aS'aromatic'
p2369
aS'heterocyclic'
p2370
asg188
g189
sg190
g191
ssS'mobley_3144334'
p2371
(dp2372
g3
S'Cc1ccc(c(c1)O)C'
p2373
sg25
F-4.39
sg26
F0.03
sg7
(lp2374
g28
asg29
S'2,5-dimethylphenol'
p2375
sg12
I7267
sg13
F0.6
sg31
F-5.91
sg15
(lp2376
S'phenol or hydroxyhetarene'
p2377
aS'aromatic'
p2378
asg36
g37
sg38
g39
ssS'mobley_7608462'
p2379
(dp2380
g3
S'c1ccc(cc1)Cl'
p2381
sg25
F-0.6
sg26
F0.02
sg7
(lp2382
g28
asg29
S'chlorobenzene'
p2383
sg12
I7964
sg13
F0.6
sg31
F-1.12
sg15
(lp2384
S'aryl chloride'
p2385
aS'aromatic'
p2386
asg36
g37
sg38
g39
ssS'mobley_5973402'
p2387
(dp2388
g3
S'CC(C)CCO'
p2389
sg25
F-2.92
sg26
F0.03
sg7
(lp2390
g28
asg29
S'3-methylbutan-1-ol'
p2391
sg12
I31260
sg13
F0.6
sg31
F-4.42
sg15
(lp2392
S'primary alcohol'
p2393
asg36
g37
sg38
g39
ssS'mobley_6353617'
p2394
(dp2395
g3
S'CC(=O)c1cccnc1'
p2396
sg25
F-7.1
sg26
F0.03
sg7
(lp2397
g28
asg29
S'1-(3-pyridyl)ethanone'
p2398
sg12
I9589
sg13
F0.6
sg31
F-8.26
sg15
(lp2399
S'ketone'
p2400
aS'aromatic'
p2401
aS'heterocyclic'
p2402
asg36
g37
sg38
g39
ssS'mobley_2261979'
p2403
(dp2404
g3
S'c1cc2cccc3c2c(c1)CC3'
p2405
sg25
F-3.51
sg26
F0.03
sg7
(lp2406
g28
asg29
S'acenaphthene'
p2407
sg12
I6734
sg13
F0.6
sg31
F-3.15
sg15
(lp2408
S'aromatic'
p2409
asg36
g37
sg38
g39
ssS'mobley_4715906'
p2410
(dp2411
g3
S'C[C@@H]1CCCC[C@@H]1C'
p2412
sg25
F2.05
sg26
F0.02
sg7
(lp2413
S'Renamed mobley_4715906 from 1,2-dimethylcyclohexane to (1R,2S)-1,2-dimethylcyclohexane (the name from the 3D structure) since the former did not completely specify stereochemistry.\n'
p2414
asg29
S'1,2-dimethylcyclohexane'
p2415
sg12
I11416
sg13
F0.6
sg31
F1.58
sg15
(lp2416
g17
asg36
g37
sg38
g39
ssS'mobley_5952846'
p2417
(dp2418
g3
S'C(=C(Cl)Cl)(Cl)Cl'
p2419
sg25
F1.41
sg26
F0.02
sg7
(lp2420
g28
asg29
S'1,1,2,2-tetrachloroethylene'
p2421
sg12
I31373
sg13
F0.6
sg31
F0.1
sg15
(lp2422
S'halogen derivative'
p2423
asg36
g37
sg38
g39
ssS'mobley_1903702'
p2424
(dp2425
g3
S'CC[C@H](C)O'
p2426
sg25
F-3.12
sg26
F0.03
sg7
(lp2427
S'Renamed mobley_1903702 from butan-2-ol to (2S)-butan-2-ol (the name from the 3D structure) since the former did not completely specify stereochemistry.\n'
p2428
asg29
S'butan-2-ol'
p2429
sg12
I6568
sg13
F0.6
sg31
F-4.62
sg15
(lp2430
S'secondary alcohol'
p2431
asg36
g37
sg38
g39
ssS'mobley_5220185'
p2432
(dp2433
g3
S'CCc1cnccn1'
p2434
sg25
F-5.68
sg26
F0.03
sg7
(lp2435
g28
asg29
S'2-ethylpyrazine'
p2436
sg12
I26331
sg13
F0.6
sg31
F-5.45
sg15
(lp2437
S'aromatic'
p2438
aS'heterocyclic'
p2439
asg36
g37
sg38
g39
ssS'mobley_5510474'
p2440
(dp2441
g3
S'c1ccc2c(c1)Oc3c(c(c(c(c3Cl)Cl)Cl)Cl)O2'
p2442
sg211
F-2.7
sg212
F0.03
sg7
(lp2443
g28
asg214
S'1,2,3,4-tetrachlorodibenzo-p-dioxin'
p2444
sg12
I35454
sg216
F0.14
sg217
F-3.81
sg15
(lp2445
S'diaryl ether'
p2446
aS'aryl chloride'
p2447
aS'aromatic'
p2448
aS'heterocyclic'
p2449
asg220
g221
sg222
g223
ssS'mobley_3980099'
p2450
(dp2451
g3
S'c1cc(c(c(c1)Cl)Cl)Cl'
p2452
sg25
F-0.38
sg26
F0.02
sg7
(lp2453
g28
asg29
S'1,2,3-trichlorobenzene'
p2454
sg12
I6895
sg13
F0.6
sg31
F-1.24
sg15
(lp2455
S'aryl chloride'
p2456
aS'aromatic'
p2457
asg36
g37
sg38
g39
ssS'mobley_2501588'
p2458
(dp2459
g3
S'CCC[N@@](CC1CC1)c2c(cc(cc2[N+](=O)[O-])C(F)(F)F)[N+](=O)[O-]'
p2460
sg179
F-1.81
sg180
F0.04
sg7
(lp2461
g28
asg182
S'profluralin'
p2462
sg12
I33500
sg184
F1.37
sg185
F-2.45
sg15
(lp2463
S'tertiary amine'
p2464
aS'tertiary aliphatic/aromatic amine (alkylarylamine)'
p2465
aS'halogen derivative'
p2466
aS'nitro'
p2467
aS'aromatic'
p2468
asg188
g189
sg190
g191
ssS'mobley_3968739'
p2469
(dp2470
g3
S'COC(=O)c1ccccc1'
p2471
sg25
F-5.06
sg26
F0.03
sg7
(lp2472
g28
asg29
S'methyl benzoate'
p2473
sg12
I7150
sg13
F0.6
sg31
F-3.92
sg15
(lp2474
S'carboxylic acid ester'
p2475
aS'aromatic'
p2476
asg36
g37
sg38
g39
ssS'mobley_9897248'
p2477
(dp2478
g3
S'CC(=CCC/C(=C\\CO)/C)C'
p2479
sg476
F-2.64
sg477
F0.022
sg7
(lp2480
g28
aS'Former IUPAC name Nerol replaced with one generated from the 3D structure, (2Z)-3,7-dimethylocta-2,6-dien-1-ol'
p2481
asg480
S'(2Z)-3,7-dimethylocta-2,6-dien-1-ol'
p2482
sg12
I643820
sg482
g483
(g487
S'\x00\x00\x00\x00\x00\x00\xd0?'
p2483
tp2484
Rp2485
sg493
g483
(g487
S'\x1f\x85\xebQ\xb8\x1e\x13\xc0'
p2486
tp2487
Rp2488
sg15
(lp2489
S'primary alcohol'
p2490
aS'alkene'
p2491
asg498
g499
sg500
g501
ssS'mobley_3727287'
p2492
(dp2493
g3
S'C1=CC(=O)C=CC1=O'
p2494
sg5
F-6.9
sg6
F0.1
sg7
(lp2495
g9
asg10
S'quinone'
p2496
sg12
I4650
sg13
F0.2
sg14
F-6.5
sg15
(lp2497
S'ketone'
p2498
aS'alkene'
p2499
asg18
g19
sg20
g21
ssS'mobley_4924862'
p2500
(dp2501
g3
S'CC(C)CCOC=O'
p2502
sg25
F-3.39
sg26
F0.02
sg7
(lp2503
g28
asg29
S'isopentyl formate'
p2504
sg12
I8052
sg13
F0.6
sg31
F-2.13
sg15
(lp2505
S'carboxylic acid ester'
p2506
asg36
g37
sg38
g39
ssS'mobley_6620221'
p2507
(dp2508
g3
S'CC1(Cc2cccc(c2O1)OC(=O)NC)C'
p2509
sg179
F-11.21
sg180
F0.04
sg7
(lp2510
g28
asg182
S'carbofuran'
p2511
sg12
I2566
sg184
F0.3
sg185
F-9.61
sg15
(lp2512
S'alkyl aryl ether'
p2513
aS'aromatic'
p2514
aS'heterocyclic'
p2515
asg188
g189
sg190
g191
ssS'mobley_3370989'
p2516
(dp2517
g3
S'CC(F)F'
p2518
sg25
F0.19
sg26
F0.02
sg7
(lp2519
g28
asg29
S'1,1-difluoroethane'
p2520
sg12
I6368
sg13
F0.6
sg31
F-0.11
sg15
(lp2521
S'alkyl fluoride'
p2522
asg36
g37
sg38
g39
ssS'mobley_6232400'
p2523
(dp2524
g3
S'c1cc(cnc1)C=O'
p2525
sg25
F-7.64
sg26
F0.03
sg7
(lp2526
g28
asg29
S'pyridine-3-carbaldehyde'
p2527
sg12
I10371
sg13
F0.6
sg31
F-7.1
sg15
(lp2528
S'aldehyde'
p2529
aS'aromatic'
p2530
aS'heterocyclic'
p2531
asg36
g37
sg38
g39
ssS'mobley_5056289'
p2532
(dp2533
g3
S'C[C@H]1CCCO1'
p2534
sg25
F-1.95
sg26
F0.02
sg7
(lp2535
S'Renamed mobley_5056289 from 2-methyltetrahydrofuran to (2S)-2-methyltetrahydrofuran (the name from the 3D structure) since the former did not completely specify stereochemistry.\n'
p2536
asg29
S'2-methyltetrahydrofuran'
p2537
sg12
I7301
sg13
F0.6
sg31
F-3.3
sg15
(lp2538
S'dialkyl ether'
p2539
aS'heterocyclic'
p2540
asg36
g37
sg38
g39
ssS'mobley_6358463'
p2541
(dp2542
g3
S'c1ccc(c(c1)C(F)(F)F)C(F)(F)F'
p2543
sg25
F-1.58
sg26
F0.03
sg7
(lp2544
g28
asg29
S'1,2-bis(trifluoromethyl)benzene'
p2545
sg12
I9818
sg13
F0.6
sg31
F1.07
sg15
(lp2546
S'halogen derivative'
p2547
aS'aromatic'
p2548
asg36
g37
sg38
g39
ssS'mobley_1722522'
p2549
(dp2550
g3
S'CCCC(=O)OCC'
p2551
sg25
F-3.04
sg26
F0.02
sg7
(lp2552
g28
asg29
S'ethyl butanoate'
p2553
sg12
I7762
sg13
F0.6
sg31
F-2.49
sg15
(lp2554
S'carboxylic acid ester'
p2555
asg36
g37
sg38
g39
ssS'mobley_1261349'
p2556
(dp2557
g3
S'CC(C)(C)C'
p2558
sg25
F2.6
sg26
F0.02
sg7
(lp2559
g28
asg29
S'neopentane'
p2560
sg12
I10041
sg13
F0.6
sg31
F2.51
sg15
(lp2561
g17
asg36
g37
sg38
g39
ssS'mobley_1363784'
p2562
(dp2563
g3
S'Cc1cc(cnc1)C'
p2564
sg25
F-2.94
sg26
F0.02
sg7
(lp2565
g28
asg29
S'3,5-dimethylpyridine'
p2566
sg12
I11565
sg13
F0.6
sg31
F-4.84
sg15
(lp2567
S'aromatic'
p2568
aS'heterocyclic'
p2569
asg36
g37
sg38
g39
ssS'mobley_628086'
p2570
(dp2571
g3
S'C[C@@H](C(F)(F)F)O'
p2572
sg25
F-3.56
sg26
F0.03
sg7
(lp2573
S'Renamed mobley_628086 from 1,1,1-trifluoropropan-2-ol to (2S)-1,1,1-trifluoropropan-2-ol (the name from the 3D structure) since the former did not completely specify stereochemistry.\n'
p2574
asg29
S'1,1,1-trifluoropropan-2-ol'
p2575
sg12
I9774
sg13
F0.6
sg31
F-4.16
sg15
(lp2576
S'secondary alcohol'
p2577
aS'halogen derivative'
p2578
asg36
g37
sg38
g39
ssS'mobley_7599023'
p2579
(dp2580
g3
S'c1ccc(cc1)Br'
p2581
sg25
F-0.37
sg26
F0.02
sg7
(lp2582
g28
asg29
S'bromobenzene'
p2583
sg12
I7961
sg13
F0.6
sg31
F-1.46
sg15
(lp2584
S'aryl bromide'
p2585
aS'aromatic'
p2586
asg36
g37
sg38
g39
ssS'mobley_7039935'
p2587
(dp2588
g3
S'c1ccc2c(c1)cccc2O'
p2589
sg25
F-7.51
sg26
F0.03
sg7
(lp2590
g28
asg29
S'naphthalen-1-ol'
p2591
sg12
I7005
sg13
F0.6
sg31
F-7.67
sg15
(lp2592
S'phenol or hydroxyhetarene'
p2593
aS'aromatic'
p2594
asg36
g37
sg38
g39
ssS'mobley_1662128'
p2595
(dp2596
g3
S'CCC=C'
p2597
sg25
F2.48
sg26
F0.02
sg7
(lp2598
g28
asg29
S'but-1-ene'
p2599
sg12
I7844
sg13
F0.6
sg31
F1.38
sg15
(lp2600
S'alkene'
p2601
asg36
g37
sg38
g39
ssS'mobley_9510785'
p2602
(dp2603
g3
S'c1ccc(cc1)c2cc(c(c(c2Cl)Cl)Cl)Cl'
p2604
sg211
F-1.34
sg212
F0.03
sg7
(lp2605
g28
asg214
S'1,2,3,4-tetrachloro-5-phenyl-benzene'
p2606
sg12
I36401
sg216
F1.0
sg217
F-3.48
sg15
(lp2607
S'aryl chloride'
p2608
aS'aromatic'
p2609
asg220
g221
sg222
g223
ssS'mobley_4465023'
p2610
(dp2611
g3
S'C(=C\\Cl)\\Cl'
p2612
sg25
F0.31
sg26
F0.02
sg7
(lp2613
S'Renamed mobley_4465023 from (Z)-1,2-dichloroethylene to (Z)-1,2-dichloroethylene (the name from the 3D structure) since the former did not completely specify stereochemistry.\n'
p2614
asg29
S'(Z)-1,2-dichloroethylene'
p2615
sg12
I643833
sg13
F0.6
sg31
F-1.17
sg15
(lp2616
S'halogen derivative'
p2617
aS'alkene'
p2618
asg36
g37
sg38
g39
ssS'mobley_4364398'
p2619
(dp2620
g3
S'CI'
p2621
sg25
F0.03
sg26
F0.01
sg7
(lp2622
g28
asg29
S'iodomethane'
p2623
sg12
I6328
sg13
F0.6
sg31
F-0.89
sg15
(lp2624
S'alkyl iodide'
p2625
asg36
g37
sg38
g39
ssS'mobley_6917738'
p2626
(dp2627
g3
S'COCCN'
p2628
sg25
F-5.62
sg26
F0.03
sg7
(lp2629
g28
asg29
S'2-methoxyethanamine'
p2630
sg12
I8018
sg13
F0.6
sg31
F-6.55
sg15
(lp2631
S'dialkyl ether'
p2632
aS'primary amine'
p2633
aS'primary aliphatic amine (alkylamine)'
p2634
asg36
g37
sg38
g39
ssS'mobley_7943327'
p2635
(dp2636
g3
S'CCC(=O)OCC'
p2637
sg25
F-3.39
sg26
F0.02
sg7
(lp2638
g28
asg29
S'ethyl propanoate'
p2639
sg12
I7749
sg13
F0.6
sg31
F-2.68
sg15
(lp2640
S'carboxylic acid ester'
p2641
asg36
g37
sg38
g39
ssS'mobley_8118832'
p2642
(dp2643
g3
S'C=CCO'
p2644
sg25
F-3.23
sg26
F0.03
sg7
(lp2645
g28
asg29
S'prop-2-en-1-ol'
p2646
sg12
I7858
sg13
F0.6
sg31
F-5.03
sg15
(lp2647
S'primary alcohol'
p2648
aS'alkene'
p2649
asg36
g37
sg38
g39
ssS'mobley_5076071'
p2650
(dp2651
g3
S'CCN(CC)c1c(cc(c(c1[N+](=O)[O-])N)C(F)(F)F)[N+](=O)[O-]'
p2652
sg179
F-7.42
sg180
F0.04
sg7
(lp2653
g28
aS'Changed IUPAC name from dinitramine to 1-N,1-N-diethyl-2,6-dinitro-4-(trifluoromethyl)benzene-1,3-diamine for better handling/standardization.'
p2654
asg182
S'1-N,1-N-diethyl-2,6-dinitro-4-(trifluoromethyl)benzene-1,3-diamine'
p2655
sg12
I34468
sg184
F1.93
sg185
F-5.66
sg15
(lp2656
S'primary amine'
p2657
aS'primary aromatic amine'
p2658
aS'tertiary amine'
p2659
aS'tertiary aliphatic/aromatic amine (alkylarylamine)'
p2660
aS'halogen derivative'
p2661
aS'nitro'
p2662
aS'aromatic'
p2663
asg188
g189
sg190
g191
ssS'mobley_20524'
p2664
(dp2665
g3
S'c1ccc(cc1)O'
p2666
sg5
F-4.6
sg6
F0.1
sg7
(lp2667
g9
asg10
S'phenol'
p2668
sg12
I996
sg13
F0.2
sg14
F-6.6
sg15
(lp2669
S'phenol or hydroxyhetarene'
p2670
aS'aromatic'
p2671
asg18
g19
sg20
g21
ssS'mobley_7378987'
p2672
(dp2673
g3
S'Cn1cnc2c1c(=O)n(c(=O)n2C)C'
p2674
sg394
F-17.57
sg395
F0.07
sg7
(lp2675
g28
asg397
S'caffeine'
p2676
sg12
I2519
sg399
F0.74
sg400
F-12.64
sg15
(lp2677
S'oxo(het)arene'
p2678
aS'aromatic'
p2679
aS'heterocyclic'
p2680
asg406
g407
sg408
g409
ssS'mobley_7227357'
p2681
(dp2682
g3
S'CCC(CC)O'
p2683
sg25
F-2.95
sg26
F0.02
sg7
(lp2684
g28
asg29
S'pentan-3-ol'
p2685
sg12
I11428
sg13
F0.6
sg31
F-4.35
sg15
(lp2686
S'secondary alcohol'
p2687
asg36
g37
sg38
g39
ssS'mobley_9139060'
p2688
(dp2689
g3
S'CC1CCC(CC1)C'
p2690
sg25
F2.05
sg26
F0.02
sg7
(lp2691
g28
asg29
S'1,4-dimethylcyclohexane'
p2692
sg12
I11523
sg13
F0.6
sg31
F2.11
sg15
(lp2693
g17
asg36
g37
sg38
g39
ssS'mobley_2996632'
p2694
(dp2695
g3
S'C(Cl)(Cl)Cl'
p2696
sg25
F0.32
sg26
F0.02
sg7
(lp2697
g28
asg29
S'chloroform'
p2698
sg12
I6212
sg13
F0.6
sg31
F-1.08
sg15
(lp2699
S'halogen derivative'
p2700
asg36
g37
sg38
g39
ssS'mobley_9073553'
p2701
(dp2702
g3
S'CSC'
p2703
sg25
F0.26
sg26
F0.02
sg7
(lp2704
g28
asg29
S'methylsulfanylmethane'
p2705
sg12
I1068
sg13
F0.6
sg31
F-1.61
sg15
(lp2706
S'thioether'
p2707
asg36
g37
sg38
g39
ssS'mobley_397645'
p2708
(dp2709
g3
S'CCOC(=O)c1ccccc1'
p2710
sg25
F-4.68
sg26
F0.02
sg7
(lp2711
g28
asg29
S'ethyl benzoate'
p2712
sg12
I7165
sg13
F0.6
sg31
F-3.64
sg15
(lp2713
S'carboxylic acid ester'
p2714
aS'aromatic'
p2715
asg36
g37
sg38
g39
ssS'mobley_2518989'
p2716
(dp2717
g3
S'CCOP(=S)(OCC)S[C@@H](CCl)N1C(=O)c2ccccc2C1=O'
p2718
sg179
F-15.1
sg180
F0.06
sg7
(lp2719
S'Renamed mobley_2518989 from 2-(2-chloro-1-diethoxyphosphinothioylsulfanylethyl)isoindole-1,3-dione to 2-[(1S)-2-chloro-1-diethoxyphosphinothioylsulfanyl-ethyl]isoindoline-1,3-dione (the name from the 3D structure) since the former did not completely specify stereochemistry.\n'
p2720
asg182
S'dialifor'
p2721
sg12
I25146
sg184
F1.93
sg185
F-5.74
sg15
(lp2722
S'alkyl chloride'
p2723
aS'carboxylic acid imide, N-substituted'
p2724
aS'aromatic'
p2725
aS'heterocyclic'
p2726
asg188
g189
sg190
g191
ssS'mobley_3047364'
p2727
(dp2728
g3
S'CCNc1nc(nc(n1)SC)NC(C)C'
p2729
sg179
F-9.24
sg180
F0.04
sg7
(lp2730
g28
aS'Changed IUPAC name from ametryn to 2-N-ethyl-6-(methylsulfanyl)-4-N-(propan-2-yl)-1,3,5-triazine-2,4-diamine for better handling/standardization.'
p2731
asg182
S'2-N-ethyl-6-(methylsulfanyl)-4-N-(propan-2-yl)-1,3,5-triazine-2,4-diamine'
p2732
sg12
I13263
sg184
F0.45
sg185
F-7.65
sg15
(lp2733
S'thioether'
p2734
aS'secondary amine'
p2735
aS'secondary aliphatic/aromatic amine (alkylarylamine)'
p2736
aS'aromatic'
p2737
aS'heterocyclic'
p2738
asg188
g189
sg190
g191
ssS'mobley_5857'
p2739
(dp2740
g3
S'c1ccc2c(c1)cccn2'
p2741
sg25
F-4.87
sg26
F0.02
sg7
(lp2742
g28
asg29
S'quinoline'
p2743
sg12
I7047
sg13
F0.6
sg31
F-5.72
sg15
(lp2744
S'aromatic'
p2745
aS'heterocyclic'
p2746
asg36
g37
sg38
g39
ssS'mobley_197466'
p2747
(dp2748
g3
S'CC(=O)C1CC1'
p2749
sg25
F-3.74
sg26
F0.02
sg7
(lp2750
g28
asg29
S'1-cyclopropylethanone'
p2751
sg12
I13004
sg13
F0.6
sg31
F-4.61
sg15
(lp2752
S'ketone'
p2753
asg36
g37
sg38
g39
ssS'mobley_2068538'
p2754
(dp2755
g3
S'CCC'
p2756
sg5
F2.4
sg6
F0.1
sg7
(lp2757
g9
asg10
S'propane'
p2758
sg12
I6334
sg13
F0.2
sg14
F2.0
sg15
(lp2759
g17
asg18
g19
sg20
g21
ssS'mobley_967099'
p2760
(dp2761
g3
S'CC(C)[N+](=O)[O-]'
p2762
sg25
F-1.61
sg26
F0.02
sg7
(lp2763
g28
asg29
S'2-nitropropane'
p2764
sg12
I398
sg13
F0.6
sg31
F-3.13
sg15
(lp2765
S'nitro'
p2766
asg36
g37
sg38
g39
ssS'mobley_1792062'
p2767
(dp2768
g3
S'C(CBr)Br'
p2769
sg25
F0.19
sg26
F0.02
sg7
(lp2770
g28
asg29
S'1,2-dibromoethane'
p2771
sg12
I7839
sg13
F0.6
sg31
F-2.33
sg15
(lp2772
S'alkyl bromide'
p2773
asg36
g37
sg38
g39
ssS'mobley_7203421'
p2774
(dp2775
g3
S'CCCCCC(=O)N'
p2776
sg25
F-8.14
sg26
F0.03
sg7
(lp2777
g28
asg29
S'hexanamide'
p2778
sg12
I12332
sg13
F0.6
sg31
F-9.31
sg15
(lp2779
g17
asg36
g37
sg38
g39
ssS'mobley_7912193'
p2780
(dp2781
g3
S'CCCCOC(=O)c1ccc(cc1)O'
p2782
sg394
F-9.19
sg395
F0.06
sg7
(lp2783
g28
asg397
S'butyl paraben'
p2784
sg12
I7184
sg399
F0.27
sg400
F-8.72
sg15
(lp2785
S'phenol or hydroxyhetarene'
p2786
aS'carboxylic acid ester'
p2787
aS'aromatic'
p2788
asg406
g407
sg408
g409
ssS'mobley_7200804'
p2789
(dp2790
g3
S'c1ccc(c(c1)O)F'
p2791
sg25
F-3.24
sg26
F0.03
sg7
(lp2792
g28
asg29
S'2-fluorophenol'
p2793
sg12
I9707
sg13
F0.6
sg31
F-5.29
sg15
(lp2794
S'phenol or hydroxyhetarene'
p2795
aS'aryl fluoride'
p2796
aS'aromatic'
p2797
asg36
g37
sg38
g39
ssS'mobley_5094777'
p2798
(dp2799
g3
S'c1ccc2c(c1)CCC2'
p2800
sg25
F-1.7
sg26
F0.02
sg7
(lp2801
g28
asg29
S'indane'
p2802
sg12
I10326
sg13
F0.6
sg31
F-1.46
sg15
(lp2803
S'aromatic'
p2804
asg36
g37
sg38
g39
ssS'mobley_4561957'
p2805
(dp2806
g3
S'CC(C)C(C)C'
p2807
sg25
F2.69
sg26
F0.02
sg7
(lp2808
g28
asg29
S'2,3-dimethylbutane'
p2809
sg12
I6589
sg13
F0.6
sg31
F2.34
sg15
(lp2810
g17
asg36
g37
sg38
g39
ssS'mobley_5852491'
p2811
(dp2812
g3
S'CC1CCCC1'
p2813
sg25
F2.12
sg26
F0.02
sg7
(lp2814
g28
asg29
S'methylcyclopentane'
p2815
sg12
I7296
sg13
F0.6
sg31
F1.59
sg15
(lp2816
g17
asg36
g37
sg38
g39
ssS'mobley_1987439'
p2817
(dp2818
g3
S'Cc1cc(cc(c1)C)C'
p2819
sg25
F0.04
sg26
F0.02
sg7
(lp2820
g28
asg29
S'mesitylene'
p2821
sg12
I7947
sg13
F0.6
sg31
F-0.9
sg15
(lp2822
S'aromatic'
p2823
asg36
g37
sg38
g39
ssS'mobley_8492526'
p2824
(dp2825
g3
S'CCCCC=O'
p2826
sg25
F-2.96
sg26
F0.02
sg7
(lp2827
g28
asg29
S'pentanal'
p2828
sg12
I8063
sg13
F0.6
sg31
F-3.03
sg15
(lp2829
S'aldehyde'
p2830
asg36
g37
sg38
g39
ssS'mobley_4494568'
p2831
(dp2832
g3
S'Cc1ccc(cc1)Br'
p2833
sg25
F0.04
sg26
F0.02
sg7
(lp2834
g28
asg29
S'1-bromo-4-methyl-benzene'
p2835
sg12
I7805
sg13
F0.6
sg31
F-1.39
sg15
(lp2836
S'aryl bromide'
p2837
aS'aromatic'
p2838
asg36
g37
sg38
g39
ssS'mobley_7869158'
p2839
(dp2840
g3
S'CC[C@H](C)O[N+](=O)[O-]'
p2841
sg179
F-1.68
sg180
F0.02
sg7
(lp2842
g28
aS'Changed IUPAC name from 2-butyl nitrate to [(2S)-butan-2-yl] nitrate for better handling/standardization.'
p2843
asg182
S'[(2S)-butan-2-yl] nitrate'
p2844
sg12
I79123
sg184
F0.1
sg185
F-1.82
sg15
(lp2845
S'nitrate'
p2846
asg188
g189
sg190
g191
ssS'mobley_7893124'
p2847
(dp2848
g3
S'CC(C)(C)c1ccccc1'
p2849
sg25
F-0.42
sg26
F0.03
sg7
(lp2850
g28
asg29
S'tert-butylbenzene'
p2851
sg12
I7366
sg13
F0.6
sg31
F-0.44
sg15
(lp2852
S'aromatic'
p2853
asg36
g37
sg38
g39
ssS'mobley_5880265'
p2854
(dp2855
g3
S'CCCCOCCO'
p2856
sg25
F-4.07
sg26
F0.03
sg7
(lp2857
g28
asg29
S'2-butoxyethanol'
p2858
sg12
I8133
sg13
F0.6
sg31
F-6.25
sg15
(lp2859
S'primary alcohol'
p2860
aS'dialkyl ether'
p2861
asg36
g37
sg38
g39
ssS'mobley_4479135'
p2862
(dp2863
g3
S'C=C(c1ccccc1)c2ccccc2'
p2864
sg476
F-3.92
sg477
F0.023
sg7
(lp2865
g28
asg480
S'1,1-diphenylethene'
p2866
sg12
I10740
sg482
g483
(g487
S'\x9a\x99\x99\x99\x99\x99\xb9?'
p2867
tp2868
Rp2869
sg493
g483
(g487
S'=\n\xd7\xa3p=\x06\xc0'
p2870
tp2871
Rp2872
sg15
(lp2873
S'alkene'
p2874
aS'aromatic'
p2875
asg498
g499
sg500
g501
ssS'mobley_2693089'
p2876
(dp2877
g3
S'CC(C)Cc1cnccn1'
p2878
sg25
F-5.1
sg26
F0.03
sg7
(lp2879
g28
asg29
S'2-isobutylpyrazine'
p2880
sg12
I34591
sg13
F0.6
sg31
F-5.04
sg15
(lp2881
S'aromatic'
p2882
aS'heterocyclic'
p2883
asg36
g37
sg38
g39
ssS'mobley_8525830'
p2884
(dp2885
g3
S'CCCCCI'
p2886
sg25
F0.66
sg26
F0.02
sg7
(lp2887
g28
asg29
S'1-iodopentane'
p2888
sg12
I12335
sg13
F0.6
sg31
F-0.14
sg15
(lp2889
S'alkyl iodide'
p2890
asg36
g37
sg38
g39
ssS'mobley_6239320'
p2891
(dp2892
g3
S'c1(=O)[nH]c(=O)[nH]c(=O)[nH]1'
p2893
sg394
F-21.71
sg395
F0.07
sg7
(lp2894
g28
asg397
S'cyanuric acid'
p2895
sg12
I7956
sg399
F0.27
sg400
F-18.06
sg15
(lp2896
S'oxo(het)arene'
p2897
aS'aromatic'
p2898
aS'heterocyclic'
p2899
asg406
g407
sg408
g409
ssS'mobley_4506634'
p2900
(dp2901
g3
S'[C@@H](C(F)(F)F)(Cl)Br'
p2902
sg25
F0.7
sg26
F0.02
sg7
(lp2903
S'Renamed mobley_4506634 from 2-bromo-2-chloro-1,1,1-trifluoro-ethane to (2R)-2-bromo-2-chloro-1,1,1-trifluoro-ethane (the name from the 3D structure) since the former did not completely specify stereochemistry.\n'
p2904
asg29
S'2-bromo-2-chloro-1,1,1-trifluoro-ethane'
p2905
sg12
I445258
sg13
F0.6
sg31
F-0.11
sg15
(lp2906
S'alkyl chloride'
p2907
aS'alkyl bromide'
p2908
asg36
g37
sg38
g39
ssS'mobley_6430250'
p2909
(dp2910
g3
S'CCCc1ccccc1'
p2911
sg25
F0.01
sg26
F0.02
sg7
(lp2912
g28
asg29
S'propylbenzene'
p2913
sg12
I7668
sg13
F0.6
sg31
F-0.53
sg15
(lp2914
S'aromatic'
p2915
asg36
g37
sg38
g39
ssS'mobley_8685905'
p2916
(dp2917
g3
S'[C@@H](C(F)(F)F)(F)Br'
p2918
sg25
F0.46
sg26
F0.02
sg7
(lp2919
S'Renamed mobley_8685905 from 2-bromo-1,1,1,2-tetrafluoro-ethane to (2R)-2-bromo-1,1,1,2-tetrafluoro-ethane (the name from the 3D structure) since the former did not completely specify stereochemistry.\n'
p2920
asg29
S'2-bromo-1,1,1,2-tetrafluoro-ethane'
p2921
sg12
I31300
sg13
F0.6
sg31
F0.5
sg15
(lp2922
S'alkyl fluoride'
p2923
aS'alkyl bromide'
p2924
asg36
g37
sg38
g39
ssS'mobley_2451097'
p2925
(dp2926
g3
S'c1ccc(cc1)C#N'
p2927
sg25
F-2.56
sg26
F0.02
sg7
(lp2928
g28
asg29
S'benzonitrile'
p2929
sg12
I7505
sg13
F0.6
sg31
F-4.1
sg15
(lp2930
S'carbonitrile'
p2931
aS'aromatic'
p2932
asg36
S'10.1039/P29940001777'
p2933
sg38
g39
ssS'mobley_6102880'
p2934
(dp2935
g3
S'c1ccc(cc1)Oc2ccccc2'
p2936
sg476
F-2.79
sg477
F0.02
sg7
(lp2937
g28
asg480
S'diphenyl ether'
p2938
sg12
I7583
sg482
g483
(g487
S'\x14\xaeG\xe1z\x14\xe6?'
p2939
tp2940
Rp2941
sg493
g483
(g487
S'\xf6(\\\x8f\xc2\xf5\x06\xc0'
p2942
tp2943
Rp2944
sg15
(lp2945
S'diaryl ether'
p2946
aS'aromatic'
p2947
asg498
g499
sg500
g501
ssS'mobley_337666'
p2948
(dp2949
g3
S'c1c(c(=O)[nH]c(=O)[nH]1)F'
p2950
sg394
F-16.41
sg395
F0.06
sg7
(lp2951
g28
aS'Changed IUPAC name from 5-flurouracil to 5-fluorouracil for better handling/standardization.'
p2952
asg397
S'5-fluorouracil'
p2953
sg12
I3385
sg399
F0.88
sg400
F-16.92
sg15
(lp2954
S'aryl fluoride'
p2955
aS'oxo(het)arene'
p2956
aS'aromatic'
p2957
aS'heterocyclic'
p2958
asg406
g407
sg408
g409
ssS'mobley_1893937'
p2959
(dp2960
g3
S'CCCCCCCl'
p2961
sg25
F1.23
sg26
F0.03
sg7
(lp2962
g28
asg29
S'1-chlorohexane'
p2963
sg12
I10992
sg13
F0.6
sg31
F0.0
sg15
(lp2964
S'alkyl chloride'
p2965
asg36
g37
sg38
g39
ssS'mobley_1827204'
p2966
(dp2967
g3
S'CCCCCC=O'
p2968
sg25
F-2.96
sg26
F0.02
sg7
(lp2969
g28
asg29
S'hexanal'
p2970
sg12
I6184
sg13
F0.6
sg31
F-2.81
sg15
(lp2971
S'aldehyde'
p2972
asg36
g37
sg38
g39
ssS'mobley_2913224'
p2973
(dp2974
g3
S'CC(=O)Oc1ccccc1C(=O)O'
p2975
sg394
F-11.25
sg395
F0.07
sg7
(lp2976
g28
asg397
S'acetylsalicylic acid'
p2977
sg12
I2244
sg399
F0.18
sg400
F-9.94
sg15
(lp2978
S'carboxylic acid'
p2979
aS'carboxylic acid ester'
p2980
aS'aromatic'
p2981
asg406
g407
sg408
g409
ssS'mobley_5561855'
p2982
(dp2983
g3
S'c1cc(c(c(c1)Cl)c2c(cc(cc2Cl)Cl)Cl)Cl'
p2984
sg211
F-0.54
sg212
F0.04
sg7
(lp2985
g28
asg214
S'1,3,5-trichloro-2-(2,6-dichlorophenyl)benzene'
p2986
sg12
I91662
sg216
F0.1
sg217
F-1.96
sg15
(lp2987
S'aryl chloride'
p2988
aS'aromatic'
p2989
asg220
g221
sg222
g223
ssS'mobley_1592519'
p2990
(dp2991
g3
S'CCCCCC(=O)OCC'
p2992
sg25
F-2.8
sg26
F0.04
sg7
(lp2993
g28
asg29
S'ethyl hexanoate'
p2994
sg12
I31265
sg13
F0.6
sg31
F-2.23
sg15
(lp2995
S'carboxylic acid ester'
p2996
asg36
g37
sg38
g39
ssS'mobley_2517158'
p2997
(dp2998
g3
S'CCCCCCCBr'
p2999
sg25
F1.66
sg26
F0.03
sg7
(lp3000
g28
asg29
S'1-bromoheptane'
p3001
sg12
I12369
sg13
F0.6
sg31
F0.34
sg15
(lp3002
S'alkyl bromide'
p3003
asg36
g37
sg38
g39
ssS'mobley_6250025'
p3004
(dp3005
g3
S'CCCCCCI'
p3006
sg25
F0.66
sg26
F0.02
sg7
(lp3007
g28
asg29
S'1-iodohexane'
p3008
sg12
I12527
sg13
F0.6
sg31
F0.08
sg15
(lp3009
S'alkyl iodide'
p3010
asg36
g37
sg38
g39
ssS'mobley_8789864'
p3011
(dp3012
g3
S'COC(CC#N)(OC)OC'
p3013
sg25
F-5.74
sg26
F0.04
sg7
(lp3014
g28
asg29
S'3,3,3-trimethoxypropanenitrile'
p3015
sg12
I144381
sg13
F0.6
sg31
F-6.4
sg15
(lp3016
S'carbonitrile'
p3017
aS'orthocarboxylic acid derivative'
p3018
aS'orthoester'
p3019
asg36
g48
sg38
g39
ssS'mobley_3325209'
p3020
(dp3021
g3
S'COC(c1ccccc1)(OC)OC'
p3022
sg25
F-5.83
sg26
F0.04
sg7
(lp3023
g28
asg29
S'trimethoxymethylbenzene'
p3024
sg12
I69720
sg13
F0.6
sg31
F-4.04
sg15
(lp3025
S'orthocarboxylic acid derivative'
p3026
aS'orthoester'
p3027
aS'aromatic'
p3028
asg36
g48
sg38
g39
ssS'mobley_1875719'
p3029
(dp3030
g3
S'CCC(=O)CC'
p3031
sg5
F-2.7
sg6
F0.1
sg7
(lp3032
g9
asg10
S'pentan-3-one'
p3033
sg12
I7288
sg13
F0.2
sg14
F-3.41
sg15
(lp3034
S'ketone'
p3035
asg18
g19
sg20
g21
ssS'mobley_9112978'
p3036
(dp3037
g3
S'CC/C=C\\C'
p3038
sg25
F2.55
sg26
F0.02
sg7
(lp3039
S'Renamed mobley_9112978 from pent-2-ene to (Z)-pent-2-ene (the name from the 3D structure) since the former did not completely specify stereochemistry.\n'
p3040
asg29
S'pent-2-ene'
p3041
sg12
I21934815
sg13
F0.6
sg31
F1.31
sg15
(lp3042
S'alkene'
p3043
asg36
g37
sg38
g39
ssS'mobley_5692472'
p3044
(dp3045
g3
S'CNC'
p3046
sg25
F-3.11
sg26
F0.02
sg7
(lp3047
g28
asg29
S'N-methylmethanamine'
p3048
sg12
I674
sg13
F0.6
sg31
F-4.29
sg15
(lp3049
S'secondary amine'
p3050
aS'secondary aliphatic amine (dialkylamine)'
p3051
asg36
g37
sg38
g39
ssS'mobley_2972345'
p3052
(dp3053
g3
S'c1ccc2c(c1)Cc3ccccc3C2'
p3054
sg476
F-4.38
sg477
F0.022
sg7
(lp3055
g28
asg480
S'9,10-dihydroanthracene'
p3056
sg12
I11940
sg482
g483
(g487
S'\x9a\x99\x99\x99\x99\x99\xb9?'
p3057
tp3058
Rp3059
sg493
g483
(g487
S'=\n\xd7\xa3p=\x0e\xc0'
p3060
tp3061
Rp3062
sg15
(lp3063
S'aromatic'
p3064
asg498
g499
sg500
g501
ssS'mobley_3976574'
p3065
(dp3066
g3
S'c1cc2c(cc1Cl)Oc3c(c(c(c(c3Cl)Cl)Cl)Cl)O2'
p3067
sg211
F-2.17
sg212
F0.03
sg7
(lp3068
g28
asg214
S'1,2,3,4,7-pentachlorodibenzo-p-dioxin'
p3069
sg12
I38254
sg216
F1.0
sg217
F-4.15
sg15
(lp3070
S'diaryl ether'
p3071
aS'aryl chloride'
p3072
aS'aromatic'
p3073
aS'heterocyclic'
p3074
asg220
g221
sg222
g223
ssS'mobley_8966374'
p3075
(dp3076
g3
S'Cc1cnccn1'
p3077
sg25
F-6.1
sg26
F0.03
sg7
(lp3078
g28
asg29
S'2-methylpyrazine'
p3079
sg12
I7976
sg13
F0.6
sg31
F-5.51
sg15
(lp3080
S'aromatic'
p3081
aS'heterocyclic'
p3082
asg36
g37
sg38
g39
ssS'mobley_5732611'
p3083
(dp3084
g3
S'Cc1c[nH]cn1'
p3085
sg25
F-7.99
sg26
F0.03
sg7
(lp3086
g28
asg29
S'4-methyl-1H-imidazole'
p3087
sg12
I13195
sg13
F0.6
sg31
F-10.27
sg15
(lp3088
S'aromatic'
p3089
aS'heterocyclic'
p3090
asg36
S'10.1021/bi00507a030'
p3091
sg38
g39
ssS'mobley_7298388'
p3092
(dp3093
g3
S'Cc1cccc(c1)[N+](=O)[O-]'
p3094
sg25
F-3.16
sg26
F0.02
sg7
(lp3095
g28
asg29
S'1-methyl-3-nitro-benzene'
p3096
sg12
I7422
sg13
F0.6
sg31
F-3.45
sg15
(lp3097
S'nitro'
p3098
aS'aromatic'
p3099
asg36
g37
sg38
g39
ssS'mobley_3269819'
p3100
(dp3101
g3
S'c1c(cc(c(c1Cl)Cl)Cl)c2cc(c(c(c2Cl)Cl)Cl)Cl'
p3102
sg211
F-0.77
sg212
F0.04
sg7
(lp3103
g28
asg214
S'1,2,3,4-tetrachloro-5-(3,4,5-trichlorophenyl)benzene'
p3104
sg12
I38306
sg216
F0.1
sg217
F-3.17
sg15
(lp3105
S'aryl chloride'
p3106
aS'aromatic'
p3107
asg220
g221
sg222
g223
ssS'mobley_3802803'
p3108
(dp3109
g3
S'CCCCCCON([O-])[O-]'
p3110
sg476
F-1.63
sg477
F0.022
sg7
(lp3111
g28
asg480
S'hexyl nitrate'
p3112
sg12
I30209
sg482
g483
(g487
S'\x9a\x99\x99\x99\x99\x99\xb9?'
p3113
tp3114
Rp3115
sg493
g483
(g487
S'\x8f\xc2\xf5(\\\x8f\xfa\xbf'
p3116
tp3117
Rp3118
sg15
(lp3119
g17
asg498
g499
sg500
g501
ssS'mobley_7497999'
p3120
(dp3121
g3
S'CC(=O)c1ccccc1'
p3122
sg25
F-5.07
sg26
F0.03
sg7
(lp3123
g28
asg29
S'1-phenylethanone'
p3124
sg12
I7410
sg13
F0.6
sg31
F-4.58
sg15
(lp3125
S'ketone'
p3126
aS'aromatic'
p3127
asg36
g37
sg38
g39
ssS'mobley_8208692'
p3128
(dp3129
g3
S'c1c(c(c(c(c1Cl)Cl)Cl)Cl)c2c(cc(c(c2Cl)Cl)Cl)Cl'
p3130
sg211
F0.0
sg212
F0.05
sg7
(lp3131
g28
asg214
S'1,2,3,4-tetrachloro-5-(2,3,4,6-tetrachlorophenyl)benzene'
p3132
sg12
I39253
sg216
F0.25
sg217
F-4.61
sg15
(lp3133
S'aryl chloride'
p3134
aS'aromatic'
p3135
asg220
g221
sg222
g223
ssS'mobley_1199854'
p3136
(dp3137
g3
S'CCCI'
p3138
sg25
F0.0
sg26
F0.02
sg7
(lp3139
g28
asg29
S'1-iodopropane'
p3140
sg12
I33643
sg13
F0.6
sg31
F-0.53
sg15
(lp3141
S'alkyl iodide'
p3142
asg36
g37
sg38
g39
ssS'mobley_3867265'
p3143
(dp3144
g3
S'CC(=O)C'
p3145
sg25
F-3.36
sg26
F0.02
sg7
(lp3146
g28
asg29
S'acetone'
p3147
sg12
I180
sg13
F0.6
sg31
F-3.8
sg15
(lp3148
S'ketone'
p3149
asg36
g37
sg38
g39
ssS'mobley_5072416'
p3150
(dp3151
g3
S'COc1ccccc1N'
p3152
sg25
F-6.53
sg26
F0.03
sg7
(lp3153
g28
asg29
S'2-methoxyaniline'
p3154
sg12
I7000
sg13
F0.6
sg31
F-6.12
sg15
(lp3155
S'alkyl aryl ether'
p3156
aS'primary amine'
p3157
aS'primary aromatic amine'
p3158
aS'aromatic'
p3159
asg36
g37
sg38
g39
ssS'mobley_2489709'
p3160
(dp3161
g3
S'c1ccc(c(c1)Cl)Cl'
p3162
sg25
F-0.64
sg26
F0.02
sg7
(lp3163
g28
asg29
S'1,2-dichlorobenzene'
p3164
sg12
I7239
sg13
F0.6
sg31
F-1.36
sg15
(lp3165
S'aryl chloride'
p3166
aS'aromatic'
p3167
asg36
g37
sg38
g39
ssS'mobley_2481002'
p3168
(dp3169
g3
S'C([N+](=O)[O-])(Cl)(Cl)Cl'
p3170
sg179
F-0.26
sg180
F0.02
sg7
(lp3171
g28
aS'Changed IUPAC name from chloropicrin to trichloro(nitro)methane for better handling/standardization.'
p3172
asg182
S'trichloro(nitro)methane'
p3173
sg12
I6423
sg184
F0.1
sg185
F-1.45
sg15
(lp3174
S'halogen derivative'
p3175
asg188
g189
sg190
g191
ssS'mobley_1034539'
p3176
(dp3177
g3
S'c1cc(c(cc1c2cc(c(c(c2Cl)Cl)Cl)Cl)Cl)Cl'
p3178
sg211
F-1.0
sg212
F0.04
sg7
(lp3179
g28
asg214
S'1,2,3,4-tetrachloro-5-(3,4-dichlorophenyl)benzene'
p3180
sg12
I38019
sg216
F0.1
sg217
F-3.04
sg15
(lp3181
S'aryl chloride'
p3182
aS'aromatic'
p3183
asg220
g221
sg222
g223
ssS'mobley_9460824'
p3184
(dp3185
g3
S'CCOP(=S)(OCC)SCSCC'
p3186
sg179
F-5.2
sg180
F0.04
sg7
(lp3187
g28
aS'Changed IUPAC name from phorate to diethoxy-(ethylsulfanylmethylsulfanyl)-thioxo-$l^{5}-phosphane for better handling/standardization.'
p3188
asg182
S'diethoxy-(ethylsulfanylmethylsulfanyl)-thioxo-$l^{5}-phosphane'
p3189
sg12
I4790
sg184
F0.1
sg185
F-4.37
sg15
(lp3190
g17
asg188
g189
sg190
g191
ssS'mobley_8882696'
p3191
(dp3192
g3
S'C1CCOC1'
p3193
sg25
F-2.07
sg26
F0.02
sg7
(lp3194
g28
asg29
S'tetrahydrofuran'
p3195
sg12
I8028
sg13
F0.6
sg31
F-3.47
sg15
(lp3196
S'dialkyl ether'
p3197
aS'heterocyclic'
p3198
asg36
g37
sg38
g39
ssS'mobley_7708038'
p3199
(dp3200
g3
S'CCCBr'
p3201
sg25
F1.29
sg26
F0.02
sg7
(lp3202
g28
asg29
S'1-bromopropane'
p3203
sg12
I7840
sg13
F0.6
sg31
F-0.56
sg15
(lp3204
S'alkyl bromide'
p3205
asg36
g37
sg38
g39
ssS'mobley_8916409'
p3206
(dp3207
g3
S'CCOC(=O)C[C@H](C(=O)OCC)SP(=S)(OC)OC'
p3208
sg179
F-12.99
sg180
F0.05
sg7
(lp3209
g28
aS'Changed IUPAC name from malathion to diethyl (2R)-2-dimethoxyphosphinothioylsulfanylbutanedioate for better handling/standardization.'
p3210
asg182
S'diethyl (2R)-2-dimethoxyphosphinothioylsulfanylbutanedioate'
p3211
sg12
I12358970
sg184
F0.21
sg185
F-8.15
sg15
(lp3212
S'carboxylic acid ester'
p3213
asg188
g189
sg190
g191
ssS'mobley_1770205'
p3214
(dp3215
g3
S'COP(=S)(OC)SCn1c(=O)c2ccccc2nn1'
p3216
sg179
F-15.54
sg180
F0.04
sg7
(lp3217
g28
aS'Changed IUPAC name from azinphosmethyl to 3-(dimethoxyphosphinothioylsulfanylmethyl)-1,2,3-benzotriazin-4-one for better handling/standardization.'
p3218
asg182
S'3-(dimethoxyphosphinothioylsulfanylmethyl)-1,2,3-benzotriazin-4-one'
p3219
sg12
I2268
sg184
F1.37
sg185
F-10.03
sg15
(lp3220
S'oxo(het)arene'
p3221
aS'aromatic'
p3222
aS'heterocyclic'
p3223
asg188
g189
sg190
g191
ssS'mobley_3982371'
p3224
(dp3225
g3
S'CC(=O)OC'
p3226
sg25
F-3.73
sg26
F0.02
sg7
(lp3227
g28
asg29
S'methyl acetate'
p3228
sg12
I6584
sg13
F0.6
sg31
F-3.13
sg15
(lp3229
S'carboxylic acid ester'
p3230
asg36
g37
sg38
g39
ssS'mobley_2659552'
p3231
(dp3232
g3
S'Cc1ccc(cc1)C(=O)N(C)C'
p3233
sg1192
F-8.76
sg1193
F0.05
sg1194
(lp3234
g1196
ag28
ag166
asg1197
S'N,N-4-trimethylbenzamide'
p3235
sg12
I84179
sg13
F0.2
sg1199
F-9.76
sg15
(lp3236
S'cation'
p3237
aS'aromatic'
p3238
asg1202
g1203
sg1204
g1203
ssS'mobley_2422586'
p3239
(dp3240
g3
S'CCCOC'
p3241
sg25
F-0.41
sg26
F0.02
sg7
(lp3242
g28
asg29
S'1-methoxypropane'
p3243
sg12
I11182
sg13
F0.6
sg31
F-1.66
sg15
(lp3244
S'dialkyl ether'
p3245
asg36
g37
sg38
g39
ssS'mobley_2725215'
p3246
(dp3247
g3
S'CCCN(CCC)c1c(cc(cc1[N+](=O)[O-])S(=O)(=O)C)[N+](=O)[O-]'
p3248
sg179
F-11.56
sg180
F0.05
sg7
(lp3249
g28
asg182
S'nitralin'
p3250
sg12
I20848
sg184
F1.93
sg185
F-7.98
sg15
(lp3251
S'tertiary amine'
p3252
aS'tertiary aliphatic/aromatic amine (alkylarylamine)'
p3253
aS'nitro'
p3254
aS'sulfone'
p3255
aS'aromatic'
p3256
asg188
g189
sg190
g191
ssS'mobley_9571888'
p3257
(dp3258
g3
S'C1[C@@H]2[C@H](COS(=O)O1)[C@@]3(C(=C([C@]2(C3(Cl)Cl)Cl)Cl)Cl)Cl'
p3259
sg179
F-9.96
sg180
F0.04
sg7
(lp3260
g28
asg182
S'endosulfan alpha'
p3261
sg12
I12309460
sg184
F0.26
sg185
F-4.23
sg15
(lp3262
S'alkyl chloride'
p3263
aS'alkene'
p3264
aS'heterocyclic'
p3265
asg188
g189
sg190
g191
ssS'mobley_3777264'
p3266
(dp3267
g3
S'c1cc(cc(c1)[N+](=O)[O-])N'
p3268
sg25
F-8.24
sg26
F0.03
sg7
(lp3269
g28
asg29
S'3-nitroaniline'
p3270
sg12
I7423
sg13
F0.6
sg31
F-8.84
sg15
(lp3271
S'primary amine'
p3272
aS'primary aromatic amine'
p3273
aS'nitro'
p3274
aS'aromatic'
p3275
asg36
g37
sg38
g39
ssS'mobley_6006813'
p3276
(dp3277
g3
S'CCCC[N+](=O)[O-]'
p3278
sg25
F-1.51
sg26
F0.02
sg7
(lp3279
g28
asg29
S'1-nitrobutane'
p3280
sg12
I12302
sg13
F0.6
sg31
F-3.09
sg15
(lp3281
S'nitro'
p3282
asg36
g37
sg38
g39
ssS'mobley_1636752'
p3283
(dp3284
g3
S'CO'
p3285
sg25
F-3.48
sg26
F0.01
sg7
(lp3286
g28
asg29
S'methanol'
p3287
sg12
I887
sg13
F0.6
sg31
F-5.1
sg15
(lp3288
S'primary alcohol'
p3289
asg36
g37
sg38
g39
ssS'mobley_3525176'
p3290
(dp3291
g3
S'CCCCCc1ccccc1'
p3292
sg25
F0.05
sg26
F0.03
sg7
(lp3293
g28
asg29
S'pentylbenzene'
p3294
sg12
I10864
sg13
F0.6
sg31
F-0.23
sg15
(lp3295
S'aromatic'
p3296
asg36
g37
sg38
g39
ssS'mobley_1905088'
p3297
(dp3298
g3
S'c1ccc(cc1)CBr'
p3299
sg1192
F-1.11
sg1193
F0.1
sg1194
(lp3300
g1196
ag28
ag166
asg1197
S'benzyl bromide'
p3301
sg12
I7498
sg13
F0.2
sg1199
F-2.38
sg15
(lp3302
S'alkyl bromide'
p3303
aS'aromatic'
p3304
asg1202
g1203
sg1204
g1203
ssS'mobley_637522'
p3305
(dp3306
g3
S'c1ccc2cc3ccccc3cc2c1'
p3307
sg25
F-5.39
sg26
F0.03
sg7
(lp3308
g28
asg29
S'anthracene'
p3309
sg12
I8418
sg13
F0.6
sg31
F-3.95
sg15
(lp3310
S'aromatic'
p3311
asg36
g37
sg38
g39
ssS'mobley_3425174'
p3312
(dp3313
g3
S'C(F)Cl'
p3314
sg25
F-0.22
sg26
F0.01
sg7
(lp3315
g28
asg29
S'chloro-fluoro-methane'
p3316
sg12
I11643
sg13
F0.6
sg31
F-0.77
sg15
(lp3317
S'alkyl fluoride'
p3318
aS'alkyl chloride'
p3319
asg36
g37
sg38
g39
ssS'mobley_1615431'
p3320
(dp3321
g3
S'CC(C)OC(C)C'
p3322
sg25
F-0.11
sg26
F0.02
sg7
(lp3323
g28
asg29
S'2-isopropoxypropane'
p3324
sg12
I7914
sg13
F0.6
sg31
F-0.53
sg15
(lp3325
S'dialkyl ether'
p3326
asg36
g37
sg38
g39
ssS'mobley_9281946'
p3327
(dp3328
g3
S'CCOP(=S)(OCC)Oc1ccc(cc1)[N+](=O)[O-]'
p3329
sg179
F-9.41
sg180
F0.04
sg7
(lp3330
g28
aS'Changed IUPAC name from parathion to diethoxy-(4-nitrophenoxy)-thioxo-$l^{5}-phosphane for better handling/standardization.'
p3331
asg182
S'diethoxy-(4-nitrophenoxy)-thioxo-$l^{5}-phosphane'
p3332
sg12
I991
sg184
F0.1
sg185
F-6.74
sg15
(lp3333
S'nitro'
p3334
aS'aromatic'
p3335
asg188
g189
sg190
g191
ssS'mobley_1469079'
p3336
(dp3337
g3
S'c1ccc2c(c1)Oc3cc(c(cc3O2)Cl)Cl'
p3338
sg211
F-3.51
sg212
F0.02
sg7
(lp3339
g28
asg214
S'2,3-dichlorodibenzo-p-dioxin'
p3340
sg12
I34586
sg216
F1.0
sg217
F-3.56
sg15
(lp3341
S'diaryl ether'
p3342
aS'aryl chloride'
p3343
aS'aromatic'
p3344
aS'heterocyclic'
p3345
asg220
g221
sg222
g223
ssS'mobley_4603202'
p3346
(dp3347
g3
S'C(CCl)OCCCl'
p3348
sg1192
F-2.07
sg1193
F0.01
sg1194
(lp3349
g1196
ag28
aS'Changed IUPAC name from bis-2-chloroethyl ether to 1-chloro-2-(2-chloroethoxy)ethane for better handling/standardization.'
p3350
ag166
asg1197
S'1-chloro-2-(2-chloroethoxy)ethane'
p3351
sg12
I8115
sg13
F0.2
sg1199
F-4.23
sg15
(lp3352
S'dialkyl ether'
p3353
aS'alkyl chloride'
p3354
asg1202
g1203
sg1204
g1203
ssS'mobley_2341732'
p3355
(dp3356
g3
S'CCCCC(=O)OC'
p3357
sg25
F-3.51
sg26
F0.02
sg7
(lp3358
g28
asg29
S'methyl pentanoate'
p3359
sg12
I12206
sg13
F0.6
sg31
F-2.56
sg15
(lp3360
S'carboxylic acid ester'
p3361
asg36
g37
sg38
g39
ssS'mobley_6981465'
p3362
(dp3363
g3
S'CC(C)OC(=O)C'
p3364
sg25
F-2.92
sg26
F0.03
sg7
(lp3365
g28
asg29
S'isopropyl acetate'
p3366
sg12
I7915
sg13
F0.6
sg31
F-2.64
sg15
(lp3367
S'carboxylic acid ester'
p3368
asg36
g37
sg38
g39
ssS'mobley_1527293'
p3369
(dp3370
g3
S'C[C@@H](c1ccc(c(c1)F)c2ccccc2)C(=O)O'
p3371
sg394
F-8.7
sg395
F0.07
sg7
(lp3372
S'Renamed mobley_1527293 from flurbiprofen to (2S)-2-(3-fluoro-4-phenyl-phenyl)propanoic acid (the name from the 3D structure) since the former did not completely specify stereochemistry.\n'
p3373
asg397
S'flurbiprofen'
p3374
sg12
I3394
sg399
F0.16
sg400
F-8.42
sg15
(lp3375
S'aryl fluoride'
p3376
aS'carboxylic acid'
p3377
aS'aromatic'
p3378
asg406
g407
sg408
g409
ssS'mobley_2328633'
p3379
(dp3380
g3
S'CCCCCC1CCCC1'
p3381
sg25
F2.39
sg26
F0.03
sg7
(lp3382
g28
asg29
S'pentylcyclopentane'
p3383
sg12
I19540
sg13
F0.6
sg31
F2.55
sg15
(lp3384
g17
asg36
g37
sg38
g39
ssS'mobley_5393242'
p3385
(dp3386
g3
S'CCOP(=S)(OCC)Oc1cc(nc(n1)C(C)C)C'
p3387
sg179
F-9.97
sg180
F0.05
sg7
(lp3388
g28
asg182
S'diazinon'
p3389
sg12
I3017
sg184
F0.13
sg185
F-6.48
sg15
(lp3390
S'aromatic'
p3391
aS'heterocyclic'
p3392
asg188
g189
sg190
g191
ssS'mobley_9624458'
p3393
(dp3394
g3
S'C(CCl)CCl'
p3395
sg25
F-0.38
sg26
F0.02
sg7
(lp3396
g28
asg29
S'1,3-dichloropropane'
p3397
sg12
I8881
sg13
F0.6
sg31
F-1.89
sg15
(lp3398
S'alkyl chloride'
p3399
asg36
g37
sg38
g39
ssS'mobley_2316618'
p3400
(dp3401
g3
S'c1ccc2c(c1)C(=O)c3cccc(c3C2=O)NCCO'
p3402
sg476
F-13.33
sg477
F0.029
sg7
(lp3403
g28
asg480
S'1-(2-hydroxyethylamino)-9,10-anthraquinone'
p3404
sg12
I20528
sg482
g483
(g487
S'\x9a\x99\x99\x99\x99\x99\xf1?'
p3405
tp3406
Rp3407
sg493
g483
(g487
S'\xecQ\xb8\x1e\x85k,\xc0'
p3408
tp3409
Rp3410
sg15
(lp3411
S'ketone'
p3412
aS'primary alcohol'
p3413
aS'1,2-aminoalcohol'
p3414
aS'secondary amine'
p3415
aS'secondary aliphatic/aromatic amine (alkylarylamine)'
p3416
aS'aromatic'
p3417
asg498
g499
sg500
g501
ssS'mobley_349850'
p3418
(dp3419
g3
S'Cc1ccc(cc1)C(=O)C'
p3420
sg25
F-4.82
sg26
F0.03
sg7
(lp3421
g28
asg29
S'1-(p-tolyl)ethanone'
p3422
sg12
I8500
sg13
F0.6
sg31
F-4.7
sg15
(lp3423
S'ketone'
p3424
aS'aromatic'
p3425
asg36
g37
sg38
g39
ssS'mobley_186894'
p3426
(dp3427
g3
S'CCCS'
p3428
sg5
F-0.3
sg6
F0.1
sg7
(lp3429
g9
asg10
S'propanethiol'
p3430
sg12
I7848
sg13
F0.2
sg14
F-1.1
sg15
(lp3431
S'thiol (sulfanyl)'
p3432
aS'alkylthiol'
p3433
asg18
g19
sg20
g21
ssS'mobley_7463408'
p3434
(dp3435
g3
S'CCC(=O)Nc1ccc(c(c1)Cl)Cl'
p3436
sg179
F-9.65
sg180
F0.04
sg7
(lp3437
g28
aS'Changed IUPAC name from propanil to N-(3,4-dichlorophenyl)propanimidic acid for better handling/standardization.'
p3438
asg182
S'N-(3,4-dichlorophenyl)propanimidic acid'
p3439
sg12
I4933
sg184
F1.93
sg185
F-7.78
sg15
(lp3440
S'aryl chloride'
p3441
aS'aromatic'
p3442
asg188
g189
sg190
g191
ssS'mobley_4609460'
p3443
(dp3444
g3
S'CCOC(=O)c1ccc(cc1)O'
p3445
sg394
F-9.57
sg395
F0.06
sg7
(lp3446
g28
asg397
S'ethyl paraben'
p3447
sg12
I8434
sg399
F0.3
sg400
F-9.2
sg15
(lp3448
S'phenol or hydroxyhetarene'
p3449
aS'carboxylic acid ester'
p3450
aS'aromatic'
p3451
asg406
g407
sg408
g409
ssS'mobley_2049967'
p3452
(dp3453
g3
S'CCSC'
p3454
sg5
F-0.3
sg6
F0.1
sg7
(lp3455
g9
aS'Changed IUPAC name from ethylmethylsulfide to methylsulfanylethane for better handling/standardization.'
p3456
asg10
S'methylsulfanylethane'
p3457
sg12
I12230
sg13
F0.2
sg14
F-1.5
sg15
(lp3458
S'thioether'
p3459
asg18
g19
sg20
g21
ssS'mobley_4759887'
p3460
(dp3461
g3
S'CCCCCCCI'
p3462
sg25
F1.19
sg26
F0.03
sg7
(lp3463
g28
asg29
S'1-iodoheptane'
p3464
sg12
I20274
sg13
F0.6
sg31
F0.27
sg15
(lp3465
S'alkyl iodide'
p3466
asg36
g37
sg38
g39
ssS'mobley_2850833'
p3467
(dp3468
g3
S'c1ccc(c(c1)C=O)O'
p3469
sg476
F-4.89
sg477
F0.018
sg7
(lp3470
g28
asg480
S'2-hydroxybenzaldehyde'
p3471
sg12
I6998
sg482
g483
(g487
S'\x9a\x99\x99\x99\x99\x99\xb9?'
p3472
tp3473
Rp3474
sg493
g483
(g487
S'\xb8\x1e\x85\xebQ\xb8\x12\xc0'
p3475
tp3476
Rp3477
sg15
(lp3478
S'aldehyde'
p3479
aS'phenol or hydroxyhetarene'
p3480
aS'aromatic'
p3481
asg498
g499
sg500
g501
ssS'mobley_511661'
p3482
(dp3483
g3
S'C=CC=C'
p3484
sg5
F1.9
sg6
F0.1
sg7
(lp3485
g9
asg10
S'butadiene'
p3486
sg12
I7845
sg13
F0.2
sg14
F0.56
sg15
(lp3487
S'alkene'
p3488
asg18
S'10.1021/jo00891a006'
p3489
sg20
g21
ssS'mobley_4463913'
p3490
(dp3491
g3
S'CC(OC(=O)C)OC(=O)C'
p3492
sg25
F-7.9
sg26
F0.1
sg7
(lp3493
g28
asg29
S'1-acetoxyethyl acetate'
p3494
sg12
I222536
sg13
F0.6
sg31
F-4.97
sg15
(lp3495
S'carboxylic acid ester'
p3496
asg36
g1317
sg38
g39
ssS'mobley_6632459'
p3497
(dp3498
g3
S'CCC=O'
p3499
sg25
F-3.08
sg26
F0.02
sg7
(lp3500
g28
asg29
S'propanal'
p3501
sg12
I527
sg13
F0.6
sg31
F-3.43
sg15
(lp3502
S'aldehyde'
p3503
asg36
g37
sg38
g39
ssS'mobley_2183616'
p3504
(dp3505
g3
S'CC[C@H](C)c1ccccc1'
p3506
sg25
F0.04
sg26
F0.03
sg7
(lp3507
S'Renamed mobley_2183616 from sec-butylbenzene to [(1S)-1-methylpropyl]benzene (the name from the 3D structure) since the former did not completely specify stereochemistry.\n'
p3508
asg29
S'sec-butylbenzene'
p3509
sg12
I8680
sg13
F0.6
sg31
F-0.45
sg15
(lp3510
S'aromatic'
p3511
asg36
g37
sg38
g39
ssS'mobley_6416775'
p3512
(dp3513
g3
S'CCCC1CCCC1'
p3514
sg25
F2.15
sg26
F0.02
sg7
(lp3515
g28
asg29
S'propylcyclopentane'
p3516
sg12
I16270
sg13
F0.6
sg31
F2.13
sg15
(lp3517
g17
asg36
g37
sg38
g39
ssS'mobley_902954'
p3518
(dp3519
g3
S'CCCCO[N+](=O)[O-]'
p3520
sg179
F-1.83
sg180
F0.02
sg7
(lp3521
g28
asg182
S'butyl nitrate'
p3522
sg12
I13567
sg184
F0.1
sg185
F-2.09
sg15
(lp3523
S'nitrate'
p3524
asg188
g189
sg190
g191
ssS'mobley_2523689'
p3525
(dp3526
g3
S'c1ccc(cc1)n2c(=O)c(c(cn2)N)Cl'
p3527
sg179
F-16.62
sg180
F0.04
sg7
(lp3528
g28
aS'Changed IUPAC name from pyrazon to 5-Amino-4-chloro-2-phenylpyridazin-3(2H)-one for better handling/standardization.'
p3529
asg182
S'5-Amino-4-chloro-2-phenylpyridazin-3(2H)-one'
p3530
sg12
I15546
sg184
F1.93
sg185
F-16.43
sg15
(lp3531
S'primary amine'
p3532
aS'primary aromatic amine'
p3533
aS'aryl chloride'
p3534
aS'oxo(het)arene'
p3535
aS'aromatic'
p3536
aS'heterocyclic'
p3537
asg188
g189
sg190
g191
ssS'mobley_3969312'
p3538
(dp3539
g3
S'c1ccc(cc1)C=O'
p3540
sg25
F-4.99
sg26
F0.02
sg7
(lp3541
g28
asg29
S'benzaldehyde'
p3542
sg12
I240
sg13
F0.6
sg31
F-4.02
sg15
(lp3543
S'aldehyde'
p3544
aS'aromatic'
p3545
asg36
g37
sg38
g39
ssS'mobley_6248915'
p3546
(dp3547
g3
S'CCCCCCCCN'
p3548
sg25
F-2.38
sg26
F0.03
sg7
(lp3549
g28
asg29
S'octan-1-amine'
p3550
sg12
I8143
sg13
F0.6
sg31
F-3.65
sg15
(lp3551
S'primary amine'
p3552
aS'primary aliphatic amine (alkylamine)'
p3553
asg36
g37
sg38
g39
ssS'mobley_1881249'
p3554
(dp3555
g3
S'CCCC(=O)C'
p3556
sg25
F-3.29
sg26
F0.02
sg7
(lp3557
g28
asg29
S'pentan-2-one'
p3558
sg12
I7895
sg13
F0.6
sg31
F-3.52
sg15
(lp3559
S'ketone'
p3560
asg36
g37
sg38
g39
ssS'mobley_8449031'
p3561
(dp3562
g3
S'CCN(CC)CC'
p3563
sg25
F-1.83
sg26
F0.03
sg7
(lp3564
g28
asg29
S'N,N-diethylethanamine'
p3565
sg12
I8471
sg13
F0.6
sg31
F-3.22
sg15
(lp3566
S'tertiary amine'
p3567
aS'tertiary aliphatic amine (trialkylamine)'
p3568
asg36
g37
sg38
g39
ssS'mobley_5467162'
p3569
(dp3570
g3
S'CC(C)(C)c1ccc(cc1)O'
p3571
sg25
F-5.54
sg26
F0.04
sg7
(lp3572
g28
asg29
S'4-tert-butylphenol'
p3573
sg12
I7393
sg13
F0.6
sg31
F-5.91
sg15
(lp3574
S'phenol or hydroxyhetarene'
p3575
aS'aromatic'
p3576
asg36
g37
sg38
g39
ssS'mobley_6522117'
p3577
(dp3578
g3
S'CCOP(=O)(OCC)O/C(=C/Cl)/c1ccc(cc1Cl)Cl'
p3579
sg179
F-9.45
sg180
F0.05
sg7
(lp3580
S'Renamed mobley_6522117 from 2-chloro-1-(2,4-dichlorophenyl)ethenyl diethyl phosphate to [(E)-2-chloro-1-(2,4-dichlorophenyl)vinyl] diethyl phosphate (the name from the 3D structure) since the former did not completely specify stereochemistry.\n'
p3581
asg182
S'2-chloro-1-(2,4-dichlorophenyl)ethenyl diethyl phosphate'
p3582
sg12
I10107
sg184
F1.37
sg185
F-7.07
sg15
(lp3583
S'aryl chloride'
p3584
aS'alkene'
p3585
aS'aromatic'
p3586
asg188
g189
sg190
g191
ssS'mobley_7977115'
p3587
(dp3588
g3
S'CCC[C@H](CC)O'
p3589
sg25
F-2.63
sg26
F0.02
sg7
(lp3590
S'Renamed mobley_7977115 from hexan-3-ol to (3S)-hexan-3-ol (the name from the 3D structure) since the former did not completely specify stereochemistry.\n'
p3591
asg29
S'hexan-3-ol'
p3592
sg12
I12178
sg13
F0.6
sg31
F-4.06
sg15
(lp3593
S'secondary alcohol'
p3594
asg36
g37
sg38
g39
ssS'mobley_8809274'
p3595
(dp3596
g3
S'c1ccc(cc1)C(F)(F)F'
p3597
sg25
F-0.55
sg26
F0.02
sg7
(lp3598
g28
asg29
S'trifluoromethylbenzene'
p3599
sg12
I7368
sg13
F0.6
sg31
F-0.25
sg15
(lp3600
S'halogen derivative'
p3601
aS'aromatic'
p3602
asg36
g37
sg38
g39
ssS'mobley_5063386'
p3603
(dp3604
g3
S'c1ccc(c(c1)[N+](=O)[O-])O'
p3605
sg25
F-5.34
sg26
F0.03
sg7
(lp3606
g28
asg29
S'2-nitrophenol'
p3607
sg12
I6947
sg13
F0.6
sg31
F-4.58
sg15
(lp3608
S'phenol or hydroxyhetarene'
p3609
aS'nitro'
p3610
aS'aromatic'
p3611
asg36
g37
sg38
g39
ssS'mobley_2958326'
p3612
(dp3613
g3
S'CCCNCCC'
p3614
sg25
F-2.26
sg26
F0.02
sg7
(lp3615
g28
asg29
S'N-propylpropan-1-amine'
p3616
sg12
I8902
sg13
F0.6
sg31
F-3.65
sg15
(lp3617
S'secondary amine'
p3618
aS'secondary aliphatic amine (dialkylamine)'
p3619
asg36
g37
sg38
g39
ssS'mobley_8052240'
p3620
(dp3621
g3
S'c1ccc2c(c1)C(=O)c3cccc(c3C2=O)N'
p3622
sg476
F-11.59
sg477
F0.022
sg7
(lp3623
g28
asg480
S'1-amino-9,10-anthracenedione'
p3624
sg12
I6710
sg482
g483
(g487
S'\xaeG\xe1z\x14\xae\xe7?'
p3625
tp3626
Rp3627
sg493
g483
(g487
S'\xe1z\x14\xaeG\xe1"\xc0'
p3628
tp3629
Rp3630
sg15
(lp3631
S'ketone'
p3632
aS'primary amine'
p3633
aS'primary aromatic amine'
p3634
aS'aromatic'
p3635
asg498
g499
sg500
g501
ssS'mobley_1760914'
p3636
(dp3637
g3
S'Cc1ccccc1Cl'
p3638
sg25
F-0.51
sg26
F0.02
sg7
(lp3639
g28
asg29
S'1-chloro-2-methyl-benzene'
p3640
sg12
I7238
sg13
F0.6
sg31
F-1.14
sg15
(lp3641
S'aryl chloride'
p3642
aS'aromatic'
p3643
asg36
g37
sg38
g39
ssS'mobley_2402487'
p3644
(dp3645
g3
S'CCOC(=O)CC(=O)OCC'
p3646
sg25
F-6.45
sg26
F0.04
sg7
(lp3647
g28
asg29
S'diethyl propanedioate'
p3648
sg12
I7761
sg13
F0.6
sg31
F-6.0
sg15
(lp3649
S'carboxylic acid ester'
p3650
asg36
g1317
sg38
g39
ssS'mobley_4059279'
p3651
(dp3652
g3
S'CN1CCN(CC1)C'
p3653
sg25
F-7.4
sg26
F0.03
sg7
(lp3654
g28
asg29
S'1,4-dimethylpiperazine'
p3655
sg12
I7818
sg13
F0.6
sg31
F-7.58
sg15
(lp3656
S'tertiary amine'
p3657
aS'tertiary aliphatic amine (trialkylamine)'
p3658
aS'heterocyclic'
p3659
asg36
g1317
sg38
g39
ssS'mobley_9733743'
p3660
(dp3661
g3
S'CCCCN'
p3662
sg25
F-2.82
sg26
F0.02
sg7
(lp3663
g28
asg29
S'butan-1-amine'
p3664
sg12
I8007
sg13
F0.6
sg31
F-4.24
sg15
(lp3665
S'primary amine'
p3666
aS'primary aliphatic amine (alkylamine)'
p3667
asg36
g37
sg38
g39
ssS'mobley_252413'
p3668
(dp3669
g3
S'CCCC(C)(C)C'
p3670
sg25
F2.9
sg26
F0.02
sg7
(lp3671
g28
asg29
S'2,2-dimethylpentane'
p3672
sg12
I11542
sg13
F0.6
sg31
F2.88
sg15
(lp3673
g17
asg36
g37
sg38
g39
ssS'mobley_1144156'
p3674
(dp3675
g3
S'CCOCC'
p3676
sg25
F-0.7
sg26
F0.02
sg7
(lp3677
g28
asg29
S'ethoxyethane'
p3678
sg12
I3283
sg13
F0.6
sg31
F-1.59
sg15
(lp3679
S'dialkyl ether'
p3680
asg36
g37
sg38
g39
ssS'mobley_2972906'
p3681
(dp3682
g3
S'c1ccsc1'
p3683
sg5
F-0.6
sg6
F0.1
sg7
(lp3684
g9
asg10
S'thiophene'
p3685
sg12
I8030
sg13
F0.2
sg14
F-1.4
sg15
(lp3686
S'aromatic'
p3687
aS'heterocyclic'
p3688
asg18
g19
sg20
g21
ssS'mobley_3266352'
p3689
(dp3690
g3
S'CN(CC(F)(F)F)c1ccccc1'
p3691
sg25
F-3.69
sg26
F0.03
sg7
(lp3692
g28
asg29
S'N-methyl-N-(2,2,2-trifluoroethyl)aniline'
p3693
sg12
I13238893
sg13
F0.6
sg31
F-1.92
sg15
(lp3694
S'tertiary amine'
p3695
aS'tertiary aliphatic/aromatic amine (alkylarylamine)'
p3696
aS'halogen derivative'
p3697
aS'aromatic'
p3698
asg36
S'10.1139/v93-262'
p3699
sg38
g39
ssS'mobley_1231151'
p3700
(dp3701
g3
S'CC(C)Cl'
p3702
sg25
F0.82
sg26
F0.02
sg7
(lp3703
g28
asg29
S'2-chloropropane'
p3704
sg12
I6361
sg13
F0.6
sg31
F-0.25
sg15
(lp3705
S'alkyl chloride'
p3706
asg36
g37
sg38
g39
ssS'mobley_4035953'
p3707
(dp3708
g3
S'Cc1ccccc1O'
p3709
sg5
F-5.0
sg6
F0.1
sg7
(lp3710
g9
asg10
S'o-cresol'
p3711
sg12
I335
sg13
F0.2
sg14
F-5.9
sg15
(lp3712
S'phenol or hydroxyhetarene'
p3713
aS'aromatic'
p3714
asg18
g19
sg20
g21
ssS'mobley_1650157'
p3715
(dp3716
g3
S'CC(C)(C)O'
p3717
sg25
F-3.09
sg26
F0.02
sg7
(lp3718
g28
asg29
S'2-methylpropan-2-ol'
p3719
sg12
I6386
sg13
F0.6
sg31
F-4.47
sg15
(lp3720
S'tertiary alcohol'
p3721
asg36
g37
sg38
g39
ssS'mobley_299266'
p3722
(dp3723
g3
S'CC(=C)C'
p3724
sg25
F2.34
sg26
F0.02
sg7
(lp3725
g28
asg29
S'2-methylprop-1-ene'
p3726
sg12
I8255
sg13
F0.6
sg31
F1.16
sg15
(lp3727
S'alkene'
p3728
asg36
g37
sg38
g39
ssS'mobley_7774695'
p3729
(dp3730
g3
S'CNc1ccccc1'
p3731
sg25
F-5.74
sg26
F0.03
sg7
(lp3732
g28
asg29
S'N-methylaniline'
p3733
sg12
I7515
sg13
F0.6
sg31
F-4.69
sg15
(lp3734
S'secondary amine'
p3735
aS'secondary aliphatic/aromatic amine (alkylarylamine)'
p3736
aS'aromatic'
p3737
asg36
g37
sg38
g39
ssS'mobley_7066554'
p3738
(dp3739
g3
S'c1cc(ccc1O)Cl'
p3740
sg25
F-5.36
sg26
F0.02
sg7
(lp3741
g28
asg29
S'4-chlorophenol'
p3742
sg12
I4684
sg13
F0.6
sg31
F-7.03
sg15
(lp3743
S'phenol or hydroxyhetarene'
p3744
aS'aryl chloride'
p3745
aS'aromatic'
p3746
asg36
g37
sg38
g39
ssS'mobley_7326982'
p3747
(dp3748
g3
S'CC(C)O'
p3749
sg25
F-3.28
sg26
F0.02
sg7
(lp3750
g28
asg29
S'propan-2-ol'
p3751
sg12
I3776
sg13
F0.6
sg31
F-4.74
sg15
(lp3752
S'secondary alcohol'
p3753
asg36
g37
sg38
g39
ssS'mobley_7009711'
p3754
(dp3755
g3
S'Cc1cc(cc(c1)O)C'
p3756
sg25
F-5.12
sg26
F0.03
sg7
(lp3757
g28
asg29
S'3,5-dimethylphenol'
p3758
sg12
I7948
sg13
F0.6
sg31
F-6.27
sg15
(lp3759
S'phenol or hydroxyhetarene'
p3760
aS'aromatic'
p3761
asg36
g37
sg38
g39
ssS'mobley_9705941'
p3762
(dp3763
g3
S'Cc1cccs1'
p3764
sg25
F-0.22
sg26
F0.02
sg7
(lp3765
g28
asg29
S'2-methylthiophene'
p3766
sg12
I11126
sg13
F0.6
sg31
F-1.38
sg15
(lp3767
S'aromatic'
p3768
aS'heterocyclic'
p3769
asg36
g37
sg38
g39
ssS'mobley_4149784'
p3770
(dp3771
g3
S'c1cc2c(cc1Cl)Oc3ccc(cc3O2)Cl'
p3772
sg211
F-3.39
sg212
F0.02
sg7
(lp3773
g28
asg214
S'2,7-dichlorodibenzo-p-dioxin'
p3774
sg12
I36613
sg216
F0.12
sg217
F-3.67
sg15
(lp3775
S'diaryl ether'
p3776
aS'aryl chloride'
p3777
aS'aromatic'
p3778
aS'heterocyclic'
p3779
asg220
g221
sg222
g223
ssS'mobley_2213823'
p3780
(dp3781
g3
S'CCC(C)CC'
p3782
sg25
F2.72
sg26
F0.02
sg7
(lp3783
g28
asg29
S'3-methylpentane'
p3784
sg12
I7282
sg13
F0.6
sg31
F2.51
sg15
(lp3785
g17
asg36
g37
sg38
g39
ssS'mobley_7754849'
p3786
(dp3787
g3
S'CCOP(=S)(OCC)SCSP(=S)(OCC)OCC'
p3788
sg179
F-9.71
sg180
F0.05
sg7
(lp3789
g28
asg182
S'ethion'
p3790
sg12
I3286
sg184
F1.37
sg185
F-6.1
sg15
(lp3791
g17
asg188
g189
sg190
g191
ssS'mobley_8885088'
p3792
(dp3793
g3
S'C1CC=CC1'
p3794
sg25
F1.38
sg26
F0.02
sg7
(lp3795
g28
asg29
S'cyclopentene'
p3796
sg12
I8882
sg13
F0.6
sg31
F0.56
sg15
(lp3797
S'alkene'
p3798
asg36
g37
sg38
g39
ssS'mobley_3359593'
p3799
(dp3800
g3
S'CCCc1ccc(c(c1)OC)O'
p3801
sg476
F-4.1
sg477
F0.024
sg7
(lp3802
g28
asg480
S'4-propylguaiacol'
p3803
sg12
I17739
sg482
F0.18
sg493
F-5.26
sg15
(lp3804
S'phenol or hydroxyhetarene'
p3805
aS'alkyl aryl ether'
p3806
aS'aromatic'
p3807
asg498
g499
sg500
g501
ssS'mobley_7417968'
p3808
(dp3809
g3
S'CCOCCOC(=O)C'
p3810
sg476
F-6.04
sg477
F0.021
sg7
(lp3811
g28
asg480
S'2-ethoxyethyl acetate'
p3812
sg12
I8095
sg482
g483
(g487
S'\x9a\x99\x99\x99\x99\x99\xb9?'
p3813
tp3814
Rp3815
sg493
g483
(g487
S'=\n\xd7\xa3p=\x15\xc0'
p3816
tp3817
Rp3818
sg15
(lp3819
S'dialkyl ether'
p3820
aS'carboxylic acid ester'
p3821
asg498
g499
sg500
g501
ssS'mobley_9653690'
p3822
(dp3823
g3
S'CC1=CC[C@H](C[C@@H]1O)C(=C)C'
p3824
sg476
F-3.38
sg477
F0.021
sg7
(lp3825
g28
asg480
S'(1S,5R)-2-methyl-5-(1-methylethenyl)-2-cyclohexen-1-ol'
p3826
sg12
I94221
sg482
F0.43
sg493
F-4.44
sg15
(lp3827
S'secondary alcohol'
p3828
aS'alkene'
p3829
asg498
g499
sg500
g501
ssS'mobley_4699732'
p3830
(dp3831
g3
S'C[C@@H](CCl)Cl'
p3832
sg25
F-0.2
sg26
F0.02
sg7
(lp3833
S'Renamed mobley_4699732 from 1,2-dichloropropane to (2S)-1,2-dichloropropane (the name from the 3D structure) since the former did not completely specify stereochemistry.\n'
p3834
asg29
S'1,2-dichloropropane'
p3835
sg12
I6564
sg13
F0.6
sg31
F-1.27
sg15
(lp3836
S'alkyl chloride'
p3837
asg36
g37
sg38
g39
ssS'mobley_4305650'
p3838
(dp3839
g3
S'CCC#N'
p3840
sg25
F-1.27
sg26
F0.02
sg7
(lp3841
g28
asg29
S'propanenitrile'
p3842
sg12
I7854
sg13
F0.6
sg31
F-3.84
sg15
(lp3843
S'carbonitrile'
p3844
asg36
g37
sg38
g39
ssS'mobley_628951'
p3845
(dp3846
g3
S'c1cc(c(c(c1)Cl)c2c(cccc2Cl)Cl)Cl'
p3847
sg211
F-1.22
sg212
F0.04
sg7
(lp3848
g28
asg214
S'1,3-dichloro-2-(2,6-dichlorophenyl)benzene'
p3849
sg12
I27588
sg216
F0.12
sg217
F-2.28
sg15
(lp3850
S'aryl chloride'
p3851
aS'aromatic'
p3852
asg220
g221
sg222
g223
ssS'mobley_4883284'
p3853
(dp3854
g3
S'c1ccc(cc1)N'
p3855
sg25
F-5.92
sg26
F0.02
sg7
(lp3856
g28
asg29
S'aniline'
p3857
sg12
I6115
sg13
F0.6
sg31
F-5.49
sg15
(lp3858
S'primary amine'
p3859
aS'primary aromatic amine'
p3860
aS'aromatic'
p3861
asg36
g37
sg38
g39
ssS'mobley_3210206'
p3862
(dp3863
g3
S'C[C@@H](CO[N+](=O)[O-])O[N+](=O)[O-]'
p3864
sg179
F-5.62
sg180
F0.03
sg7
(lp3865
g28
asg182
S'1,2-dinitroxypropane'
p3866
sg12
I21075956
sg184
F0.1
sg185
F-4.95
sg15
(lp3867
S'nitrate'
p3868
asg188
g189
sg190
g191
ssS'mobley_2802855'
p3869
(dp3870
g3
S'CCCCBr'
p3871
sg25
F1.68
sg26
F0.02
sg7
(lp3872
g28
asg29
S'1-bromobutane'
p3873
sg12
I8002
sg13
F0.6
sg31
F-0.4
sg15
(lp3874
S'alkyl bromide'
p3875
asg36
g37
sg38
g39
ssS'mobley_1803862'
p3876
(dp3877
g3
S'CCC(C)C'
p3878
sg25
F2.52
sg26
F0.02
sg7
(lp3879
g28
asg29
S'isopentane'
p3880
sg12
I6556
sg13
F0.6
sg31
F2.38
sg15
(lp3881
g17
asg36
g37
sg38
g39
ssS'mobley_1858644'
p3882
(dp3883
g3
S'c1ccc(cc1)CCO'
p3884
sg25
F-5.33
sg26
F0.03
sg7
(lp3885
g28
asg29
S'2-phenylethanol'
p3886
sg12
I6054
sg13
F0.6
sg31
F-6.79
sg15
(lp3887
S'primary alcohol'
p3888
aS'aromatic'
p3889
asg36
g37
sg38
g39
ssS'mobley_8467917'
p3890
(dp3891
g3
S'CCCC/C=C/C'
p3892
sg25
F2.83
sg26
F0.02
sg7
(lp3893
S'Renamed mobley_8467917 from hept-2-ene to (E)-hept-2-ene (the name from the 3D structure) since the former did not completely specify stereochemistry.\n'
p3894
asg29
S'hept-2-ene'
p3895
sg12
I11611
sg13
F0.6
sg31
F1.68
sg15
(lp3896
S'alkene'
p3897
asg36
g37
sg38
g39
ssS'mobley_7017274'
p3898
(dp3899
g3
S'c1ccc2c(c1)ccc3c2cccc3'
p3900
sg25
F-5.15
sg26
F0.03
sg7
(lp3901
g28
asg29
S'phenanthrene'
p3902
sg12
I995
sg13
F0.6
sg31
F-3.88
sg15
(lp3903
S'aromatic'
p3904
asg36
g37
sg38
g39
ssS'mobley_8746821'
p3905
(dp3906
g3
S'Cc1cccnc1C'
p3907
sg25
F-3.27
sg26
F0.02
sg7
(lp3908
g28
asg29
S'2,3-dimethylpyridine'
p3909
sg12
I11420
sg13
F0.6
sg31
F-4.82
sg15
(lp3910
S'aromatic'
p3911
aS'heterocyclic'
p3912
asg36
g37
sg38
g39
ssS'mobley_4177472'
p3913
(dp3914
g3
S'CC(C)C(C)C(C)C'
p3915
sg25
F2.86
sg26
F0.03
sg7
(lp3916
g28
asg29
S'2,3,4-trimethylpentane'
p3917
sg12
I11269
sg13
F0.6
sg31
F2.56
sg15
(lp3918
g17
asg36
g37
sg38
g39
ssS'mobley_8522124'
p3919
(dp3920
g3
S'CCCCCCC#C'
p3921
sg25
F1.12
sg26
F0.03
sg7
(lp3922
g28
asg29
S'oct-1-yne'
p3923
sg12
I12370
sg13
F0.6
sg31
F0.71
sg15
(lp3924
S'alkyne'
p3925
asg36
g37
sg38
g39
ssS'mobley_1896013'
p3926
(dp3927
g3
S'C1[C@H]([C@@H]([C@H]([C@H](O1)O)O)O)O'
p3928
sg394
F-13.7
sg395
F0.1
sg7
(lp3929
g28
aS'Changed IUPAC name from d-xylose to (2S,3R,4S,5R)-oxane-2,3,4,5-tetrol for better handling/standardization.'
p3930
asg397
S'(2S,3R,4S,5R)-oxane-2,3,4,5-tetrol'
p3931
sg12
I6027
sg399
F0.27
sg400
F-20.52
sg15
(lp3932
S'hemiacetal'
p3933
aS'secondary alcohol'
p3934
aS'1,2-diol'
p3935
aS'heterocyclic'
p3936
asg406
g407
sg408
g409
ssS'mobley_2245668'
p3937
(dp3938
g3
S'CC(C)CO'
p3939
sg25
F-2.96
sg26
F0.02
sg7
(lp3940
g28
asg29
S'2-methylpropan-1-ol'
p3941
sg12
I6560
sg13
F0.6
sg31
F-4.5
sg15
(lp3942
S'primary alcohol'
p3943
asg36
g37
sg38
g39
ssS'mobley_8723116'
p3944
(dp3945
g3
S'c1cc(ccc1N)Cl'
p3946
sg25
F-5.28
sg26
F0.02
sg7
(lp3947
g28
asg29
S'4-chloroaniline'
p3948
sg12
I7812
sg13
F0.6
sg31
F-5.9
sg15
(lp3949
S'primary amine'
p3950
aS'primary aromatic amine'
p3951
aS'aryl chloride'
p3952
aS'aromatic'
p3953
asg36
g37
sg38
g39
ssS'mobley_129464'
p3954
(dp3955
g3
S'CCCCOCCCC'
p3956
sg25
F0.59
sg26
F0.03
sg7
(lp3957
g28
asg29
S'1-butoxybutane'
p3958
sg12
I8909
sg13
F0.6
sg31
F-0.83
sg15
(lp3959
S'dialkyl ether'
p3960
asg36
g37
sg38
g39
ssS'mobley_9434451'
p3961
(dp3962
g3
S'CC(C)Br'
p3963
sg25
F0.97
sg26
F0.02
sg7
(lp3964
g28
asg29
S'2-bromopropane'
p3965
sg12
I6358
sg13
F0.6
sg31
F-0.48
sg15
(lp3966
S'alkyl bromide'
p3967
asg36
g37
sg38
g39
ssS'mobley_7261305'
p3968
(dp3969
g3
S'NN'
p3970
sg25
F-7.1
sg26
F0.02
sg7
(lp3971
g28
asg29
S'hydrazine'
p3972
sg12
I9321
sg13
F0.6
sg31
F-9.3
sg15
(lp3973
S'hydrazine derivative'
p3974
asg36
g37
sg38
g39
ssS'mobley_8191186'
p3975
(dp3976
g3
S'C(C(F)(F)F)Cl'
p3977
sg25
F0.16
sg26
F0.02
sg7
(lp3978
g28
asg29
S'2-chloro-1,1,1-trifluoro-ethane'
p3979
sg12
I6408
sg13
F0.6
sg31
F0.06
sg15
(lp3980
S'alkyl chloride'
p3981
asg36
g37
sg38
g39
ssS'mobley_4434915'
p3982
(dp3983
g3
S'CCl'
p3984
sg25
F0.81
sg26
F0.01
sg7
(lp3985
g28
asg29
S'chloromethane'
p3986
sg12
I6327
sg13
F0.6
sg31
F-0.55
sg15
(lp3987
S'alkyl chloride'
p3988
asg36
g37
sg38
g39
ssS'mobley_667278'
p3989
(dp3990
g3
S'c1cc(c(c(c1c2cc(c(c(c2Cl)Cl)Cl)Cl)Cl)Cl)Cl'
p3991
sg211
F-2.21
sg212
F0.08
sg7
(lp3992
g28
asg214
S'1,2,3,4-tetrachloro-5-(2,3,4-trichlorophenyl)benzene'
p3993
sg12
I37037
sg216
F0.1
sg217
F-4.4
sg15
(lp3994
S'aryl chloride'
p3995
aS'aromatic'
p3996
asg220
g221
sg222
g223
ssS'mobley_6911232'
p3997
(dp3998
g3
S'CCOC'
p3999
sg25
F-0.82
sg26
F0.02
sg7
(lp4000
g28
asg29
S'methoxyethane'
p4001
sg12
I10903
sg13
F0.6
sg31
F-2.1
sg15
(lp4002
S'dialkyl ether'
p4003
asg36
g37
sg38
g39
ssS'mobley_8057732'
p4004
(dp4005
g3
S'c1cc(cc(c1)Cl)O'
p4006
sg25
F-5.28
sg26
F0.03
sg7
(lp4007
g28
asg29
S'3-chlorophenol'
p4008
sg12
I7933
sg13
F0.6
sg31
F-6.62
sg15
(lp4009
S'phenol or hydroxyhetarene'
p4010
aS'aryl chloride'
p4011
aS'aromatic'
p4012
asg36
g37
sg38
g39
ssS'mobley_5310099'
p4013
(dp4014
g3
S'CCCCC=C'
p4015
sg25
F2.59
sg26
F0.02
sg7
(lp4016
g28
asg29
S'hex-1-ene'
p4017
sg12
I11597
sg13
F0.6
sg31
F1.58
sg15
(lp4018
S'alkene'
p4019
asg36
g37
sg38
g39
ssS'mobley_5006685'
p4020
(dp4021
g3
S'CC(=C)[C@H]1CCC(=CC1)C=O'
p4022
sg476
F-3.61
sg477
F0.02
sg7
(lp4023
S'Renamed mobley_5006685 from 4-(1-Methylethenyl)-1-cyclohexene-1-carboxaldehyde to (4S)-4-isopropenylcyclohexene-1-carbaldehyde (the name from the 3D structure) since the former did not completely specify stereochemistry.\n'
p4024
asg480
S'4-(1-Methylethenyl)-1-cyclohexene-1-carboxaldehyde'
p4025
sg12
I16441
sg482
g483
(g487
S'\xc3\xf5(\\\x8f\xc2\xc5?'
p4026
tp4027
Rp4028
sg493
g483
(g487
S'\\\x8f\xc2\xf5(\\\x10\xc0'
p4029
tp4030
Rp4031
sg15
(lp4032
S'aldehyde'
p4033
aS'alkene'
p4034
asg498
g499
sg500
g501
ssS'mobley_6198745'
p4035
(dp4036
g3
S'CC(=O)OCC(COC(=O)C)OC(=O)C'
p4037
sg1192
F-12.16
sg1193
F0.1
sg1194
(lp4038
g1196
ag28
aS'Changed IUPAC name from glycerol triacetate to 2,3-diacetoxypropyl acetate for better handling/standardization.'
p4039
ag166
asg1197
S'2,3-diacetoxypropyl acetate'
p4040
sg12
I5541
sg13
F0.2
sg1199
F-8.84
sg15
(lp4041
S'carboxylic acid ester'
p4042
asg1202
g1203
sg1204
g1203
ssS'mobley_3201701'
p4043
(dp4044
g3
S'Cc1c(nc(nc1OC(=O)N(C)C)N(C)C)C'
p4045
sg179
F-13.68
sg180
F0.04
sg7
(lp4046
g28
aS'Changed IUPAC name from pirimor to 2-(dimethylamino)-5,6-dimethylpyrimidin-4-yl N,N-dimethylcarbamate for better handling/standardization.'
p4047
asg182
S'pirimor'
p4048
sg12
I31645
sg184
F1.93
sg185
F-9.41
sg15
(lp4049
S'cation'
p4050
aS'tertiary amine'
p4051
aS'tertiary aliphatic/aromatic amine (alkylarylamine)'
p4052
aS'aromatic'
p4053
aS'heterocyclic'
p4054
asg188
g189
sg190
g191
ssS'mobley_4690963'
p4055
(dp4056
g3
S'CCOCCOCC'
p4057
sg25
F-3.08
sg26
F0.03
sg7
(lp4058
g28
asg29
S'1,2-diethoxyethane'
p4059
sg12
I12375
sg13
F0.6
sg31
F-3.54
sg15
(lp4060
S'dialkyl ether'
p4061
asg36
g37
sg38
g39
ssS'mobley_3746675'
p4062
(dp4063
g3
S'CC(=C)c1ccccc1'
p4064
sg25
F-1.26
sg26
F0.02
sg7
(lp4065
g28
asg29
S'isopropenylbenzene'
p4066
sg12
I7407
sg13
F0.6
sg31
F-1.24
sg15
(lp4067
S'alkene'
p4068
aS'aromatic'
p4069
asg36
g37
sg38
g39
ssS'mobley_1929982'
p4070
(dp4071
g3
S'S'
p4072
sg25
F-1.17
sg26
F0.01
sg7
(lp4073
g28
asg29
S'hydrogen sulfide'
p4074
sg12
I402
sg13
F0.6
sg31
F-0.7
sg15
(lp4075
g17
asg36
g37
sg38
g39
ssS'mobley_3187514'
p4076
(dp4077
g3
S'Cc1ccccc1N'
p4078
sg25
F-5.37
sg26
F0.03
sg7
(lp4079
g28
asg29
S'2-methylaniline'
p4080
sg12
I7242
sg13
F0.6
sg31
F-5.53
sg15
(lp4081
S'primary amine'
p4082
aS'primary aromatic amine'
p4083
aS'aromatic'
p4084
asg36
g37
sg38
g39
ssS'mobley_4964807'
p4085
(dp4086
g3
S'CC(=O)CO[N+](=O)[O-]'
p4087
sg179
F-5.18
sg180
F0.02
sg7
(lp4088
g28
asg182
S'nitroxyacetone'
p4089
sg12
I81226
sg184
F0.1
sg185
F-5.99
sg15
(lp4090
S'ketone'
p4091
aS'nitrate'
p4092
asg188
g189
sg190
g191
ssS'mobley_210639'
p4093
(dp4094
g3
S'CC(C)I'
p4095
sg25
F0.29
sg26
F0.02
sg7
(lp4096
g28
asg29
S'2-iodopropane'
p4097
sg12
I6362
sg13
F0.6
sg31
F-0.46
sg15
(lp4098
S'alkyl iodide'
p4099
asg36
g37
sg38
g39
ssS'mobley_1075836'
p4100
(dp4101
g3
S'CCC(=O)OC'
p4102
sg25
F-3.83
sg26
F0.02
sg7
(lp4103
g28
asg29
S'methyl propanoate'
p4104
sg12
I11124
sg13
F0.6
sg31
F-2.93
sg15
(lp4105
S'carboxylic acid ester'
p4106
asg36
g37
sg38
g39
ssS'mobley_6091882'
p4107
(dp4108
g3
S'C=C'
p4109
sg25
F2.36
sg26
F0.01
sg7
(lp4110
g28
asg29
S'ethylene'
p4111
sg12
I6325
sg13
F0.6
sg31
F1.28
sg15
(lp4112
S'alkene'
p4113
asg36
g37
sg38
g39
ssS'mobley_8514745'
p4114
(dp4115
g3
S'CCCCCOC(=O)C'
p4116
sg25
F-2.83
sg26
F0.03
sg7
(lp4117
g28
asg29
S'pentyl acetate'
p4118
sg12
I12348
sg13
F0.6
sg31
F-2.51
sg15
(lp4119
S'carboxylic acid ester'
p4120
asg36
g37
sg38
g39
ssS'mobley_8668219'
p4121
(dp4122
g3
S'CC[C@@H](C)C(C)C'
p4123
sg25
F2.66
sg26
F0.03
sg7
(lp4124
S'Renamed mobley_8668219 from 2,3-dimethylpentane to (3R)-2,3-dimethylpentane (the name from the 3D structure) since the former did not completely specify stereochemistry.\n'
p4125
asg29
S'2,3-dimethylpentane'
p4126
sg12
I11260
sg13
F0.6
sg31
F2.52
sg15
(lp4127
g17
asg36
g37
sg38
g39
ssS'mobley_9729792'
p4128
(dp4129
g3
S'C1C=CC=CC=C1'
p4130
sg25
F0.15
sg26
F0.02
sg7
(lp4131
g28
asg29
S'cyclohepta-1,3,5-triene'
p4132
sg12
I11000
sg13
F0.6
sg31
F-0.99
sg15
(lp4133
S'alkene'
p4134
asg36
g37
sg38
g39
ssS'mobley_2784376'
p4135
(dp4136
g3
S'C1CC1'
p4137
sg25
F2.64
sg26
F0.02
sg7
(lp4138
g28
asg29
S'cyclopropane'
p4139
sg12
I6351
sg13
F0.6
sg31
F0.75
sg15
(lp4140
g17
asg36
g37
sg38
g39
ssS'mobley_8739734'
p4141
(dp4142
g3
S'CC(C)C(=O)C'
p4143
sg25
F-2.93
sg26
F0.02
sg7
(lp4144
g28
asg29
S'3-methylbutan-2-one'
p4145
sg12
I11251
sg13
F0.6
sg31
F-3.24
sg15
(lp4146
S'ketone'
p4147
asg36
g37
sg38
g39
ssS'mobley_6338073'
p4148
(dp4149
g3
S'CCNc1nc(nc(n1)SC)NC(C)(C)C'
p4150
sg179
F-7.9
sg180
F0.05
sg7
(lp4151
g28
aS'Changed IUPAC name from terbutryn to 2-N-tert-butyl-4-N-ethyl-6-(methylsulfanyl)-1,3,5-triazine-2,4-diamine for better handling/standardization.'
p4152
asg182
S'terbutryn'
p4153
sg12
I13450
sg184
F0.42
sg185
F-6.68
sg15
(lp4154
S'thioether'
p4155
aS'secondary amine'
p4156
aS'secondary aliphatic/aromatic amine (alkylarylamine)'
p4157
aS'aromatic'
p4158
aS'heterocyclic'
p4159
asg188
g189
sg190
g191
ssS'mobley_4884177'
p4160
(dp4161
g3
S'CCc1cccnc1'
p4162
sg25
F-2.96
sg26
F0.02
sg7
(lp4163
g28
asg29
S'3-ethylpyridine'
p4164
sg12
I10823
sg13
F0.6
sg31
F-4.59
sg15
(lp4165
S'aromatic'
p4166
aS'heterocyclic'
p4167
asg36
g37
sg38
g39
ssS'mobley_6081058'
p4168
(dp4169
g3
S'CCCCC/C=C/C=O'
p4170
sg25
F-2.47
sg26
F0.03
sg7
(lp4171
S'Renamed mobley_6081058 from oct-2-enal to (E)-oct-2-enal (the name from the 3D structure) since the former did not completely specify stereochemistry.\n'
p4172
asg29
S'oct-2-enal'
p4173
sg12
I16900
sg13
F0.6
sg31
F-3.43
sg15
(lp4174
S'aldehyde'
p4175
aS'alkene'
p4176
asg36
g37
sg38
g39
ssS'mobley_9257453'
p4177
(dp4178
g3
S'c1cc(c(cc1O)Cl)Cl'
p4179
sg476
F-5.32
sg477
F0.019
sg7
(lp4180
g28
asg480
S'3,4-dichlorophenol'
p4181
sg12
I7258
sg482
g483
(g487
S'\x9a\x99\x99\x99\x99\x99\xb9?'
p4182
tp4183
Rp4184
sg493
g483
(g487
S')\\\x8f\xc2\xf5(\x1d\xc0'
p4185
tp4186
Rp4187
sg15
(lp4188
S'phenol or hydroxyhetarene'
p4189
aS'aryl chloride'
p4190
aS'aromatic'
p4191
asg498
g499
sg500
g501
ssS'mobley_36119'
p4192
(dp4193
g3
S'CCCCCCCCO'
p4194
sg25
F-2.65
sg26
F0.03
sg7
(lp4195
g28
asg29
S'octan-1-ol'
p4196
sg12
I957
sg13
F0.6
sg31
F-4.09
sg15
(lp4197
S'primary alcohol'
p4198
asg36
g37
sg38
g39
ssS'mobley_5079234'
p4199
(dp4200
g3
S'CCCCCCCO'
p4201
sg25
F-2.72
sg26
F0.02
sg7
(lp4202
g28
asg29
S'heptan-1-ol'
p4203
sg12
I8129
sg13
F0.6
sg31
F-4.21
sg15
(lp4204
S'primary alcohol'
p4205
asg36
g37
sg38
g39
ssS'mobley_2487143'
p4206
(dp4207
g3
S'CCCCC(=O)C'
p4208
sg25
F-2.77
sg26
F0.02
sg7
(lp4209
g28
asg29
S'hexan-2-one'
p4210
sg12
I11583
sg13
F0.6
sg31
F-3.28
sg15
(lp4211
S'ketone'
p4212
asg36
g37
sg38
g39
ssS'mobley_430089'
p4213
(dp4214
g3
S'CCCC#C'
p4215
sg25
F0.45
sg26
F0.02
sg7
(lp4216
g28
asg29
S'pent-1-yne'
p4217
sg12
I12309
sg13
F0.6
sg31
F0.01
sg15
(lp4218
S'alkyne'
p4219
asg36
g37
sg38
g39
ssS'mobley_7829570'
p4220
(dp4221
g3
S'CCCC[N@](CC)c1c(cc(cc1[N+](=O)[O-])C(F)(F)F)[N+](=O)[O-]'
p4222
sg179
F-2.68
sg180
F0.04
sg7
(lp4223
g28
aS'Changed IUPAC name from benefin to N-butyl-N-ethyl-2,6-dinitro-4-(trifluoromethyl)aniline for better handling/standardization.'
p4224
asg182
S'N-butyl-N-ethyl-2,6-dinitro-4-(trifluoromethyl)aniline'
p4225
sg12
I2319
sg184
F1.93
sg185
F-3.51
sg15
(lp4226
S'tertiary amine'
p4227
aS'tertiary aliphatic/aromatic amine (alkylarylamine)'
p4228
aS'halogen derivative'
p4229
aS'nitro'
p4230
aS'aromatic'
p4231
asg188
g189
sg190
g191
ssS'mobley_5890803'
p4232
(dp4233
g3
S'CCCOC(=O)CC'
p4234
sg25
F-2.95
sg26
F0.02
sg7
(lp4235
g28
asg29
S'propyl propanoate'
p4236
sg12
I7803
sg13
F0.6
sg31
F-2.44
sg15
(lp4237
S'carboxylic acid ester'
p4238
asg36
g37
sg38
g39
ssS'mobley_3269565'
p4239
(dp4240
g3
S'CC(C)OC'
p4241
sg25
F-0.75
sg26
F0.02
sg7
(lp4242
g28
asg29
S'2-methoxypropane'
p4243
sg12
I11721
sg13
F0.6
sg31
F-2.01
sg15
(lp4244
S'dialkyl ether'
p4245
asg36
g37
sg38
g39
ssS'mobley_3259411'
p4246
(dp4247
g3
S'C(C(CO)O)O'
p4248
sg394
F-9.71
sg395
F0.06
sg7
(lp4249
g28
asg397
S'glycerol'
p4250
sg12
I753
sg399
F1.0
sg400
F-13.43
sg15
(lp4251
S'primary alcohol'
p4252
aS'secondary alcohol'
p4253
aS'1,2-diol'
p4254
asg406
g407
sg408
g409
ssS'mobley_766666'
p4255
(dp4256
g3
S'C(=C(Cl)Cl)Cl'
p4257
sg25
F0.99
sg26
F0.02
sg7
(lp4258
g28
asg29
S'1,1,2-trichloroethylene'
p4259
sg12
I6575
sg13
F0.6
sg31
F-0.44
sg15
(lp4260
S'halogen derivative'
p4261
asg36
g37
sg38
g39
ssS'mobley_4188615'
p4262
(dp4263
g3
S'CN(C)C(=O)c1ccccc1'
p4264
sg25
F-7.98
sg26
F0.04
sg7
(lp4265
g28
asg29
S'N,N-dimethylbenzamide'
p4266
sg12
I11916
sg13
F0.6
sg31
F-9.29
sg15
(lp4267
S'cation'
p4268
aS'aromatic'
p4269
asg36
g599
sg38
g39
ssS'mobley_3999471'
p4270
(dp4271
g3
S'CC(Cl)Cl'
p4272
sg25
F0.17
sg26
F0.02
sg7
(lp4273
g28
asg29
S'1,1-dichloroethane'
p4274
sg12
I6365
sg13
F0.6
sg31
F-0.84
sg15
(lp4275
S'alkyl chloride'
p4276
asg36
g37
sg38
g39
ssS'mobley_5747981'
p4277
(dp4278
g3
S'COCC(OC)(OC)OC'
p4279
sg25
F-5.97
sg26
F0.04
sg7
(lp4280
g28
asg29
S'1,1,1,2-tetramethoxyethane'
p4281
sg12
I141897
sg13
F0.6
sg31
F-5.73
sg15
(lp4282
S'dialkyl ether'
p4283
aS'orthocarboxylic acid derivative'
p4284
aS'orthoester'
p4285
asg36
g48
sg38
g39
ssS'mobley_9671033'
p4286
(dp4287
g3
S'CCC[N+](=O)[O-]'
p4288
sg25
F-1.38
sg26
F0.02
sg7
(lp4289
g28
asg29
S'1-nitropropane'
p4290
sg12
I7903
sg13
F0.6
sg31
F-3.34
sg15
(lp4291
S'nitro'
p4292
asg36
g37
sg38
g39
ssS'mobley_525934'
p4293
(dp4294
g3
S'CS'
p4295
sg5
F-0.2
sg6
F0.1
sg7
(lp4296
g9
asg10
S'methanethiol'
p4297
sg12
I878
sg13
F0.2
sg14
F-1.2
sg15
(lp4298
S'thiol (sulfanyl)'
p4299
aS'alkylthiol'
p4300
asg18
g19
sg20
g21
ssS'mobley_8578590'
p4301
(dp4302
g3
S'CS(=O)C'
p4303
sg25
F-8.32
sg26
F0.03
sg7
(lp4304
g28
aS'Updated 10/22/13 using the mean of experimental data from two sources from J. Peter Guthrie --  Watts & Brimblecombe (1987) and Taft & Abraham et al. (1985). Uncertainty taken as the standard deviation across the two datapoints..\n'
p4305
asg29
S'methylsulfinylmethane'
p4306
sg12
I679
sg13
g483
(g487
S'8\n\xd7\xa3p=\xe2?'
p4307
tp4308
Rp4309
sg31
g483
(g487
S'\x90\xc2\xf5(\\\x8f"\xc0'
p4310
tp4311
Rp4312
sg15
(lp4313
S'sulfoxide'
p4314
asg36
S'10.1080/09593338709384509 and 10.1038/313384a0'
p4315
sg38
g39
ssS'mobley_1821184'
p4316
(dp4317
g3
S'Cc1c[nH]c2c1cccc2'
p4318
sg25
F-6.55
sg26
F0.03
sg7
(lp4319
g28
asg29
S'3-methyl-1H-indole'
p4320
sg12
I6736
sg13
F0.6
sg31
F-5.88
sg15
(lp4321
S'aromatic'
p4322
aS'heterocyclic'
p4323
asg36
g3091
sg38
g39
ssS'mobley_6571751'
p4324
(dp4325
g3
S'CC1=CCCCC1'
p4326
sg25
F1.33
sg26
F0.02
sg7
(lp4327
g28
asg29
S'1-methylcyclohexene'
p4328
sg12
I11574
sg13
F0.6
sg31
F0.67
sg15
(lp4329
S'alkene'
p4330
asg36
g37
sg38
g39
ssS'mobley_4553008'
p4331
(dp4332
g3
S'c1cc(ccc1Cl)Cl'
p4333
sg25
F-0.1
sg26
F0.02
sg7
(lp4334
g28
asg29
S'1,4-dichlorobenzene'
p4335
sg12
I4685
sg13
F0.6
sg31
F-1.01
sg15
(lp4336
S'aryl chloride'
p4337
aS'aromatic'
p4338
asg36
g37
sg38
g39
ssS'mobley_5690766'
p4339
(dp4340
g3
S'C=CCCC=C'
p4341
sg25
F2.44
sg26
F0.02
sg7
(lp4342
g28
asg29
S'hexa-1,5-diene'
p4343
sg12
I11598
sg13
F0.6
sg31
F1.01
sg15
(lp4344
S'alkene'
p4345
asg36
g37
sg38
g39
ssS'mobley_7532833'
p4346
(dp4347
g3
S'CC#N'
p4348
sg25
F-2.51
sg26
F0.01
sg7
(lp4349
g28
asg29
S'acetonitrile'
p4350
sg12
I6342
sg13
F0.6
sg31
F-3.88
sg15
(lp4351
S'carbonitrile'
p4352
asg36
S'10.1021/jp0264477'
p4353
sg38
g39
ssS'mobley_3398536'
p4354
(dp4355
g3
S'c1ccc(cc1)I'
p4356
sg25
F-0.34
sg26
F0.02
sg7
(lp4357
g28
asg29
S'iodobenzene'
p4358
sg12
I11575
sg13
F0.6
sg31
F-1.74
sg15
(lp4359
S'aryl iodide'
p4360
aS'aromatic'
p4361
asg36
g37
sg38
g39
ssS'mobley_3546460'
p4362
(dp4363
g3
S'CCCCCCO'
p4364
sg25
F-3.03
sg26
F0.02
sg7
(lp4365
g28
asg29
S'hexan-1-ol'
p4366
sg12
I8103
sg13
F0.6
sg31
F-4.4
sg15
(lp4367
S'primary alcohol'
p4368
asg36
g37
sg38
g39
ssS'mobley_7106722'
p4369
(dp4370
g3
S'CCCC(C)C'
p4371
sg25
F2.78
sg26
F0.02
sg7
(lp4372
g28
asg29
S'isohexane'
p4373
sg12
I7892
sg13
F0.6
sg31
F2.51
sg15
(lp4374
g17
asg36
g37
sg38
g39
ssS'mobley_7814642'
p4375
(dp4376
g3
S'c1cc(c(cc1Cl)Cl)Cl'
p4377
sg25
F-0.18
sg26
F0.02
sg7
(lp4378
g28
asg29
S'1,2,4-trichlorobenzene'
p4379
sg12
I13
sg13
F0.6
sg31
F-1.12
sg15
(lp4380
S'aryl chloride'
p4381
aS'aromatic'
p4382
asg36
g37
sg38
g39
ssS'mobley_6727159'
p4383
(dp4384
g3
S'C(CO[N+](=O)[O-])O'
p4385
sg179
F-6.5
sg180
F0.03
sg7
(lp4386
g28
aS'Changed IUPAC name from ethyleneglycol mononitrate to 2-(nitrooxy)ethan-1-ol for better handling/standardization.'
p4387
asg182
S'2-(nitrooxy)ethan-1-ol'
p4388
sg12
I85254
sg184
F0.1
sg185
F-8.18
sg15
(lp4389
S'primary alcohol'
p4390
aS'nitrate'
p4391
asg188
g189
sg190
g191
ssS'mobley_4639255'
p4392
(dp4393
g3
S'C(CO)O'
p4394
sg25
F-7.62
sg26
F0.03
sg7
(lp4395
g28
asg29
S'ethylene glycol'
p4396
sg12
I174
sg13
F0.6
sg31
F-9.3
sg15
(lp4397
S'primary alcohol'
p4398
aS'1,2-diol'
p4399
asg36
g37
sg38
g39
ssS'mobley_486214'
p4400
(dp4401
g3
S'COc1cccc(c1O)OC'
p4402
sg476
F-7.05
sg477
F0.022
sg7
(lp4403
g28
asg480
S'2,6-dimethoxyphenol'
p4404
sg12
I7041
sg482
g483
(g487
S'\x9a\x99\x99\x99\x99\x99\xb9?'
p4405
tp4406
Rp4407
sg493
g483
(g487
S'\xd7\xa3p=\n\xd7\x1b\xc0'
p4408
tp4409
Rp4410
sg15
(lp4411
S'phenol or hydroxyhetarene'
p4412
aS'alkyl aryl ether'
p4413
aS'aromatic'
p4414
asg498
g499
sg500
g501
ssS'mobley_9565165'
p4415
(dp4416
g3
S'c1ccc-2c(c1)Cc3c2cccc3'
p4417
sg25
F-4.29
sg26
F0.02
sg7
(lp4418
g28
asg29
S'9H-fluorene'
p4419
sg12
I6853
sg13
F0.6
sg31
F-3.35
sg15
(lp4420
S'aromatic'
p4421
asg36
g37
sg38
g39
ssS'mobley_2609604'
p4422
(dp4423
g3
S'CCC(C)(C)CC'
p4424
sg25
F2.53
sg26
F0.03
sg7
(lp4425
g28
asg29
S'3,3-dimethylpentane'
p4426
sg12
I11229
sg13
F0.6
sg31
F2.56
sg15
(lp4427
g17
asg36
g37
sg38
g39
ssS'mobley_7455579'
p4428
(dp4429
g3
S'CC(C)COC=O'
p4430
sg25
F-3.21
sg26
F0.02
sg7
(lp4431
g28
asg29
S'isobutyl formate'
p4432
sg12
I10957
sg13
F0.6
sg31
F-2.22
sg15
(lp4433
S'carboxylic acid ester'
p4434
asg36
g37
sg38
g39
ssS'mobley_1967551'
p4435
(dp4436
g3
S'CC=O'
p4437
sg25
F-3.39
sg26
F0.02
sg7
(lp4438
g28
asg29
S'acetaldehyde'
p4439
sg12
I177
sg13
F0.6
sg31
F-3.5
sg15
(lp4440
S'aldehyde'
p4441
asg36
g37
sg38
g39
ssS'mobley_4587267'
p4442
(dp4443
g3
S'C([C@H]([C@H]([C@@H]([C@@H](CO)O)O)O)O)O'
p4444
sg476
F-18.64
sg477
F0.043
sg7
(lp4445
g28
asg480
S'(2R,3R,4R,5R)-Hexan-1,2,3,4,5,6-hexol'
p4446
sg12
I6251
sg482
g483
(g487
S'{\x14\xaeG\xe1z\xd4?'
p4447
tp4448
Rp4449
sg493
g483
(g487
S'\x1f\x85\xebQ\xb8\x9e7\xc0'
p4450
tp4451
Rp4452
sg15
(lp4453
S'primary alcohol'
p4454
aS'secondary alcohol'
p4455
aS'1,2-diol'
p4456
asg498
g499
sg500
g501
ssS'mobley_172879'
p4457
(dp4458
g3
S'c1ccc2c(c1)Oc3ccccc3O2'
p4459
sg211
F-4.8
sg212
F0.02
sg7
(lp4460
g28
asg214
S'dibenzo-p-dioxin'
p4461
sg12
I9216
sg216
F0.1
sg217
F-3.15
sg15
(lp4462
S'diaryl ether'
p4463
aS'aromatic'
p4464
aS'heterocyclic'
p4465
asg220
g221
sg222
g223
ssS'mobley_2457863'
p4466
(dp4467
g3
S'COc1cccc(c1)O'
p4468
sg25
F-7.03
sg26
F0.03
sg7
(lp4469
g28
asg29
S'3-methoxyphenol'
p4470
sg12
I9007
sg13
F0.6
sg31
F-7.66
sg15
(lp4471
S'phenol or hydroxyhetarene'
p4472
aS'alkyl aryl ether'
p4473
aS'aromatic'
p4474
asg36
g37
sg38
g39
ssS'mobley_2143011'
p4475
(dp4476
g3
S'CC(C)C=C'
p4477
sg25
F2.8
sg26
F0.02
sg7
(lp4478
g28
asg29
S'3-methylbut-1-ene'
p4479
sg12
I11239
sg13
F0.6
sg31
F1.83
sg15
(lp4480
S'alkene'
p4481
asg36
g4353
sg38
g39
ssS'mobley_2837389'
p4482
(dp4483
g3
S'c1cc[nH]c1'
p4484
sg25
F-3.87
sg26
F0.02
sg7
(lp4485
g28
asg29
S'pyrrole'
p4486
sg12
I8027
sg13
F0.6
sg31
F-4.78
sg15
(lp4487
S'aromatic'
p4488
aS'heterocyclic'
p4489
asg36
g37
sg38
g39
ssS'mobley_8789465'
p4490
(dp4491
g3
S'c1ccc(c(c1)O)I'
p4492
sg25
F-2.91
sg26
F0.03
sg7
(lp4493
g28
asg29
S'2-iodophenol'
p4494
sg12
I10784
sg13
F0.6
sg31
F-6.2
sg15
(lp4495
S'phenol or hydroxyhetarene'
p4496
aS'aryl iodide'
p4497
aS'aromatic'
p4498
asg36
g37
sg38
g39
ssS'mobley_2859600'
p4499
(dp4500
g3
S'C=Cc1ccccc1'
p4501
sg25
F-1.32
sg26
F0.02
sg7
(lp4502
g28
asg29
S'styrene'
p4503
sg12
I7501
sg13
F0.6
sg31
F-1.24
sg15
(lp4504
S'alkene'
p4505
aS'aromatic'
p4506
asg36
g37
sg38
g39
ssS'mobley_1855337'
p4507
(dp4508
g3
S'c1c(cc(c(c1Cl)Cl)Cl)Cl'
p4509
sg25
F-0.02
sg26
F0.02
sg7
(lp4510
g28
asg29
S'1,2,3,5-tetrachlorobenzene'
p4511
sg12
I12468
sg13
F0.6
sg31
F-1.62
sg15
(lp4512
S'aryl chloride'
p4513
aS'aromatic'
p4514
asg36
g37
sg38
g39
ssS'mobley_9740891'
p4515
(dp4516
g3
S'c1cc(c(c(c1)Cl)C#N)Cl'
p4517
sg179
F-2.57
sg180
F0.02
sg7
(lp4518
g28
asg182
S'dichlobenil'
p4519
sg12
I3031
sg184
F1.93
sg185
F-4.71
sg15
(lp4520
S'aryl chloride'
p4521
aS'carbonitrile'
p4522
aS'aromatic'
p4523
asg188
g189
sg190
g191
ssS'mobley_2771569'
p4524
(dp4525
g3
S'CN1CCNCC1'
p4526
sg25
F-8.3
sg26
F0.03
sg7
(lp4527
g28
asg29
S'1-methylpiperazine'
p4528
sg12
I53167
sg13
F0.6
sg31
F-7.77
sg15
(lp4529
S'secondary amine'
p4530
aS'secondary aliphatic amine (dialkylamine)'
p4531
aS'tertiary amine'
p4532
aS'tertiary aliphatic amine (trialkylamine)'
p4533
aS'heterocyclic'
p4534
asg36
g37
sg38
g39
ssS'mobley_8221999'
p4535
(dp4536
g3
S'CCCC#N'
p4537
sg25
F-2.23
sg26
F0.02
sg7
(lp4538
g28
asg29
S'butanenitrile'
p4539
sg12
I8008
sg13
F0.6
sg31
F-3.64
sg15
(lp4540
S'carbonitrile'
p4541
asg36
g37
sg38
g39
ssS'mobley_4762983'
p4542
(dp4543
g3
S'CCCCCC=C'
p4544
sg25
F2.97
sg26
F0.02
sg7
(lp4545
g28
asg29
S'hept-1-ene'
p4546
sg12
I11610
sg13
F0.6
sg31
F1.66
sg15
(lp4547
S'alkene'
p4548
asg36
g37
sg38
g39
ssS'mobley_2279874'
p4549
(dp4550
g3
S'COC(OC)OC'
p4551
sg25
F-4.06
sg26
F0.03
sg7
(lp4552
g28
asg29
S'trimethoxymethane'
p4553
sg12
I9005
sg13
F0.6
sg31
F-4.42
sg15
(lp4554
S'orthocarboxylic acid derivative'
p4555
aS'orthoester'
p4556
asg36
g1347
sg38
g39
ssS'mobley_8764620'
p4557
(dp4558
g3
S'c1cc(cnc1)C#N'
p4559
sg25
F-4.63
sg26
F0.02
sg7
(lp4560
g28
asg29
S'pyridine-3-carbonitrile'
p4561
sg12
I79
sg13
F0.6
sg31
F-6.75
sg15
(lp4562
S'carbonitrile'
p4563
aS'aromatic'
p4564
aS'heterocyclic'
p4565
asg36
g37
sg38
g39
ssS'mobley_4613090'
p4566
(dp4567
g3
S'c1ccc(cc1)Cn2ccnc2'
p4568
sg476
F-7.94
sg477
F0.022
sg7
(lp4569
g28
asg480
S'1-benzylimidazole'
p4570
sg12
I77918
sg482
g483
(g487
S'\xb8\x1e\x85\xebQ\xb8\xbe?'
p4571
tp4572
Rp4573
sg493
g483
(g487
S'\x85\xebQ\xb8\x1e\x85\x1e\xc0'
p4574
tp4575
Rp4576
sg15
(lp4577
S'aromatic'
p4578
aS'heterocyclic'
p4579
asg498
g499
sg500
g501
ssS'mobley_6978427'
p4580
(dp4581
g3
S'COC(=O)C1CCCCC1'
p4582
sg25
F-4.29
sg26
F0.02
sg7
(lp4583
g28
asg29
S'methyl cyclohexanecarboxylate'
p4584
sg12
I20748
sg13
F0.6
sg31
F-3.3
sg15
(lp4585
S'carboxylic acid ester'
p4586
asg36
g37
sg38
g39
ssS'mobley_6739648'
p4587
(dp4588
g3
S'C1COCCO1'
p4589
sg25
F-4.35
sg26
F0.02
sg7
(lp4590
g28
asg29
S'1,4-dioxane'
p4591
sg12
I31275
sg13
F0.6
sg31
F-5.06
sg15
(lp4592
S'dialkyl ether'
p4593
aS'heterocyclic'
p4594
asg36
g37
sg38
g39
ssS'mobley_1800170'
p4595
(dp4596
g3
S'CCS'
p4597
sg25
F-0.4
sg26
F0.02
sg7
(lp4598
g28
asg29
S'ethanethiol'
p4599
sg12
I6343
sg13
F0.6
sg31
F-1.14
sg15
(lp4600
S'thiol (sulfanyl)'
p4601
aS'alkylthiol'
p4602
asg36
g37
sg38
g39
ssS'mobley_1046331'
p4603
(dp4604
g3
S'c1ccc(cc1)OC=O'
p4605
sg25
F-4.83
sg26
F0.02
sg7
(lp4606
g28
asg29
S'phenyl formate'
p4607
sg12
I74626
sg13
F0.6
sg31
F-3.82
sg15
(lp4608
S'carboxylic acid ester'
p4609
aS'aromatic'
p4610
asg36
g734
sg38
g39
ssS'mobley_9821936'
p4611
(dp4612
g3
S'c12c(c(c(c(c1Cl)Cl)Cl)Cl)Oc3c(c(c(c(c3Cl)Cl)Cl)Cl)O2'
p4613
sg211
F-1.15
sg212
F0.04
sg7
(lp4614
g28
asg214
S'1,2,3,4,6,7,8,9-octachlorodibenzo-p-dioxin'
p4615
sg12
I18636
sg216
F1.0
sg217
F-4.53
sg15
(lp4616
S'diaryl ether'
p4617
aS'aryl chloride'
p4618
aS'aromatic'
p4619
aS'heterocyclic'
p4620
asg220
g221
sg222
g223
ssS'mobley_4983965'
p4621
(dp4622
g3
S'CCSCC'
p4623
sg25
F0.21
sg26
F0.02
sg7
(lp4624
g28
asg29
S'ethylsulfanylethane'
p4625
sg12
I9609
sg13
F0.6
sg31
F-1.46
sg15
(lp4626
S'thioether'
p4627
asg36
g37
sg38
g39
ssS'mobley_1781152'
p4628
(dp4629
g3
S'CC(C)(C)C(=O)OC'
p4630
sg25
F-2.99
sg26
F0.02
sg7
(lp4631
g28
asg29
S'methyl 2,2-dimethylpropanoate'
p4632
sg12
I69027
sg13
F0.6
sg31
F-2.4
sg15
(lp4633
S'carboxylic acid ester'
p4634
asg36
g37
sg38
g39
ssS'mobley_4483973'
p4635
(dp4636
g3
S'c1ccc(cc1)F'
p4637
sg25
F-0.07
sg26
F0.02
sg7
(lp4638
g28
asg29
S'fluorobenzene'
p4639
sg12
I10008
sg13
F0.6
sg31
F-0.8
sg15
(lp4640
S'aryl fluoride'
p4641
aS'aromatic'
p4642
asg36
g37
sg38
g39
ssS'mobley_4780078'
p4643
(dp4644
g3
S'Cc1ccc(c(c1)C)O'
p4645
sg25
F-4.55
sg26
F0.03
sg7
(lp4646
g28
asg29
S'2,4-dimethylphenol'
p4647
sg12
I7771
sg13
F0.6
sg31
F-6.01
sg15
(lp4648
S'phenol or hydroxyhetarene'
p4649
aS'aromatic'
p4650
asg36
g37
sg38
g39
ssS'mobley_2294995'
p4651
(dp4652
g3
S'CCOC=O'
p4653
sg25
F-2.99
sg26
F0.02
sg7
(lp4654
g28
asg29
S'ethyl formate'
p4655
sg12
I8025
sg13
F0.6
sg31
F-2.56
sg15
(lp4656
S'carboxylic acid ester'
p4657
asg36
g37
sg38
g39
ssS'mobley_303222'
p4658
(dp4659
g3
S'CC=C'
p4660
sg25
F2.44
sg26
F0.02
sg7
(lp4661
g28
asg29
S'prop-1-ene'
p4662
sg12
I8252
sg13
F0.6
sg31
F1.32
sg15
(lp4663
S'alkene'
p4664
asg36
g37
sg38
g39
ssS'mobley_1563176'
p4665
(dp4666
g3
S'CCCCS'
p4667
sg25
F-0.12
sg26
F0.02
sg7
(lp4668
g28
asg29
S'butane-1-thiol'
p4669
sg12
I8012
sg13
F0.6
sg31
F-0.99
sg15
(lp4670
S'thiol (sulfanyl)'
p4671
aS'alkylthiol'
p4672
asg36
g37
sg38
g39
ssS'mobley_4375719'
p4673
(dp4674
g3
S'CCCCCCCCC'
p4675
sg25
F3.32
sg26
F0.03
sg7
(lp4676
g28
asg29
S'nonane'
p4677
sg12
I8141
sg13
F0.6
sg31
F3.13
sg15
(lp4678
g17
asg36
g37
sg38
g39
ssS'mobley_8117218'
p4679
(dp4680
g3
S'C1[C@@H]2[C@H]3[C@@H]([C@H]1[C@H]4[C@@H]2O4)[C@@]5(C(=C([C@]3(C5(Cl)Cl)Cl)Cl)Cl)Cl'
p4681
sg179
F-4.77
sg180
F0.07
sg7
(lp4682
g28
asg182
S'endrin'
p4683
sg12
I3048
sg184
F0.1
sg185
F-4.82
sg15
(lp4684
S'dialkyl ether'
p4685
aS'alkyl chloride'
p4686
aS'alkene'
p4687
aS'heterocyclic'
p4688
asg188
g189
sg190
g191
ssS'mobley_8765203'
p4689
(dp4690
g3
S'CC(=C)C=C'
p4691
sg25
F1.81
sg26
F0.02
sg7
(lp4692
g28
asg29
S'isoprene'
p4693
sg12
I6557
sg13
F0.6
sg31
F0.68
sg15
(lp4694
S'alkene'
p4695
asg36
g37
sg38
g39
ssS'mobley_1278715'
p4696
(dp4697
g3
S'C(C(Cl)(Cl)Cl)(Cl)(Cl)Cl'
p4698
sg394
F1.0
sg395
F0.04
sg7
(lp4699
g28
asg397
S'hexachloroethane'
p4700
sg12
I6214
sg399
F0.1
sg400
F-0.64
sg15
(lp4701
S'halogen derivative'
p4702
asg406
g407
sg408
g409
ssS'mobley_2269032'
p4703
(dp4704
g3
S'C[C@@H](c1ccc2cc(ccc2c1)OC)C(=O)O'
p4705
sg394
F-10.8
sg395
F0.1
sg7
(lp4706
g28
asg397
S'naproxen'
p4707
sg12
I156391
sg399
F0.18
sg400
F-10.21
sg15
(lp4708
S'alkyl aryl ether'
p4709
aS'carboxylic acid'
p4710
aS'aromatic'
p4711
asg406
g407
sg408
g409
ssS'mobley_929676'
p4712
(dp4713
g3
S'CCCCCCBr'
p4714
sg25
F1.78
sg26
F0.02
sg7
(lp4715
g28
asg29
S'1-bromohexane'
p4716
sg12
I8101
sg13
F0.6
sg31
F0.18
sg15
(lp4717
S'alkyl bromide'
p4718
asg36
g37
sg38
g39
ssS'mobley_1328465'
p4719
(dp4720
g3
S'C(C(Cl)Cl)Cl'
p4721
sg25
F-0.5
sg26
F0.03
sg7
(lp4722
g28
asg29
S'1,1,2-trichloroethane'
p4723
sg12
I6574
sg13
F0.6
sg31
F-1.99
sg15
(lp4724
S'alkyl chloride'
p4725
asg36
g37
sg38
g39
ssS'mobley_296847'
p4726
(dp4727
g3
S'c1ccncc1'
p4728
sg25
F-3.45
sg26
F0.02
sg7
(lp4729
g28
asg29
S'pyridine'
p4730
sg12
I1049
sg13
F0.6
sg31
F-4.69
sg15
(lp4731
S'aromatic'
p4732
aS'heterocyclic'
p4733
asg36
g37
sg38
g39
ssS'mobley_3663158'
p4734
(dp4735
g3
S'c1ccc2cc(ccc2c1)O'
p4736
sg25
F-7.88
sg26
F0.03
sg7
(lp4737
g28
asg29
S'naphthalen-2-ol'
p4738
sg12
I8663
sg13
F0.6
sg31
F-8.11
sg15
(lp4739
S'phenol or hydroxyhetarene'
p4740
aS'aromatic'
p4741
asg36
g37
sg38
g39
ssS'mobley_9121449'
p4742
(dp4743
g3
S'CCC#C'
p4744
sg25
F0.51
sg26
F0.02
sg7
(lp4745
g28
asg29
S'but-1-yne'
p4746
sg12
I7846
sg13
F0.6
sg31
F-0.16
sg15
(lp4747
S'alkyne'
p4748
asg36
g37
sg38
g39
ssS'mobley_7295828'
p4749
(dp4750
g3
S'COc1ccccc1'
p4751
sg25
F-2.3
sg26
F0.02
sg7
(lp4752
g28
asg29
S'anisole'
p4753
sg12
I7519
sg13
F0.6
sg31
F-2.45
sg15
(lp4754
S'alkyl aryl ether'
p4755
aS'aromatic'
p4756
asg36
g37
sg38
g39
ssS'mobley_7360181'
p4757
(dp4758
g3
S'COC(C(F)(F)F)(OC)OC'
p4759
sg394
F-2.37
sg395
F0.05
sg7
(lp4760
g28
aS'Changed IUPAC name from trimethyl orthotrifluoroacetate to 1,1,1-trifluoro-2,2,2-trimethoxyethane for better handling/standardization.'
p4761
asg397
S'1,1,1-trifluoro-2,2,2-trimethoxyethane'
p4762
sg12
I18927701
sg399
F0.2
sg400
F-0.8
sg15
(lp4763
S'halogen derivative'
p4764
aS'orthocarboxylic acid derivative'
p4765
aS'orthoester'
p4766
asg406
g407
sg408
g409
ssS'mobley_2923700'
p4767
(dp4768
g3
S'CCc1ccc(cc1)O'
p4769
sg25
F-5.08
sg26
F0.03
sg7
(lp4770
g28
asg29
S'4-ethylphenol'
p4771
sg12
I31242
sg13
F0.6
sg31
F-6.13
sg15
(lp4772
S'phenol or hydroxyhetarene'
p4773
aS'aromatic'
p4774
asg36
g37
sg38
g39
ssS'mobley_2123854'
p4775
(dp4776
g3
S'c1cc(ccc1C#N)O'
p4777
sg25
F-7.24
sg26
F0.03
sg7
(lp4778
g28
asg29
S'4-hydroxybenzonitrile'
p4779
sg12
I13019
sg13
F0.6
sg31
F-10.17
sg15
(lp4780
S'phenol or hydroxyhetarene'
p4781
aS'carbonitrile'
p4782
aS'aromatic'
p4783
asg36
g37
sg38
g39
ssS'mobley_3589456'
p4784
(dp4785
g3
S'COC(CCl)(OC)OC'
p4786
sg25
F-3.3
sg26
F0.04
sg7
(lp4787
g28
asg29
S'2-chloro-1,1,1-trimethoxy-ethane'
p4788
sg12
I144702
sg13
F0.6
sg31
F-4.59
sg15
(lp4789
S'alkyl chloride'
p4790
aS'orthocarboxylic acid derivative'
p4791
aS'orthoester'
p4792
asg36
g48
sg38
g39
ssS'mobley_2078467'
p4793
(dp4794
g3
S'C[C@@H](c1ccc(cc1)CC(C)C)C(=O)O'
p4795
sg394
F-6.91
sg395
F0.07
sg7
(lp4796
g28
asg397
S'ibuprofen'
p4797
sg12
I3672
sg399
F0.64
sg400
F-7.0
sg15
(lp4798
S'carboxylic acid'
p4799
aS'aromatic'
p4800
asg406
g407
sg408
g409
ssS'mobley_3265457'
p4801
(dp4802
g3
S'COc1cc(c(c(c1O)OC)Cl)C=O'
p4803
sg476
F-9.23
sg477
F0.025
sg7
(lp4804
g28
asg480
S'2-chlorosyringaldehyde'
p4805
sg12
I53479
sg482
g483
(g487
S'\xa4p=\n\xd7\xa3\xe8?'
p4806
tp4807
Rp4808
sg493
g483
(g487
S'\x1f\x85\xebQ\xb8\x1e\x1f\xc0'
p4809
tp4810
Rp4811
sg15
(lp4812
S'aldehyde'
p4813
aS'phenol or hydroxyhetarene'
p4814
aS'alkyl aryl ether'
p4815
aS'aryl chloride'
p4816
aS'aromatic'
p4817
asg498
g499
sg500
g501
ssS'mobley_9028462'
p4818
(dp4819
g3
S'COC(=O)C(F)(F)F'
p4820
sg25
F-1.39
sg26
F0.02
sg7
(lp4821
g28
asg29
S'methyl 2,2,2-trifluoroacetate'
p4822
sg12
I9893
sg13
F0.6
sg31
F-1.1
sg15
(lp4823
S'halogen derivative'
p4824
aS'carboxylic acid ester'
p4825
asg36
S'10.1139/v76-032'
p4826
sg38
g39
ssS'mobley_1944394'
p4827
(dp4828
g3
S'CN(C)CCOC(c1ccccc1)c2ccccc2'
p4829
sg476
F-8.15
sg477
F0.031
sg7
(lp4830
g28
asg480
S'[2-benzhydryloxyethyl]-dimethyl-amine'
p4831
sg12
I3100
sg482
g483
(g487
S'\xd7\xa3p=\n\xd7\xe3?'
p4832
tp4833
Rp4834
sg493
g483
(g487
S'\xaeG\xe1z\x14\xae"\xc0'
p4835
tp4836
Rp4837
sg15
(lp4838
S'dialkyl ether'
p4839
aS'tertiary amine'
p4840
aS'tertiary aliphatic amine (trialkylamine)'
p4841
aS'aromatic'
p4842
asg498
g499
sg500
g501
ssS'mobley_7735340'
p4843
(dp4844
g3
S'c1cnc[nH]1'
p4845
sg25
F-7.85
sg26
F0.03
sg7
(lp4846
g28
asg29
S'imidazole'
p4847
sg12
I795
sg13
F0.6
sg31
F-9.63
sg15
(lp4848
S'aromatic'
p4849
aS'heterocyclic'
p4850
asg36
g37
sg38
g39
ssS'mobley_5948990'
p4851
(dp4852
g3
S'c1ccc(c(c1)N)[N+](=O)[O-]'
p4853
sg25
F-7.96
sg26
F0.03
sg7
(lp4854
g28
asg29
S'2-nitroaniline'
p4855
sg12
I6946
sg13
F0.6
sg31
F-7.37
sg15
(lp4856
S'primary amine'
p4857
aS'primary aromatic amine'
p4858
aS'nitro'
p4859
aS'aromatic'
p4860
asg36
g37
sg38
g39
ssS'mobley_3452749'
p4861
(dp4862
g3
S'Cc1cccc(c1C)C'
p4863
sg25
F-0.65
sg26
F0.02
sg7
(lp4864
g28
asg29
S'1,2,3-trimethylbenzene'
p4865
sg12
I10686
sg13
F0.6
sg31
F-1.21
sg15
(lp4866
S'aromatic'
p4867
asg36
g37
sg38
g39
ssS'mobley_9414831'
p4868
(dp4869
g3
S'Cc1cccc2c1cccc2'
p4870
sg25
F-3.24
sg26
F0.02
sg7
(lp4871
g28
asg29
S'1-methylnaphthalene'
p4872
sg12
I7002
sg13
F0.6
sg31
F-2.44
sg15
(lp4873
S'aromatic'
p4874
asg36
g37
sg38
g39
ssS'mobley_8207196'
p4875
(dp4876
g3
S'CCNc1nc(nc(n1)Cl)NCC'
p4877
sg179
F-8.63
sg180
F0.04
sg7
(lp4878
g28
asg182
S'simazine'
p4879
sg12
I5216
sg184
F0.1
sg185
F-10.22
sg15
(lp4880
S'secondary amine'
p4881
aS'secondary aliphatic/aromatic amine (alkylarylamine)'
p4882
aS'aryl chloride'
p4883
aS'aromatic'
p4884
aS'heterocyclic'
p4885
asg188
g189
sg190
g191
ssS'mobley_9557440'
p4886
(dp4887
g3
S'c1c(c(=O)[nH]c(=O)[nH]1)Cl'
p4888
sg394
F-16.7
sg395
F0.06
sg7
(lp4889
g28
asg397
S'5-chlorouracil'
p4890
sg12
I15758
sg399
F0.78
sg400
F-17.74
sg15
(lp4891
S'aryl chloride'
p4892
aS'oxo(het)arene'
p4893
aS'aromatic'
p4894
aS'heterocyclic'
p4895
asg406
g407
sg408
g409
ssS'mobley_6474572'
p4896
(dp4897
g3
S'C=CCl'
p4898
sg25
F1.22
sg26
F0.02
sg7
(lp4899
g28
asg29
S'chloroethylene'
p4900
sg12
I6338
sg13
F0.6
sg31
F-0.59
sg15
(lp4901
S'halogen derivative'
p4902
aS'alkene'
p4903
asg36
g37
sg38
g39
ssS'mobley_6988468'
p4904
(dp4905
g3
S'CCc1ccccn1'
p4906
sg25
F-3.21
sg26
F0.02
sg7
(lp4907
g28
asg29
S'2-ethylpyridine'
p4908
sg12
I7523
sg13
F0.6
sg31
F-4.33
sg15
(lp4909
S'aromatic'
p4910
aS'heterocyclic'
p4911
asg36
g37
sg38
g39
ssS'mobley_7150646'
p4912
(dp4913
g3
S'c1cc(ccc1Br)Br'
p4914
sg25
F-0.01
sg26
F0.02
sg7
(lp4915
g28
asg29
S'1,4-dibromobenzene'
p4916
sg12
I7804
sg13
F0.6
sg31
F-2.3
sg15
(lp4917
S'aryl bromide'
p4918
aS'aromatic'
p4919
asg36
g37
sg38
g39
ssS'mobley_5708811'
p4920
(dp4921
g3
S'COc1c(ccc(c1C(=O)O)Cl)Cl'
p4922
sg179
F-8.13
sg180
F0.04
sg7
(lp4923
g28
asg182
S'dicamba'
p4924
sg12
I3030
sg184
F1.93
sg185
F-9.86
sg15
(lp4925
S'alkyl aryl ether'
p4926
aS'aryl chloride'
p4927
aS'carboxylic acid'
p4928
aS'aromatic'
p4929
asg188
g189
sg190
g191
ssS'mobley_6688723'
p4930
(dp4931
g3
S'COc1c(cc(c(c1O)OC)Cl)Cl'
p4932
sg476
F-6.13
sg477
F0.023
sg7
(lp4933
g28
asg480
S'3,5-dichloro-2,6-dimethoxyphenol'
p4934
sg12
I93462
sg482
g483
(g487
S'R\xb8\x1e\x85\xebQ\xd8?'
p4935
tp4936
Rp4937
sg493
F-6.44
sg15
(lp4938
S'phenol or hydroxyhetarene'
p4939
aS'alkyl aryl ether'
p4940
aS'aryl chloride'
p4941
aS'aromatic'
p4942
asg498
g499
sg500
g501
ssS'mobley_4252724'
p4943
(dp4944
g3
S'CC(C)Cc1ccccc1'
p4945
sg25
F0.0
sg26
F0.02
sg7
(lp4946
g28
asg29
S'isobutylbenzene'
p4947
sg12
I10870
sg13
F0.6
sg31
F0.16
sg15
(lp4948
S'aromatic'
p4949
asg36
g37
sg38
g39
ssS'mobley_8983100'
p4950
(dp4951
g3
S'CBr'
p4952
sg25
F1.09
sg26
F0.01
sg7
(lp4953
g28
asg29
S'bromomethane'
p4954
sg12
I6323
sg13
F0.6
sg31
F-0.82
sg15
(lp4955
S'alkyl bromide'
p4956
asg36
g37
sg38
g39
ssS'mobley_1952272'
p4957
(dp4958
g3
S'C[N+](=O)[O-]'
p4959
sg25
F-2.03
sg26
F0.01
sg7
(lp4960
g28
asg29
S'nitromethane'
p4961
sg12
I6375
sg13
F0.6
sg31
F-4.02
sg15
(lp4962
S'nitro'
p4963
asg36
g37
sg38
g39
ssS'mobley_9007496'
p4964
(dp4965
g3
S'CNC(=O)Oc1cccc2c1cccc2'
p4966
sg179
F-10.92
sg180
F0.04
sg7
(lp4967
g28
aS'Changed IUPAC name from carbaryl to naphthalen-1-yl N-methylcarbamate for better handling/standardization.'
p4968
asg182
S'naphthalen-1-yl N-methylcarbamate'
p4969
sg12
I6129
sg184
F0.1
sg185
F-9.45
sg15
(lp4970
S'aromatic'
p4971
asg188
g189
sg190
g191
ssS'mobley_8124669'
p4972
(dp4973
g3
S'CCc1cccc(c1N(COC)C(=O)CCl)CC'
p4974
sg179
F-7.28
sg180
F0.05
sg7
(lp4975
g28
asg182
S'alachlor'
p4976
sg12
I2078
sg184
F0.29
sg185
F-8.21
sg15
(lp4977
S'cation'
p4978
aS'alkyl chloride'
p4979
aS'aromatic'
p4980
asg188
g189
sg190
g191
ssS'mobley_1728386'
p4981
(dp4982
g3
S'c1ccc(cc1)C(=O)N'
p4983
sg5
F-9.9
sg6
F0.1
sg7
(lp4984
g9
asg10
S'benzamide'
p4985
sg12
I2331
sg13
F0.2
sg14
F-11.0
sg15
(lp4986
S'aromatic'
p4987
asg18
g19
sg20
g21
ssS'mobley_5627459'
p4988
(dp4989
g3
S'CC(C)C=O'
p4990
sg25
F-2.93
sg26
F0.02
sg7
(lp4991
g28
asg29
S'2-methylpropanal'
p4992
sg12
I6561
sg13
F0.6
sg31
F-2.86
sg15
(lp4993
S'aldehyde'
p4994
asg36
g37
sg38
g39
ssS'mobley_7768165'
p4995
(dp4996
g3
S'C(CBr)Cl'
p4997
sg25
F0.02
sg26
F0.02
sg7
(lp4998
g28
asg29
S'1-bromo-2-chloro-ethane'
p4999
sg12
I7849
sg13
F0.6
sg31
F-1.95
sg15
(lp5000
S'alkyl chloride'
p5001
aS'alkyl bromide'
p5002
asg36
g37
sg38
g39
ssS'mobley_664966'
p5003
(dp5004
g3
S'C(I)I'
p5005
sg25
F-0.74
sg26
F0.02
sg7
(lp5006
g28
asg29
S'diiodomethane'
p5007
sg12
I6346
sg13
F0.6
sg31
F-2.49
sg15
(lp5008
S'alkyl iodide'
p5009
asg36
g37
sg38
g39
ssS'mobley_852937'
p5010
(dp5011
g3
S'c1cc(ccc1O)F'
p5012
sg25
F-4.99
sg26
F0.03
sg7
(lp5013
g28
asg29
S'4-fluorophenol'
p5014
sg12
I9732
sg13
F0.6
sg31
F-6.19
sg15
(lp5015
S'phenol or hydroxyhetarene'
p5016
aS'aryl fluoride'
p5017
aS'aromatic'
p5018
asg36
g37
sg38
g39
ssS'mobley_4687447'
p5019
(dp5020
g3
S'CCCOCCO'
p5021
sg25
F-4.21
sg26
F0.03
sg7
(lp5022
g28
asg29
S'2-propoxyethanol'
p5023
sg12
I17756
sg13
F0.6
sg31
F-6.4
sg15
(lp5024
S'primary alcohol'
p5025
aS'dialkyl ether'
p5026
asg36
g37
sg38
g39
ssS'mobley_7364468'
p5027
(dp5028
g3
S'CC1=CC(=O)CC(C1)(C)C'
p5029
sg179
F-3.82
sg180
F0.03
sg7
(lp5030
g28
aS'Changed IUPAC name from isophorone to 3,5,5-trimethylcyclohex-2-en-1-one for better handling/standardization.'
p5031
asg182
S'3,5,5-trimethylcyclohex-2-en-1-one'
p5032
sg12
I6544
sg184
F1.37
sg185
F-5.18
sg15
(lp5033
S'ketone'
p5034
aS'alkene'
p5035
asg188
g189
sg190
g191
ssS'mobley_3414356'
p5036
(dp5037
g3
S'CCCC(C)(C)O'
p5038
sg25
F-2.79
sg26
F0.02
sg7
(lp5039
g28
asg29
S'2-methylpentan-2-ol'
p5040
sg12
I11543
sg13
F0.6
sg31
F-3.92
sg15
(lp5041
S'tertiary alcohol'
p5042
asg36
g37
sg38
g39
ssS'mobley_778352'
p5043
(dp5044
g3
S'CC=C(C)C'
p5045
sg25
F2.28
sg26
F0.02
sg7
(lp5046
g28
asg29
S'2-methylbut-2-ene'
p5047
sg12
I10553
sg13
F0.6
sg31
F1.31
sg15
(lp5048
S'alkene'
p5049
asg36
g4353
sg38
g39
ssS'mobley_4395315'
p5050
(dp5051
g3
S'Cc1cc(ccc1Cl)O'
p5052
sg25
F-4.9
sg26
F0.03
sg7
(lp5053
g28
asg29
S'4-chloro-3-methyl-phenol'
p5054
sg12
I1732
sg13
F0.6
sg31
F-6.79
sg15
(lp5055
S'phenol or hydroxyhetarene'
p5056
aS'aryl chloride'
p5057
aS'aromatic'
p5058
asg36
g37
sg38
g39
ssS'mobley_6896128'
p5059
(dp5060
g3
S'CCCC[C@@H](C)CC'
p5061
sg25
F3.29
sg26
F0.03
sg7
(lp5062
S'Renamed mobley_6896128 from 3-methylheptane to (3S)-3-methylheptane (the name from the 3D structure) since the former did not completely specify stereochemistry.\n'
p5063
asg29
S'3-methylheptane'
p5064
sg12
I11519
sg13
F0.6
sg31
F2.97
sg15
(lp5065
g17
asg36
g37
sg38
g39
ssS'mobley_7610437'
p5066
(dp5067
g3
S'CC[C@H](C(C)C)O'
p5068
sg25
F-2.19
sg26
F0.03
sg7
(lp5069
S'Renamed mobley_7610437 from 2-methylpentan-3-ol to (3R)-2-methylpentan-3-ol (the name from the 3D structure) since the former did not completely specify stereochemistry.\n'
p5070
asg29
S'2-methylpentan-3-ol'
p5071
sg12
I11264
sg13
F0.6
sg31
F-3.88
sg15
(lp5072
S'secondary alcohol'
p5073
asg36
g37
sg38
g39
ssS'mobley_5123639'
p5074
(dp5075
g3
S'C[C@H](CC(C)C)O'
p5076
sg25
F-2.75
sg26
F0.02
sg7
(lp5077
g28
asg29
S'4-methylpentan-2-ol'
p5078
sg12
I7910
sg13
F0.6
sg31
F-3.73
sg15
(lp5079
S'secondary alcohol'
p5080
asg36
g37
sg38
g39
ssS'mobley_8713762'
p5081
(dp5082
g3
S'CCCN(CCC)C(=O)SCCC'
p5083
sg179
F-4.17
sg180
F0.04
sg7
(lp5084
g28
aS'Changed IUPAC name from vernolate to N,N-dipropyl(propylsulfanyl)formamide for better handling/standardization.'
p5085
asg182
S'N,N-dipropyl(propylsulfanyl)formamide'
p5086
sg12
I16003
sg184
F1.36
sg185
F-4.13
sg15
(lp5087
S'cation'
p5088
asg188
g189
sg190
g191
ssS'mobley_2178600'
p5089
(dp5090
g3
S'CCCCCCl'
p5091
sg5
F1.1
sg6
F0.1
sg7
(lp5092
g9
asg10
S'1-chloro-pentane'
p5093
sg12
I10977
sg13
F0.2
sg14
F-0.1
sg15
(lp5094
S'alkyl chloride'
p5095
asg18
g19
sg20
g21
ssS'mobley_4936555'
p5096
(dp5097
g3
S'Cc1cccc(c1C)Nc2ccccc2C(=O)O'
p5098
sg476
F-7.69
sg477
F0.025
sg7
(lp5099
g28
asg480
S'2-(2,3-dimethylphenyl)aminobenzoic acid'
p5100
sg12
I4044
sg482
g483
(g487
S'\x9a\x99\x99\x99\x99\x99\xb9?'
p5101
tp5102
Rp5103
sg493
g483
(g487
S'\x1f\x85\xebQ\xb8\x1e\x1b\xc0'
p5104
tp5105
Rp5106
sg15
(lp5107
S'secondary amine'
p5108
aS'secondary aromatic amine (diarylamine)'
p5109
aS'carboxylic acid'
p5110
aS'aromatic'
p5111
asg498
g499
sg500
g501
ssS'mobley_590519'
p5112
(dp5113
g3
S'CCSSCC'
p5114
sg25
F-0.07
sg26
F0.02
sg7
(lp5115
g28
asg29
S'ethyldisulfanylethane'
p5116
sg12
I8077
sg13
F0.6
sg31
F-1.64
sg15
(lp5117
S'disulfide'
p5118
asg36
g37
sg38
g39
ssS'mobley_9883303'
p5119
(dp5120
g3
S'CCC[C@H](C)CC'
p5121
sg25
F2.76
sg26
F0.02
sg7
(lp5122
S'Renamed mobley_9883303 from 3-methylhexane to (3R)-3-methylhexane (the name from the 3D structure) since the former did not completely specify stereochemistry.\n'
p5123
asg29
S'3-methylhexane'
p5124
sg12
I11507
sg13
F0.6
sg31
F2.71
sg15
(lp5125
g17
asg36
g37
sg38
g39
ssS'mobley_9029594'
p5126
(dp5127
g3
S'CF'
p5128
sg25
F0.79
sg26
F0.01
sg7
(lp5129
g28
asg29
S'fluoromethane'
p5130
sg12
I11638
sg13
F0.6
sg31
F-0.22
sg15
(lp5131
S'alkyl fluoride'
p5132
asg36
g37
sg38
g39
ssS'mobley_1502181'
p5133
(dp5134
g3
S'CCCCCCCC(=O)C'
p5135
sg25
F-2.51
sg26
F0.03
sg7
(lp5136
g28
asg29
S'nonan-2-one'
p5137
sg12
I13187
sg13
F0.6
sg31
F-2.49
sg15
(lp5138
S'ketone'
p5139
asg36
g37
sg38
g39
ssS'mobley_9478823'
p5140
(dp5141
g3
S'Cc1ccccc1C'
p5142
sg25
F-0.52
sg26
F0.02
sg7
(lp5143
g28
asg29
S'o-xylene'
p5144
sg12
I7237
sg13
F0.6
sg31
F-0.9
sg15
(lp5145
S'aromatic'
p5146
asg36
g37
sg38
g39
ssS'mobley_9201263'
p5147
(dp5148
g3
S'COS(=O)(=O)C'
p5149
sg25
F-8.29
sg26
F0.03
sg7
(lp5150
g28
asg29
S'methyl methanesulfonate'
p5151
sg12
I4156
sg13
F0.6
sg31
F-4.87
sg15
(lp5152
S'sulfonic acid ester'
p5153
asg36
g1302
sg38
g39
ssS'mobley_2613240'
p5154
(dp5155
g3
S'COc1ccccc1OC'
p5156
sg476
F-3.52
sg477
F0.021
sg7
(lp5157
g28
asg480
S'1,2-dimethoxybenzene'
p5158
sg12
I7043
sg482
g483
(g487
S'\x9a\x99\x99\x99\x99\x99\xb9?'
p5159
tp5160
Rp5161
sg493
g483
(g487
S'R\xb8\x1e\x85\xebQ\x15\xc0'
p5162
tp5163
Rp5164
sg15
(lp5165
S'alkyl aryl ether'
p5166
aS'aromatic'
p5167
asg498
g499
sg500
g501
ssS'mobley_7769613'
p5168
(dp5169
g3
S'CC(C)(C)Br'
p5170
sg25
F0.89
sg26
F0.02
sg7
(lp5171
g28
asg29
S'2-bromo-2-methyl-propane'
p5172
sg12
I10485
sg13
F0.6
sg31
F0.84
sg15
(lp5173
S'alkyl bromide'
p5174
asg36
g37
sg38
g39
ssS'mobley_3040612'
p5175
(dp5176
g3
S'CCc1ccccc1C'
p5177
sg476
F-0.766
sg477
F0.021
sg7
(lp5178
g28
asg480
S'1-ethyl-2-methylbenzene'
p5179
sg12
I11903
sg482
g483
(g487
S'\x9a\x99\x99\x99\x99\x99\xb9?'
p5180
tp5181
Rp5182
sg493
g483
(g487
S'333333\xeb\xbf'
p5183
tp5184
Rp5185
sg15
(lp5186
S'aromatic'
p5187
asg498
g499
sg500
g501
ssS'mobley_2410897'
p5188
(dp5189
g3
S'CCN'
p5190
sg25
F-3.14
sg26
F0.02
sg7
(lp5191
g28
asg29
S'ethanamine'
p5192
sg12
I6341
sg13
F0.6
sg31
F-4.5
sg15
(lp5193
S'primary amine'
p5194
aS'primary aliphatic amine (alkylamine)'
p5195
asg36
g37
sg38
g39
ssS'mobley_5003962'
p5196
(dp5197
g3
S'c1ccc2c(c1)C(=O)c3ccc(cc3C2=O)N'
p5198
sg476
F-13.71
sg477
F0.026
sg7
(lp5199
g28
asg480
S'2-amino-9,10-anthraquinone'
p5200
sg12
I8341
sg482
g483
(g487
S'\x8f\xc2\xf5(\\\x8f\xd2?'
p5201
tp5202
Rp5203
sg493
g483
(g487
S"\x8f\xc2\xf5(\\\x0f'\xc0"
p5204
tp5205
Rp5206
sg15
(lp5207
S'ketone'
p5208
aS'primary amine'
p5209
aS'primary aromatic amine'
p5210
aS'aromatic'
p5211
asg498
g499
sg500
g501
ssS'mobley_1899443'
p5212
(dp5213
g3
S'CCCC(=C)C'
p5214
sg25
F2.75
sg26
F0.02
sg7
(lp5215
g28
asg29
S'2-methylpent-1-ene'
p5216
sg12
I12986
sg13
F0.6
sg31
F1.47
sg15
(lp5217
S'alkene'
p5218
asg36
g37
sg38
g39
ssS'mobley_4338603'
p5219
(dp5220
g3
S'c1c(=O)[nH]c(=O)[nH]c1Cl'
p5221
sg394
F-15.11
sg395
F0.06
sg7
(lp5222
g28
asg397
S'6-chlorouracil'
p5223
sg12
I73272
sg399
F1.22
sg400
F-15.83
sg15
(lp5224
S'aryl chloride'
p5225
aS'oxo(het)arene'
p5226
aS'aromatic'
p5227
aS'heterocyclic'
p5228
asg406
g407
sg408
g409
ssS'mobley_5935995'
p5229
(dp5230
g3
S'CCC(C)(C)C'
p5231
sg25
F2.53
sg26
F0.02
sg7
(lp5232
g28
asg29
S'2,2-dimethylbutane'
p5233
sg12
I6403
sg13
F0.6
sg31
F2.51
sg15
(lp5234
g17
asg36
g37
sg38
g39
ssS'mobley_8048190'
p5235
(dp5236
g3
S'CC(=O)N'
p5237
sg25
F-8.62
sg26
F0.03
sg7
(lp5238
g28
asg29
S'acetamide'
p5239
sg12
I178
sg13
F0.6
sg31
F-9.71
sg15
(lp5240
g17
asg36
g37
sg38
g39
ssS'mobley_5917842'
p5241
(dp5242
g3
S'Cc1ccc(c(c1)OC)O'
p5243
sg476
F-4.46
sg477
F0.021
sg7
(lp5244
g28
asg480
S'4-methyl-2-methoxyphenol'
p5245
sg12
I7144
sg482
g483
(g487
S'\x9a\x99\x99\x99\x99\x99\xb9?'
p5246
tp5247
Rp5248
sg493
g483
(g487
S'333333\x17\xc0'
p5249
tp5250
Rp5251
sg15
(lp5252
S'phenol or hydroxyhetarene'
p5253
aS'alkyl aryl ether'
p5254
aS'aromatic'
p5255
asg498
g499
sg500
g501
ssS'mobley_4013838'
p5256
(dp5257
g3
S'CC(C)C(=O)C(C)C'
p5258
sg25
F-2.47
sg26
F0.02
sg7
(lp5259
g28
asg29
S'2,4-dimethylpentan-3-one'
p5260
sg12
I11271
sg13
F0.6
sg31
F-2.74
sg15
(lp5261
S'ketone'
p5262
asg36
g37
sg38
g39
ssS'mobley_8883511'
p5263
(dp5264
g3
S'Cc1ccccc1C=O'
p5265
sg476
F-4.64
sg477
F0.019
sg7
(lp5266
g28
asg480
S'2-methylbenzaldehyde'
p5267
sg12
I10722
sg482
g483
(g487
S'\x9a\x99\x99\x99\x99\x99\xb9?'
p5268
tp5269
Rp5270
sg493
g483
(g487
S'q=\n\xd7\xa3p\x0f\xc0'
p5271
tp5272
Rp5273
sg15
(lp5274
S'aldehyde'
p5275
aS'aromatic'
p5276
asg498
g499
sg500
g501
ssS'mobley_7732703'
p5277
(dp5278
g3
S'C(F)(F)(F)Br'
p5279
sg25
F2.03
sg26
F0.02
sg7
(lp5280
g28
asg29
S'bromo-trifluoro-methane'
p5281
sg12
I6384
sg13
F0.6
sg31
F1.79
sg15
(lp5282
S'halogen derivative'
p5283
asg36
g37
sg38
g39
ssS'mobley_3639400'
p5284
(dp5285
g3
S'CCCCCl'
p5286
sg25
F0.99
sg26
F0.02
sg7
(lp5287
g28
asg29
S'1-chlorobutane'
p5288
sg12
I8005
sg13
F0.6
sg31
F-0.16
sg15
(lp5289
S'alkyl chloride'
p5290
asg36
g37
sg38
g39
ssS'mobley_9185328'
p5291
(dp5292
g3
S'CCCN'
p5293
sg25
F-3.05
sg26
F0.02
sg7
(lp5294
g28
asg29
S'propan-1-amine'
p5295
sg12
I7852
sg13
F0.6
sg31
F-4.39
sg15
(lp5296
S'primary amine'
p5297
aS'primary aliphatic amine (alkylamine)'
p5298
asg36
g37
sg38
g39
ssS'mobley_3105103'
p5299
(dp5300
g3
S'Cc1c(c(=O)n(c(=O)[nH]1)C(C)(C)C)Cl'
p5301
sg179
F-13.33
sg180
F0.04
sg7
(lp5302
g28
asg182
S'terbacil'
p5303
sg12
I22188
sg184
F1.93
sg185
F-11.14
sg15
(lp5304
S'aryl chloride'
p5305
aS'oxo(het)arene'
p5306
aS'aromatic'
p5307
aS'heterocyclic'
p5308
asg188
g189
sg190
g191
ssS'mobley_8337977'
p5309
(dp5310
g3
S'CC(C)CC(=O)C'
p5311
sg25
F-2.96
sg26
F0.02
sg7
(lp5312
g28
asg29
S'4-methylpentan-2-one'
p5313
sg12
I7909
sg13
F0.6
sg31
F-3.05
sg15
(lp5314
S'ketone'
p5315
asg36
g37
sg38
g39
ssS'mobley_5347550'
p5316
(dp5317
g3
S'COC(C(Cl)Cl)(F)F'
p5318
sg25
F-0.71
sg26
F0.02
sg7
(lp5319
g28
asg29
S'2,2-dichloro-1,1-difluoro-1-methoxy-ethane'
p5320
sg12
I4116
sg13
F0.6
sg31
F-1.12
sg15
(lp5321
S'alkyl chloride'
p5322
aS'orthocarboxylic acid derivative'
p5323
asg36
g37
sg38
g39
ssS'mobley_1733799'
p5324
(dp5325
g3
S'c1cc(ccc1O)Br'
p5326
sg25
F-5.47
sg26
F0.02
sg7
(lp5327
g28
aS'Experimental value updated 10/22/13 from J. Peter Guthrie (University of Western Ontario) taken as a weighted average of the values -7.13 from a Cabani review, and -5.24 from experimental data from Parsons, Rochester, and Wood (see reference). The weighting gives preference to the latter since it gives source data.\n'
p5328
asg29
S'4-bromophenol'
p5329
sg12
I7808
sg13
F0.83
sg31
F-5.85
sg15
(lp5330
S'phenol or hydroxyhetarene'
p5331
aS'aryl bromide'
p5332
aS'aromatic'
p5333
asg36
S'10.1039/J29710000533 and 10.1007/BF00646936'
p5334
sg38
g39
ssS'mobley_5494918'
p5335
(dp5336
g3
S'C(=C(F)F)(C(F)(F)F)F'
p5337
sg25
F2.29
sg26
F0.02
sg12
I83439
sS'notes'
p5338
(lp5339
S'Updated correcting an error in the Rizzo/Mobley sets that had arisen from confusing the abbreviation HFP with hexafluoropropan-2-ol versus hexafluoropropene. Reference: Wilhelm, E., Battino, R., Wilcock, R. J., Chem. Rev. 1977, 77, 223-262.\n'
p5340
ag28
asg29
S'1,1,2,3,3,3-hexafluoroprop-1-ene'
p5341
sg36
S'10.1021/cr60306a003'
p5342
sg13
F0.6
sg31
F2.93
sg15
(lp5343
S'halogen derivative'
p5344
asg38
g39
ssS'mobley_7010316'
p5345
(dp5346
g3
S'C1CCC(CC1)O'
p5347
sg25
F-4.26
sg26
F0.02
sg7
(lp5348
g28
asg29
S'cyclohexanol'
p5349
sg12
I7966
sg13
F0.6
sg31
F-5.46
sg15
(lp5350
S'secondary alcohol'
p5351
asg36
g37
sg38
g39
ssS'mobley_8320545'
p5352
(dp5353
g3
S'CC[N+](=O)[O-]'
p5354
sg25
F-1.73
sg26
F0.02
sg7
(lp5355
g28
asg29
S'1-nitroethane'
p5356
sg12
I6587
sg13
F0.6
sg31
F-3.71
sg15
(lp5357
S'nitro'
p5358
asg36
g37
sg38
g39
ssS'mobley_3775790'
p5359
(dp5360
g3
S'Cn1cccc1'
p5361
sg25
F-2.59
sg26
F0.02
sg7
(lp5362
g28
asg29
S'1-methylpyrrole'
p5363
sg12
I7304
sg13
F0.6
sg31
F-2.89
sg15
(lp5364
S'aromatic'
p5365
aS'heterocyclic'
p5366
asg36
g37
sg38
g39
ssS'mobley_7157427'
p5367
(dp5368
g3
S'CCCCCCCCl'
p5369
sg25
F1.53
sg26
F0.03
sg7
(lp5370
g28
asg29
S'1-chloroheptane'
p5371
sg12
I12371
sg13
F0.6
sg31
F0.29
sg15
(lp5372
S'alkyl chloride'
p5373
asg36
g37
sg38
g39
ssS'mobley_2782339'
p5374
(dp5375
g3
S'c1ccc2c(c1)C(=O)NC2=O'
p5376
sg394
F-11.74
sg395
F0.05
sg7
(lp5377
g28
asg397
S'phthalimide'
p5378
sg12
I6809
sg399
F0.5
sg400
F-9.61
sg15
(lp5379
S'carboxylic acid imide, N-unsubstituted'
p5380
aS'aromatic'
p5381
aS'heterocyclic'
p5382
asg406
g407
sg408
g409
ssS'mobley_3715043'
p5383
(dp5384
g3
S'Cc1ccc(c2c1cccc2)C'
p5385
sg25
F-3.29
sg26
F0.03
sg7
(lp5386
g28
asg29
S'1,4-dimethylnaphthalene'
p5387
sg12
I11304
sg13
F0.6
sg31
F-2.82
sg15
(lp5388
S'aromatic'
p5389
asg36
g37
sg38
g39
ssS'mobley_5263791'
p5390
(dp5391
g3
S'CCc1cccc2c1cccc2'
p5392
sg25
F-3.0
sg26
F0.03
sg7
(lp5393
g28
asg29
S'1-ethylnaphthalene'
p5394
sg12
I14315
sg13
F0.6
sg31
F-2.4
sg15
(lp5395
S'aromatic'
p5396
asg36
g37
sg38
g39
ss.