(dp0
S'mobley_1323538'
p1
(dp2
S'smiles'
p3
S'CCOP(=O)(OCC)OCC'
p4
sS'expt_reference'
p5
S'10.1021/ct050097l'
p6
sS'd_calc'
p7
F0.1
sS'expt'
p8
F-7.5
sS'notes'
p9
(lp10
S'Experimental uncertainty not presently available, so assigned a default value.'
p11
asS'iupac'
p12
S'triethylphosphate'
p13
sS'd_expt'
p14
F0.6
sS'calc_reference'
p15
S'10.1021/jp0667442'
p16
sS'groups'
p17
(lp18
S''
p19
asS'calc'
p20
F-10.8
ssS'mobley_2661134'
p21
(dp22
g3
S'c1cc(cc(c1)O)C#N'
p23
sS'expt_reference'
p24
S'10.1021/jp0764384'
p25
sS'd_calc'
p26
F0.03
sS'expt'
p27
F-9.65
sg9
(lp28
g11
asS'iupac'
p29
S'3-hydroxybenzonitrile'
p30
sg14
F0.6
sS'calc_reference'
p31
S'10.1021/ct800409d'
p32
sg17
(lp33
S'phenol or hydroxyhetarene'
p34
aS'carbonitrile'
p35
aS'aromatic'
p36
asS'calc'
p37
F-6.99
ssS'mobley_6929123'
p38
(dp39
g3
S'COC(=O)CCl'
p40
sg24
g25
sg26
F0.02
sg27
F-4.0
sg9
(lp41
g11
asg29
S'methyl 2-chloroacetate'
p42
sg14
F0.6
sg31
g32
sg17
(lp43
S'alkyl chloride'
p44
aS'carboxylic acid ester'
p45
asg37
F-3.92
ssS'mobley_3395921'
p46
(dp47
g3
S'C1CCOCC1'
p48
sg24
g25
sg26
F0.02
sg27
F-3.12
sg9
(lp49
g11
asg29
S'tetrahydropyran'
p50
sg14
F0.6
sg31
g32
sg17
(lp51
S'dialkyl ether'
p52
aS'heterocyclic'
p53
asg37
F-1.78
ssS'mobley_5449201'
p54
(dp55
g3
S'CCCCC'
p56
sg5
g6
sg7
F0.1
sg8
F2.3
sg9
(lp57
g11
asg12
S'n-pentane'
p58
sg14
F0.6
sg15
g16
sg17
(lp59
S''
p60
asg20
F2.6
ssS'mobley_5631798'
p61
(dp62
g3
S'N'
p63
sg24
g25
sg26
F0.01
sg27
F-4.29
sg9
(lp64
g11
asg29
S'ammonia'
p65
sg14
F0.6
sg31
g32
sg17
(lp66
S''
p67
asg37
F-4.04
ssS'mobley_1674094'
p68
(dp69
g3
S'CCCCC#C'
p70
sg24
g25
sg26
F0.02
sg27
F0.29
sg9
(lp71
g11
asg29
S'hex-1-yne'
p72
sg14
F0.6
sg31
g32
sg17
(lp73
S'alkyne'
p74
asg37
F0.79
ssS'mobley_9838013'
p75
(dp76
g3
S'CCC(C)(C)O'
p77
sg24
g25
sg26
F0.03
sg27
F-4.43
sg9
(lp78
g11
asg29
S'2-methylbutan-2-ol'
p79
sg14
F0.6
sg31
g32
sg17
(lp80
S'tertiary alcohol'
p81
asg37
F-2.96
ssS'mobley_1735893'
p82
(dp83
g3
S'CCCCCC(=O)O'
p84
sg24
g25
sg26
F0.03
sg27
F-6.21
sg9
(lp85
g11
asg29
S'hexanoic acid'
p86
sg14
F0.6
sg31
g32
sg17
(lp87
S'carboxylic acid'
p88
asg37
F-5.08
ssS'mobley_2198613'
p89
(dp90
g3
S'CCCl'
p91
sg24
g25
sg26
F0.02
sg27
F-0.63
sg9
(lp92
g11
asg29
S'chloroethane'
p93
sg14
F0.6
sg31
g32
sg17
(lp94
S'alkyl chloride'
p95
asg37
F0.78
ssS'mobley_1449384'
p96
(dp97
g3
S'Cc1ccc(cc1)C(C)C'
p98
sg24
g25
sg26
F0.03
sg27
F-0.68
sg9
(lp99
g11
asg29
S'1-isopropyl-4-methyl-benzene'
p100
sg14
F0.6
sg31
g32
sg17
(lp101
S'aromatic'
p102
asg37
F0.2
ssS'mobley_3682850'
p103
(dp104
g3
S'C1CCC(=O)CC1'
p105
sg24
g25
sg26
F0.02
sg27
F-4.91
sg9
(lp106
g11
asg29
S'cyclohexanone'
p107
sg14
F0.6
sg31
g32
sg17
(lp108
S'ketone'
p109
asg37
F-3.84
ssS'mobley_3264884'
p110
(dp111
g3
S'c1ccc2cc(ccc2c1)N'
p112
sg24
g25
sg26
F0.03
sg27
F-7.47
sg9
(lp113
g11
asg29
S'naphthalen-2-amine'
p114
sg14
F0.6
sg31
g32
sg17
(lp115
S'primary amine'
p116
aS'primary aromatic amine'
p117
aS'aromatic'
p118
asg37
F-7.87
ssS'mobley_8614858'
p119
(dp120
g3
S'CCCCCCC'
p121
sg24
g25
sg26
F0.02
sg27
F2.67
sg9
(lp122
g11
asg29
S'heptane'
p123
sg14
F0.6
sg31
g32
sg17
(lp124
S''
p125
asg37
F3.2
ssS'mobley_4043987'
p126
(dp127
g3
S'CCCCC(C)C'
p128
sg24
g25
sg26
F0.03
sg27
F2.93
sg9
(lp129
g11
asg29
S'2-methylhexane'
p130
sg14
F0.6
sg31
g32
sg17
(lp131
S''
p132
asg37
F3.0
ssS'mobley_2864987'
p133
(dp134
g3
S'CCC[C@@H](C)O'
p135
sg24
g25
sg26
F0.02
sg27
F-4.39
sg9
(lp136
S'Renamed mobley_2864987 from pentan-2-ol to (2R)-pentan-2-ol (the name from the 3D structure) since the former did not completely specify stereochemistry.\n'
p137
asg29
S'pentan-2-ol'
p138
sg14
F0.6
sg31
g32
sg17
(lp139
S'secondary alcohol'
p140
asg37
F-2.87
ssS'mobley_859464'
p141
(dp142
g3
S'CC(C)COC(=O)C'
p143
sg24
g25
sg26
F0.02
sg27
F-2.36
sg9
(lp144
g11
asg29
S'isobutyl acetate'
p145
sg14
F0.6
sg31
g32
sg17
(lp146
S'carboxylic acid ester'
p147
asg37
F-2.8
ssS'mobley_3053621'
p148
(dp149
g3
S'c1ccccc1'
p150
sg5
g6
sg7
F0.1
sg8
F-0.9
sg9
(lp151
g11
asg12
S'benzene'
p152
sg14
F0.6
sg15
g16
sg17
(lp153
S'aromatic'
p154
asg20
F-0.6
ssS'mobley_1352110'
p155
(dp156
g3
S'CCCCN(CC)C(=O)SCCC'
p157
sS'expt_reference'
p158
S'10.1021/jp806724u'
p159
sS'd_calc'
p160
F0.04
sg9
(lp161
g11
asS'iupac'
p162
S'pebulate'
p163
sS'd_expt'
p164
F1.93
sS'expt'
p165
F-3.64
sg17
(lp166
S'cation'
p167
asS'calc'
p168
F-4.85
sS'calc_reference'
p169
S'10.1021/jp806838b'
p170
ssS'mobley_4291494'
p171
(dp172
g3
S'c1ccnc(c1)Cl'
p173
sg24
g25
sg26
F0.02
sg27
F-4.39
sg9
(lp174
g11
asg29
S'2-chloropyridine'
p175
sg14
F0.6
sg31
g32
sg17
(lp176
S'aryl chloride'
p177
aS'aromatic'
p178
aS'heterocyclic'
p179
asg37
F-3.36
ssS'mobley_2364370'
p180
(dp181
g3
S'CCCCOC(=O)C'
p182
sg24
g25
sg26
F0.02
sg27
F-2.64
sg9
(lp183
g11
asg29
S'butyl acetate'
p184
sg14
F0.6
sg31
g32
sg17
(lp185
S'carboxylic acid ester'
p186
asg37
F-3.17
ssS'mobley_1893815'
p187
(dp188
g3
S'C(C(Cl)(Cl)Cl)Cl'
p189
sS'expt_reference'
p190
S'10.1007/s10822-012-9568-8'
p191
sS'd_calc'
p192
F0.02
sg9
(lp193
g11
asS'iupac'
p194
S'1,1,1,2-tetrachloroethane'
p195
sS'd_expt'
p196
F0.1
sS'expt'
p197
F-1.43
sg17
(lp198
S'alkyl chloride'
p199
asS'calc'
p200
F-0.11
sS'calc_reference'
p201
S'10.1007/s10822-011-9528-8'
p202
ssS'mobley_5200358'
p203
(dp204
g3
S'CC(C)(/C=N\\OC(=O)NC)SC'
p205
sg158
g159
sg160
F0.05
sg9
(lp206
S'Renamed mobley_5200358 from aldicarb to [(Z)-(2-methyl-2-methylsulfanyl-propylidene)amino] N-methylcarbamate (the name from the 3D structure) since the former did not completely specify stereochemistry.\n'
p207
asg162
S'aldicarb'
p208
sg164
F0.1
sg165
F-9.84
sg17
(lp209
S'thioether'
p210
asg168
F-10.27
sg169
g170
ssS'mobley_9246215'
p211
(dp212
g3
S'C=CCC=C'
p213
sg24
g25
sg26
F0.02
sg27
F0.93
sg9
(lp214
g11
asg29
S'penta-1,4-diene'
p215
sg14
F0.6
sg31
g32
sg17
(lp216
S'alkene'
p217
asg37
F2.18
ssS'mobley_5110043'
p218
(dp219
g3
S'Cc1ccc2cc(ccc2c1)C'
p220
sg24
g25
sg26
F0.03
sg27
F-2.63
sg9
(lp221
g11
asg29
S'2,6-dimethylnaphthalene'
p222
sg14
F0.6
sg31
g32
sg17
(lp223
S'aromatic'
p224
asg37
F-2.65
ssS'mobley_6190089'
p225
(dp226
g3
S'C(C(Cl)Cl)(Cl)Cl'
p227
sg190
g191
sg192
F0.02
sg9
(lp228
g11
asg194
S'1,1,2,2-tetrachloroethane'
p229
sg196
F0.1
sg197
F-2.37
sg17
(lp230
S'alkyl chloride'
p231
asg200
F-0.53
sg201
g202
ssS'mobley_6266306'
p232
(dp233
g3
S'C1CNC1'
p234
sg24
g25
sg26
F0.02
sg27
F-5.56
sg9
(lp235
g11
asg29
S'azetidine'
p236
sg14
F0.6
sg31
g32
sg17
(lp237
S'secondary amine'
p238
aS'secondary aliphatic amine (dialkylamine)'
p239
aS'heterocyclic'
p240
asg37
F-3.41
ssS'mobley_2850833'
p241
(dp242
g3
S'c1ccc(c(c1)C=O)O'
p243
sS'expt_reference'
p244
S'SAMPL4_Guthrie'
p245
sS'd_calc'
p246
F0.018
sg9
(lp247
g11
asS'iupac'
p248
S'2-hydroxybenzaldehyde'
p249
sS'd_expt'
p250
cnumpy.core.multiarray
scalar
p251
(cnumpy
dtype
p252
(S'f8'
p253
I0
I1
tp254
Rp255
(I3
S'<'
p256
NNNI-1
I-1
I0
tp257
bS'\x9a\x99\x99\x99\x99\x99\xb9?'
p258
tp259
Rp260
sS'expt'
p261
g251
(g255
S'\xb8\x1e\x85\xebQ\xb8\x12\xc0'
p262
tp263
Rp264
sg17
(lp265
S'aldehyde'
p266
aS'phenol or hydroxyhetarene'
p267
aS'aromatic'
p268
asS'calc'
p269
F-4.89
sS'calc_reference'
p270
S'SAMPL4_Mobley'
p271
ssS'mobley_9246351'
p272
(dp273
g3
S'C(Br)Br'
p274
sg24
g25
sg26
F0.02
sg27
F-1.96
sg9
(lp275
g11
asg29
S'dibromomethane'
p276
sg14
F0.6
sg31
g32
sg17
(lp277
S'alkyl bromide'
p278
asg37
F0.87
ssS'mobley_8011706'
p279
(dp280
g3
S'CN(C)C=O'
p281
sg24
g25
sg26
F0.03
sg27
F-7.81
sg9
(lp282
g11
asg29
S'N,N-dimethylformamide'
p283
sg14
F0.6
sg31
g32
sg17
(lp284
S'cation'
p285
asg37
F-6.86
ssS'mobley_4924862'
p286
(dp287
g3
S'CC(C)CCOC=O'
p288
sg24
g25
sg26
F0.02
sg27
F-2.13
sg9
(lp289
g11
asg29
S'isopentyl formate'
p290
sg14
F0.6
sg31
g32
sg17
(lp291
S'carboxylic acid ester'
p292
asg37
F-3.39
ssS'mobley_9942801'
p293
(dp294
g3
S'CCc1ccc(cc1)C'
p295
sg24
g25
sg26
F0.02
sg27
F-0.95
sg9
(lp296
g11
asg29
S'1-ethyl-4-methyl-benzene'
p297
sg14
F0.6
sg31
g32
sg17
(lp298
S'aromatic'
p299
asg37
F-0.05
ssS'mobley_7578802'
p300
(dp301
g3
S'C(Br)(Br)Br'
p302
sg24
g25
sg26
F0.02
sg27
F-2.13
sg9
(lp303
g11
asg29
S'bromoform'
p304
sg14
F0.6
sg31
g32
sg17
(lp305
S'halogen derivative'
p306
asg37
F0.88
ssS'mobley_8861672'
p307
(dp308
g3
S'Cc1ccnc(c1)C'
p309
sg24
g25
sg26
F0.02
sg27
F-4.86
sg9
(lp310
g11
asg29
S'2,4-dimethylpyridine'
p311
sg14
F0.6
sg31
g32
sg17
(lp312
S'aromatic'
p313
aS'heterocyclic'
p314
asg37
F-3.18
ssS'mobley_194273'
p315
(dp316
g3
S'CC[C@H](C)n1c(=O)c(c([nH]c1=O)C)Br'
p317
sg158
g159
sg160
F0.04
sg9
(lp318
S'Renamed mobley_194273 from bromacil to 5-bromo-6-methyl-3-[(1S)-1-methylpropyl]-1H-pyrimidine-2,4-dione (the name from the 3D structure) since the former did not completely specify stereochemistry.\n'
p319
asg162
S'bromacil'
p320
sg164
F1.93
sg165
F-9.73
sg17
(lp321
S'aryl bromide'
p322
aS'oxo(het)arene'
p323
aS'aromatic'
p324
aS'heterocyclic'
p325
asg168
F-13.74
sg169
g170
ssS'mobley_1244778'
p326
(dp327
g3
S'C1CCCC(CC1)O'
p328
sg24
g25
sg26
F0.05
sg27
F-5.48
sg9
(lp329
g11
asg29
S'cycloheptanol'
p330
sg14
F0.6
sg31
g32
sg17
(lp331
S'secondary alcohol'
p332
asg37
F-4.15
ssS'mobley_468867'
p333
(dp334
g3
S'C1=C[C@@H]([C@@H]2[C@H]1[C@@]3(C(=C([C@]2(C3(Cl)Cl)Cl)Cl)Cl)Cl)Cl'
p335
sg158
g159
sg160
F0.03
sg9
(lp336
g11
asg162
S'heptachlor'
p337
sg164
F0.1
sg165
F-2.55
sg17
(lp338
S'alkyl chloride'
p339
aS'alkene'
p340
asg168
F-0.98
sg169
g170
ssS'mobley_8827942'
p341
(dp342
g3
S'c1ccc2c(c1)Oc3c(cc(c(c3O2)Cl)Cl)Cl'
p343
sg190
g191
sg192
F0.03
sg9
(lp344
g11
asg194
S'1,2,4-trichlorodibenzo-p-dioxin'
p345
sg196
F0.1
sg197
F-4.05
sg17
(lp346
S'diaryl ether'
p347
aS'aryl chloride'
p348
aS'aromatic'
p349
aS'heterocyclic'
p350
asg200
F-3.29
sg201
g202
ssS'mobley_3738859'
p351
(dp352
g3
S'CCCCCBr'
p353
sg5
g6
sg7
F0.1
sg8
F-0.1
sg9
(lp354
g11
asg12
S'1-bromo-pentane'
p355
sg14
F0.6
sg15
g16
sg17
(lp356
S'alkyl bromide'
p357
asg20
F1.5
ssS'mobley_5708811'
p358
(dp359
g3
S'COc1c(ccc(c1C(=O)O)Cl)Cl'
p360
sg158
g159
sg160
F0.04
sg9
(lp361
g11
asg162
S'dicamba'
p362
sg164
F1.93
sg165
F-9.86
sg17
(lp363
S'alkyl aryl ether'
p364
aS'aryl chloride'
p365
aS'carboxylic acid'
p366
aS'aromatic'
p367
asg168
F-8.13
sg169
g170
ssS'mobley_8427539'
p368
(dp369
g3
S'CCC(=O)N'
p370
sg5
g6
sg7
F0.1
sg8
F-9.4
sg9
(lp371
g11
asg12
S'propionamide'
p372
sg14
F0.6
sg15
g16
sg17
(lp373
S''
p374
asg20
F-9.3
ssS'mobley_1107178'
p375
(dp376
g3
S'CCI'
p377
sg24
g25
sg26
F0.02
sg27
F-0.74
sg9
(lp378
g11
asg29
S'iodoethane'
p379
sg14
F0.6
sg31
g32
sg17
(lp380
S'alkyl iodide'
p381
asg37
F-0.1
ssS'mobley_2789243'
p382
(dp383
g3
S'c1cc(cnc1)Cl'
p384
sg24
g25
sg26
F0.02
sg27
F-4.01
sg9
(lp385
g11
asg29
S'3-chloropyridine'
p386
sg14
F0.6
sg31
g32
sg17
(lp387
S'aryl chloride'
p388
aS'aromatic'
p389
aS'heterocyclic'
p390
asg37
F-2.5
ssS'mobley_2008055'
p391
(dp392
g3
S'CC'
p393
sg24
g25
sg26
F0.01
sg27
F1.83
sg9
(lp394
g11
asg29
S'ethane'
p395
sg14
F0.6
sg31
g32
sg17
(lp396
S''
p397
asg37
F2.58
ssS'mobley_1873346'
p398
(dp399
g3
S'Cc1ccccc1'
p400
sg5
g6
sg7
F0.1
sg8
F-0.9
sg9
(lp401
g11
asg12
S'toluene'
p402
sg14
F0.6
sg15
g16
sg17
(lp403
S'aromatic'
p404
asg20
F-0.7
ssS'mobley_7794077'
p405
(dp406
g3
S'c1c(c(=O)[nH]c(=O)[nH]1)C(F)(F)F'
p407
sS'expt_reference'
p408
S'10.1007/s10822-010-9350-8'
p409
sS'd_calc'
p410
F0.07
sg9
(lp411
g11
asS'iupac'
p412
S'5-trifluoromethyluracil'
p413
sS'd_expt'
p414
F0.16
sS'expt'
p415
F-15.46
sg17
(lp416
S'halogen derivative'
p417
aS'oxo(het)arene'
p418
aS'aromatic'
p419
aS'heterocyclic'
p420
asS'calc'
p421
F-17.17
sS'calc_reference'
p422
S'10.1007/s10822-010-9343-7'
p423
ssS'mobley_1849020'
p424
(dp425
g3
S'CCOP(=S)(OCC)SCSc1ccc(cc1)Cl'
p426
sg158
g159
sg160
F0.05
sg9
(lp427
g11
aS'Changed IUPAC name from carbophenothion to 4-chlorophenyl)sulfanylmethylsulfanyl-diethoxy-thioxo-$l^{5}-phosphane for better handling/standardization.'
p428
asg162
S'carbophenothion'
p429
sg164
F0.83
sg165
F-6.5
sg17
(lp430
S'aryl chloride'
p431
aS'aromatic'
p432
asg168
F-8.34
sg169
g170
ssS'mobley_8798016'
p433
(dp434
g3
S'c1cnccc1C=O'
p435
sg24
g25
sg26
F0.03
sg27
F-7.0
sg9
(lp436
g11
asg29
S'pyridine-4-carbaldehyde'
p437
sg14
F0.6
sg31
g32
sg17
(lp438
S'aldehyde'
p439
aS'aromatic'
p440
aS'heterocyclic'
p441
asg37
F-7.31
ssS'mobley_5157661'
p442
(dp443
g3
S'CC(C)C'
p444
sg5
g6
sg7
F0.1
sg8
F2.3
sg9
(lp445
g11
asg12
S'isobutane'
p446
sg14
F0.6
sg15
g16
sg17
(lp447
S''
p448
asg20
F2.7
ssS'mobley_6201330'
p449
(dp450
g3
S'CCCOC(=O)c1ccc(cc1)O'
p451
sg408
g409
sg410
F0.06
sg9
(lp452
g11
asg412
S'propyl paraben'
p453
sg414
F0.22
sg415
F-9.37
sg17
(lp454
S'phenol or hydroxyhetarene'
p455
aS'carboxylic acid ester'
p456
aS'aromatic'
p457
asg421
F-9.34
sg422
g423
ssS'mobley_4620651'
p458
(dp459
g3
S'COC(=O)C1CC1'
p460
sg24
g25
sg26
F0.04
sg27
F-4.1
sg9
(lp461
g11
asg29
S'methyl cyclopropanecarboxylate'
p462
sg14
F0.6
sg31
g32
sg17
(lp463
S'carboxylic acid ester'
p464
asg37
F-4.49
ssS'mobley_9717937'
p465
(dp466
g3
S'c1ccc(cc1)c2ccccc2Cl'
p467
sg190
g191
sg192
F0.03
sg9
(lp468
g11
asg194
S'1-chloro-2-phenyl-benzene'
p469
sg196
F0.1
sg197
F-2.69
sg17
(lp470
S'aryl chloride'
p471
aS'aromatic'
p472
asg200
F-2.42
sg201
g202
ssS'mobley_6861308'
p473
(dp474
g3
S'CN(C)C(=O)Nc1ccccc1'
p475
sg158
g159
sg160
F0.04
sg9
(lp476
g11
asg162
S'fenuron'
p477
sg164
F1.93
sg165
F-9.13
sg17
(lp478
S'cation'
p479
aS'aromatic'
p480
asg168
F-12.08
sg169
g170
ssS'mobley_1571523'
p481
(dp482
g3
S'Cc1cccc(c1C)O'
p483
sg24
g25
sg26
F0.03
sg27
F-6.16
sg9
(lp484
g11
asg29
S'2,3-dimethylphenol'
p485
sg14
F0.6
sg31
g32
sg17
(lp486
S'phenol or hydroxyhetarene'
p487
aS'aromatic'
p488
asg37
F-4.67
ssS'mobley_4630641'
p489
(dp490
g3
S'COCCOC'
p491
sg24
g25
sg26
F0.02
sg27
F-4.84
sg9
(lp492
g11
asg29
S'1,2-dimethoxyethane'
p493
sg14
F0.6
sg31
g32
sg17
(lp494
S'dialkyl ether'
p495
asg37
F-3.36
ssS'mobley_2636578'
p496
(dp497
g3
S'C(CON([O-])[O-])CON([O-])[O-]'
p498
sg244
g245
sg246
F0.02
sg9
(lp499
g11
asg248
S'1,3-bis-(nitrooxy)propane'
p500
sg250
g251
(g255
S'\xf6(\\\x8f\xc2\xf5\xd8?'
p501
tp502
Rp503
sg261
g251
(g255
S'333333\x13\xc0'
p504
tp505
Rp506
sg17
(lp507
S''
p508
asg269
F-5.53
sg270
g271
ssS'mobley_5571660'
p509
(dp510
g3
S'Cc1cccc(c1N)C'
p511
sg24
g25
sg26
F0.03
sg27
F-5.21
sg9
(lp512
g11
asg29
S'2,6-dimethylaniline'
p513
sg14
F0.6
sg31
g32
sg17
(lp514
S'primary amine'
p515
aS'primary aromatic amine'
p516
aS'aromatic'
p517
asg37
F-4.87
ssS'mobley_7690440'
p518
(dp519
g3
S'CSSC'
p520
sg24
g25
sg26
F0.02
sg27
F-1.83
sg9
(lp521
g11
asg29
S'methyldisulfanylmethane'
p522
sg14
F0.6
sg31
g32
sg17
(lp523
S'disulfide'
p524
asg37
F1.48
ssS'mobley_2523689'
p525
(dp526
g3
S'c1ccc(cc1)n2c(=O)c(c(cn2)N)Cl'
p527
sg158
g159
sg160
F0.04
sg9
(lp528
g11
aS'Changed IUPAC name from pyrazon to 5-Amino-4-chloro-2-phenylpyridazin-3(2H)-one for better handling/standardization.'
p529
asg162
S'pyrazon'
p530
sg164
F1.93
sg165
F-16.43
sg17
(lp531
S'primary amine'
p532
aS'primary aromatic amine'
p533
aS'aryl chloride'
p534
aS'oxo(het)arene'
p535
aS'aromatic'
p536
aS'heterocyclic'
p537
asg168
F-16.62
sg169
g170
ssS'mobley_8691603'
p538
(dp539
g3
S'Cc1cccc(c1)O'
p540
sg24
g25
sg26
F0.03
sg27
F-5.49
sg9
(lp541
g11
asg29
S'm-cresol'
p542
sg14
F0.6
sg31
g32
sg17
(lp543
S'phenol or hydroxyhetarene'
p544
aS'aromatic'
p545
asg37
F-5.28
ssS'mobley_2295058'
p546
(dp547
g3
S'COC(=O)c1ccc(cc1)O'
p548
sg408
g409
sg410
F0.05
sg9
(lp549
g11
asg412
S'methyl paraben'
p550
sg414
F0.26
sg415
F-9.51
sg17
(lp551
S'phenol or hydroxyhetarene'
p552
aS'carboxylic acid ester'
p553
aS'aromatic'
p554
asg421
F-9.94
sg422
g423
ssS'mobley_819018'
p555
(dp556
g3
S'CC(=CCC/C(=C/CO)/C)C'
p557
sg244
g245
sg246
F0.021
sg9
(lp558
g11
asg248
S'trans-3,7-Dimethylocta-2,6-dien-1-ol'
p559
sg250
g251
(g255
S'\xb8\x1e\x85\xebQ\xb8\xce?'
p560
tp561
Rp562
sg261
g251
(g255
S'\xcd\xcc\xcc\xcc\xcc\xcc\x11\xc0'
p563
tp564
Rp565
sg17
(lp566
S'primary alcohol'
p567
aS'alkene'
p568
asg269
F-2.54
sg270
g271
ssS'mobley_1976156'
p569
(dp570
g3
S'CCCCCCCCC=O'
p571
sg24
g25
sg26
F0.03
sg27
F-2.07
sg9
(lp572
g11
asg29
S'nonanal'
p573
sg14
F0.6
sg31
g32
sg17
(lp574
S'aldehyde'
p575
asg37
F-2.51
ssS'mobley_2197088'
p576
(dp577
g3
S'CCCCCCCCCC'
p578
sg24
g25
sg26
F0.03
sg27
F3.16
sg9
(lp579
g11
asg29
S'decane'
p580
sg14
F0.6
sg31
g32
sg17
(lp581
S''
p582
asg37
F3.43
ssS'mobley_627267'
p583
(dp584
g3
S'CC(C)CBr'
p585
sg24
g25
sg26
F0.02
sg27
F-0.03
sg9
(lp586
g11
asg29
S'1-bromo-2-methyl-propane'
p587
sg14
F0.6
sg31
g32
sg17
(lp588
S'alkyl bromide'
p589
asg37
F1.24
ssS'mobley_7415647'
p590
(dp591
g3
S'CN(C)C(=O)c1ccc(cc1)[N+](=O)[O-]'
p592
sg24
g25
sg26
F0.04
sg27
F-11.95
sg9
(lp593
g11
asg29
S'N,N-dimethyl-4-nitro-benzamide'
p594
sg14
F0.6
sg31
g32
sg17
(lp595
S'cation'
p596
aS'nitro'
p597
aS'aromatic'
p598
asg37
F-9.92
ssS'mobley_6812653'
p599
(dp600
g3
S'CCCCCC'
p601
sg24
g25
sg26
F0.02
sg27
F2.48
sg9
(lp602
g11
asg29
S'hexane'
p603
sg14
F0.6
sg31
g32
sg17
(lp604
S''
p605
asg37
F3.05
ssS'mobley_5052949'
p606
(dp607
g3
S'CCCSCCC'
p608
sg24
g25
sg26
F0.02
sg27
F-1.28
sg9
(lp609
g11
asg29
S'1-propylsulfanylpropane'
p610
sg14
F0.6
sg31
g32
sg17
(lp611
S'thioether'
p612
asg37
F0.49
ssS'mobley_3151666'
p613
(dp614
g3
S'CCCCCCCCCCO'
p615
sg24
g25
sg26
F0.03
sg27
F-3.64
sg9
(lp616
g11
asg29
S'decan-1-ol'
p617
sg14
F0.6
sg31
g32
sg17
(lp618
S'primary alcohol'
p619
asg37
F-2.49
ssS'mobley_1659169'
p620
(dp621
g3
S'C1COCCN1'
p622
sg24
g25
sg26
F0.02
sg27
F-7.17
sg9
(lp623
g11
asg29
S'morpholine'
p624
sg14
F0.6
sg31
g32
sg17
(lp625
S'dialkyl ether'
p626
aS'secondary amine'
p627
aS'secondary aliphatic amine (dialkylamine)'
p628
aS'heterocyclic'
p629
asg37
F-6.28
ssS'mobley_9534740'
p630
(dp631
g3
S'C([C@@H]1[C@H]([C@@H]([C@H]([C@@H](O1)O)O)O)O)O'
p632
sg408
g409
sg410
F0.09
sg9
(lp633
g11
aS'Changed IUPAC name from d-glucose to (2R,3R,4S,5S,6R)-6-(hydroxymethyl)tetrahydropyran-2,3,4,5-tetrol for better handling/standardization.'
p634
asg412
S'd-glucose'
p635
sg414
F0.22
sg415
F-25.47
sg17
(lp636
S'hemiacetal'
p637
aS'primary alcohol'
p638
aS'secondary alcohol'
p639
aS'1,2-diol'
p640
aS'heterocyclic'
p641
asg421
F-17.01
sg422
g423
ssS'mobley_994483'
p642
(dp643
g3
S'CCBr'
p644
sg24
g25
sg26
F0.02
sg27
F-0.74
sg9
(lp645
g11
asg29
S'bromoethane'
p646
sg14
F0.6
sg31
g32
sg17
(lp647
S'alkyl bromide'
p648
asg37
F0.93
ssS'mobley_1189457'
p649
(dp650
g3
S'CSc1ccccc1'
p651
sg24
g25
sg26
F0.02
sg27
F-2.73
sg9
(lp652
g11
asg29
S'methylsulfanylbenzene'
p653
sg14
F0.6
sg31
g32
sg17
(lp654
S'thioether'
p655
aS'aromatic'
p656
asg37
F-1.21
ssS'mobley_8260524'
p657
(dp658
g3
S'CC#C'
p659
sg24
g25
sg26
F0.01
sg27
F-0.48
sg9
(lp660
g11
asg29
S'prop-1-yne'
p661
sg14
F0.6
sg31
g32
sg17
(lp662
S'alkyne'
p663
asg37
F0.2
ssS'mobley_646007'
p664
(dp665
g3
S'C1CCNC1'
p666
sg24
g25
sg26
F0.02
sg27
F-5.48
sg9
(lp667
g11
asg29
S'pyrrolidine'
p668
sg14
F0.6
sg31
g32
sg17
(lp669
S'secondary amine'
p670
aS'secondary aliphatic amine (dialkylamine)'
p671
aS'heterocyclic'
p672
asg37
F-3.91
ssS'mobley_8436428'
p673
(dp674
g3
S'CC(C)CC(C)C'
p675
sg24
g25
sg26
F0.03
sg27
F2.83
sg9
(lp676
g11
asg29
S'2,4-dimethylpentane'
p677
sg14
F0.6
sg31
g32
sg17
(lp678
S''
p679
asg37
F2.89
ssS'mobley_6804509'
p680
(dp681
g3
S'c1c(c(cc(c1Cl)Cl)Cl)Cl'
p682
sg24
g25
sg26
F0.02
sg27
F-1.34
sg9
(lp683
g11
asg29
S'1,2,4,5-tetrachlorobenzene'
p684
sg14
F0.6
sg31
g32
sg17
(lp685
S'aryl chloride'
p686
aS'aromatic'
p687
asg37
F0.25
ssS'mobley_1922649'
p688
(dp689
g3
S'COP(=S)(OC)Oc1ccc(cc1)[N+](=O)[O-]'
p690
sg158
g159
sg160
F0.04
sg9
(lp691
g11
aS'Changed IUPAC name from methyparathion to methylparathion for better handling/standardization.'
p692
asg162
S'methyparathion'
p693
sg164
F0.1
sg165
F-7.19
sg17
(lp694
S'nitro'
p695
aS'aromatic'
p696
asg168
F-9.87
sg169
g170
ssS'mobley_632905'
p697
(dp698
g3
S'CC(=O)c1ccc(cc1)OC'
p699
sg24
g25
sg26
F0.03
sg27
F-4.4
sg9
(lp700
g11
asg29
S'1-(4-methoxyphenyl)ethanone'
p701
sg14
F0.6
sg31
g32
sg17
(lp702
S'ketone'
p703
aS'alkyl aryl ether'
p704
aS'aromatic'
p705
asg37
F-6.29
ssS'mobley_5346580'
p706
(dp707
g3
S'CC(=O)C(C)(C)C'
p708
sg24
g25
sg26
F0.02
sg27
F-3.11
sg9
(lp709
g11
asg29
S'3,3-dimethylbutan-2-one'
p710
sg14
F0.6
sg31
g32
sg17
(lp711
S'ketone'
p712
asg37
F-2.91
ssS'mobley_4683624'
p713
(dp714
g3
S'CCCc1ccc(cc1)O'
p715
sg24
S'10.1021/je00018a020 and Terres, E., Gebert, F., Hulsemann, H., Petereit, H., Toepsch, H., Ruppert, W., Brennstoff-Chemie 1955, 36, 272-274'
p716
sg26
F0.02
sg27
g251
(g255
S'\xd7\xa3p=\n\xd7\x14\xc0'
p717
tp718
Rp719
sg9
(lp720
g11
aS'Experimental value updated 10/22/13 as the average of -5.90 and -4.52, which are measured experimental values from Varhanickova, D., Shiu, W., Mackay, D., J. Chem. Eng. Data 1995, 40, 448-451 and Terres, E., Gebert, F., Hulsemann, H., Petereit, H., Toepsch, H., Ruppert, W., Brennstoff-Chemie 1955, 36, 272-274., respectively. The uncertainty was taken as the standard deviation across these two measurements.\n'
p721
asg29
S'4-propylphenol'
p722
sg14
F0.69
sg31
g32
sg17
(lp723
S'phenol or hydroxyhetarene'
p724
aS'aromatic'
p725
asg37
F-5.5
ssS'mobley_6619554'
p726
(dp727
g3
S'CCCCC(=O)OCC'
p728
sg24
g25
sg26
F0.03
sg27
F-2.49
sg9
(lp729
g11
asg29
S'ethyl pentanoate'
p730
sg14
F0.6
sg31
g32
sg17
(lp731
S'carboxylic acid ester'
p732
asg37
F-3.09
ssS'mobley_486214'
p733
(dp734
g3
S'COc1cccc(c1O)OC'
p735
sg244
g245
sg246
F0.022
sg9
(lp736
g11
asg248
S'2,6-dimethoxyphenol'
p737
sg250
g251
(g255
S'\x9a\x99\x99\x99\x99\x99\xb9?'
p738
tp739
Rp740
sg261
g251
(g255
S'\xd7\xa3p=\n\xd7\x1b\xc0'
p741
tp742
Rp743
sg17
(lp744
S'phenol or hydroxyhetarene'
p745
aS'alkyl aryl ether'
p746
aS'aromatic'
p747
asg269
F-7.05
sg270
g271
ssS'mobley_8426916'
p748
(dp749
g3
S'CCNCC'
p750
sg24
g25
sg26
F0.02
sg27
F-4.07
sg9
(lp751
g11
asg29
S'N-ethylethanamine'
p752
sg14
F0.6
sg31
g32
sg17
(lp753
S'secondary amine'
p754
aS'secondary aliphatic amine (dialkylamine)'
p755
asg37
F-2.72
ssS'mobley_550662'
p756
(dp757
g3
S'CC(OC)(OC)OC'
p758
sg24
g25
sg26
F0.02
sg27
F-4.42
sg9
(lp759
g11
asg29
S'1,1,1-trimethoxyethane'
p760
sg14
F0.6
sg31
g32
sg17
(lp761
S'orthocarboxylic acid derivative'
p762
aS'orthoester'
p763
asg37
F-3.89
ssS'mobley_755351'
p764
(dp765
g3
S'COc1cccc(c1)N'
p766
sg24
g25
sg26
F0.03
sg27
F-7.29
sg9
(lp767
g11
asg29
S'3-methoxyaniline'
p768
sg14
F0.6
sg31
g32
sg17
(lp769
S'alkyl aryl ether'
p770
aS'primary amine'
p771
aS'primary aromatic amine'
p772
aS'aromatic'
p773
asg37
F-7.45
ssS'mobley_2751110'
p774
(dp775
g3
S'c1cc(ccc1[N+](=O)[O-])O'
p776
sg24
g25
sg26
F0.02
sg27
F-10.64
sg9
(lp777
g11
asg29
S'4-nitrophenol'
p778
sg14
F0.6
sg31
g32
sg17
(lp779
S'phenol or hydroxyhetarene'
p780
aS'nitro'
p781
aS'aromatic'
p782
asg37
F-8.22
ssS'mobley_5977084'
p783
(dp784
g3
S'Cc1cccnc1'
p785
sg24
g25
sg26
F0.02
sg27
F-4.77
sg9
(lp786
g11
asg29
S'3-methylpyridine'
p787
sg14
F0.6
sg31
g32
sg17
(lp788
S'aromatic'
p789
aS'heterocyclic'
p790
asg37
F-3.19
ssS'mobley_7009711'
p791
(dp792
g3
S'Cc1cc(cc(c1)O)C'
p793
sg24
g25
sg26
F0.03
sg27
F-6.27
sg9
(lp794
g11
asg29
S'3,5-dimethylphenol'
p795
sg14
F0.6
sg31
g32
sg17
(lp796
S'phenol or hydroxyhetarene'
p797
aS'aromatic'
p798
asg37
F-5.12
ssS'mobley_5816127'
p799
(dp800
g3
S'COCCO'
p801
sg24
S'10.1007/BF00646936 and 10.1136/oem.45.8.561'
p802
sg26
F0.03
sg27
g251
(g255
S'z\x14\xaeG\xe1z\x1a\xc0'
p803
tp804
Rp805
sg9
(lp806
g11
aS'Updated 10/22/13 using the mean of experimental data from two sources listed as experimental references.\n'
p807
asg29
S'2-methoxyethanol'
p808
sg14
F0.4
sg31
g32
sg17
(lp809
S'primary alcohol'
p810
aS'dialkyl ether'
p811
asg37
F-5.37
ssS'mobley_6257907'
p812
(dp813
g3
S'c1cc(cc(c1)Cl)N'
p814
sg24
g25
sg26
F0.02
sg27
F-5.82
sg9
(lp815
g11
asg29
S'3-chloroaniline'
p816
sg14
F0.6
sg31
g32
sg17
(lp817
S'primary amine'
p818
aS'primary aromatic amine'
p819
aS'aryl chloride'
p820
aS'aromatic'
p821
asg37
F-5.37
ssS'mobley_1963873'
p822
(dp823
g3
S'CC(=O)NC'
p824
sg24
g25
sg26
F0.03
sg27
F-10.0
sg9
(lp825
g11
asg29
S'N-methylacetamide'
p826
sg14
F0.6
sg31
g32
sg17
(lp827
S''
p828
asg37
F-8.39
ssS'mobley_7015518'
p829
(dp830
g3
S'COC'
p831
sg24
g25
sg26
F0.02
sg27
F-1.91
sg9
(lp832
g11
asg29
S'methoxymethane'
p833
sg14
F0.6
sg31
g32
sg17
(lp834
S'dialkyl ether'
p835
asg37
F-0.85
ssS'mobley_6195751'
p836
(dp837
g3
S'COc1c(c(c(c(c1Cl)C=O)Cl)OC)O'
p838
sg244
g245
sg246
F0.024
sg9
(lp839
g11
asg248
S'2,6-dichlorosyringaldehyde'
p840
sg250
g251
(g255
S'R\xb8\x1e\x85\xebQ\xe8?'
p841
tp842
Rp843
sg261
g251
(g255
S'{\x14\xaeG\xe1z \xc0'
p844
tp845
Rp846
sg17
(lp847
S'aldehyde'
p848
aS'phenol or hydroxyhetarene'
p849
aS'alkyl aryl ether'
p850
aS'aryl chloride'
p851
aS'aromatic'
p852
asg269
F-9.94
sg270
g271
ssS'mobley_5390332'
p853
(dp854
g3
S'CCCC(=O)OC'
p855
sg24
g25
sg26
F0.02
sg27
F-2.83
sg9
(lp856
g11
asg29
S'methyl butanoate'
p857
sg14
F0.6
sg31
g32
sg17
(lp858
S'carboxylic acid ester'
p859
asg37
F-3.32
ssS'mobley_1017962'
p860
(dp861
g3
S'CCCCCC(=O)OC'
p862
sg24
g25
sg26
F0.03
sg27
F-2.49
sg9
(lp863
g11
asg29
S'methyl hexanoate'
p864
sg14
F0.6
sg31
g32
sg17
(lp865
S'carboxylic acid ester'
p866
asg37
F-3.02
ssS'mobley_5538249'
p867
(dp868
g3
S'c1ccc(cc1)c2c(cc(cc2Cl)Cl)Cl'
p869
sg190
g191
sg192
F0.03
sg9
(lp870
g11
asg194
S'1,3,5-trichloro-2-phenyl-benzene'
p871
sg196
F0.1
sg197
F-2.16
sg17
(lp872
S'aryl chloride'
p873
aS'aromatic'
p874
asg200
F-1.14
sg201
g202
ssS'mobley_9741965'
p875
(dp876
g3
S'C[C@@H](CCON([O-])[O-])ON([O-])[O-]'
p877
sg244
g245
sg246
F0.021
sg9
(lp878
g11
asg248
S'1,3-bis-(nitrooxy)butane'
p879
sg250
g251
(g255
S'\xf6(\\\x8f\xc2\xf5\xd8?'
p880
tp881
Rp882
sg261
g251
(g255
S')\\\x8f\xc2\xf5(\x11\xc0'
p883
tp884
Rp885
sg17
(lp886
S''
p887
asg269
F-5.35
sg270
g271
ssS'mobley_5616693'
p888
(dp889
g3
S'C[C@@H]1CC[C@H](C(=O)C1)C(C)C'
p890
sg244
g245
sg246
F0.021
sg9
(lp891
g11
asg248
S'(2S,5R)-2-isopropyl-5-methylcyclohexanone'
p892
sg250
F0.25
sg261
F-2.53
sg17
(lp893
S'ketone'
p894
asg269
F-3.42
sg270
g271
ssS'mobley_9114381'
p895
(dp896
g3
S'COC(=O)CC#N'
p897
sg24
g25
sg26
F0.02
sg27
F-6.72
sg9
(lp898
g11
asg29
S'methyl 2-cyanoacetate'
p899
sg14
F0.6
sg31
g32
sg17
(lp900
S'carboxylic acid ester'
p901
aS'carbonitrile'
p902
asg37
F-6.34
ssS'mobley_9209581'
p903
(dp904
g3
S'CN(C)C'
p905
sg24
g25
sg26
F0.02
sg27
F-3.2
sg9
(lp906
g11
asg29
S'N,N-dimethylmethanamine'
p907
sg14
F0.6
sg31
g32
sg17
(lp908
S'tertiary amine'
p909
aS'tertiary aliphatic amine (trialkylamine)'
p910
asg37
F-2.32
ssS'mobley_1160109'
p911
(dp912
g3
S'C[C@@H]1CC[C@H](CC1=O)C(=C)C'
p913
sg244
g245
sg246
F0.021
sg9
(lp914
g11
asg248
S'(2R,5R)-2-methyl-5-(1-methylethenyl)-cyclohexanone'
p915
sg250
F0.21
sg261
F-3.75
sg17
(lp916
S'ketone'
p917
aS'alkene'
p918
asg269
F-3.31
sg270
g271
ssS'mobley_3515580'
p919
(dp920
g3
S'COc1ccccc1O'
p921
sg244
g245
sg246
F0.018
sg9
(lp922
g11
asg248
S'2-methoxyphenol'
p923
sg250
g251
(g255
S'\x9a\x99\x99\x99\x99\x99\xb9?'
p924
tp925
Rp926
sg261
g251
(g255
S'\xc3\xf5(\\\x8f\xc2\x17\xc0'
p927
tp928
Rp929
sg17
(lp930
S'phenol or hydroxyhetarene'
p931
aS'alkyl aryl ether'
p932
aS'aromatic'
p933
asg269
F-4.62
sg270
g271
ssS'mobley_2023925'
p934
(dp935
g3
S'[C@@H](C(F)(F)F)(OC(F)F)Cl'
p936
sg24
g25
sg26
F0.02
sg27
F0.1
sg9
(lp937
S'Renamed mobley_2023925 from 2-chloro-2-(difluoromethoxy)-1,1,1-trifluoro-ethane to (2R)-2-chloro-2-(difluoromethoxy)-1,1,1-trifluoro-ethane (the name from the 3D structure) since the former did not completely specify stereochemistry.\n'
p938
asg29
S'2-chloro-2-(difluoromethoxy)-1,1,1-trifluoro-ethane'
p939
sg14
F0.6
sg31
g32
sg17
(lp940
S'alkyl chloride'
p941
aS'orthocarboxylic acid derivative'
p942
asg37
F-1.38
ssS'mobley_2771569'
p943
(dp944
g3
S'CN1CCNCC1'
p945
sg24
g25
sg26
F0.03
sg27
F-7.77
sg9
(lp946
g11
asg29
S'1-methylpiperazine'
p947
sg14
F0.6
sg31
g32
sg17
(lp948
S'secondary amine'
p949
aS'secondary aliphatic amine (dialkylamine)'
p950
aS'tertiary amine'
p951
aS'tertiary aliphatic amine (trialkylamine)'
p952
aS'heterocyclic'
p953
asg37
F-8.3
ssS'mobley_8785107'
p954
(dp955
g3
S'C[C@H]1CC[C@@H](O1)C'
p956
sg24
g25
sg26
F0.02
sg27
F-2.92
sg9
(lp957
S'Renamed mobley_8785107 from 2,5-dimethyltetrahydrofuran to (2S,5S)-2,5-dimethyltetrahydrofuran (the name from the 3D structure) since the former did not completely specify stereochemistry.\n'
p958
asg29
S'2,5-dimethyltetrahydrofuran'
p959
sg14
F0.6
sg31
g32
sg17
(lp960
S'dialkyl ether'
p961
aS'heterocyclic'
p962
asg37
F-1.89
ssS'mobley_2881590'
p963
(dp964
g3
S'CC(C)CO[N+](=O)[O-]'
p965
sg158
g159
sg160
F0.03
sg9
(lp966
g11
asg162
S'isobutyl nitrate'
p967
sg164
F0.1
sg165
F-1.88
sg17
(lp968
S'nitrate'
p969
asg168
F-1.72
sg169
g170
ssS'mobley_313406'
p970
(dp971
g3
S'CCCO'
p972
sg24
g25
sg26
F0.02
sg27
F-4.85
sg9
(lp973
g11
asg29
S'propan-1-ol'
p974
sg14
F0.6
sg31
g32
sg17
(lp975
S'primary alcohol'
p976
asg37
F-3.12
ssS'mobley_3274817'
p977
(dp978
g3
S'CC[C@@H](C)c1cc(cc(c1O)[N+](=O)[O-])[N+](=O)[O-]'
p979
sg158
g159
sg160
F0.04
sg9
(lp980
g11
aS'Changed IUPAC name from dinoseb to 2-[(1R)-1-methylpropyl]-4,6-dinitro-phenolate for better handling/standardization.'
p981
asg162
S'dinoseb'
p982
sg164
F1.93
sg165
F-6.23
sg17
(lp983
S'phenol or hydroxyhetarene'
p984
aS'nitro'
p985
aS'aromatic'
p986
asg168
F-5.76
sg169
g170
ssS'mobley_9979854'
p987
(dp988
g3
S'C[C@H](C(F)(F)F)O'
p989
sg5
g6
sg7
F0.1
sg8
F-4.2
sg9
(lp990
S'Renamed mobley_9979854 from 1,1,1-trifluoropropan-2-ol to (2R)-1,1,1-trifluoropropan-2-ol (the name from the 3D structure) since the former did not completely specify stereochemistry.\n'
p991
asg12
S'111-trifluoropropan-2-ol'
p992
sg14
F0.6
sg15
g16
sg17
(lp993
S'secondary alcohol'
p994
aS'halogen derivative'
p995
asg20
F-3.8
ssS'mobley_2126135'
p996
(dp997
g3
S'CCc1ccccc1O'
p998
sg244
g245
sg246
F0.019
sg9
(lp999
g11
asg248
S'2-ethylphenol'
p1000
sg250
g251
(g255
S'\x9a\x99\x99\x99\x99\x99\xb9?'
p1001
tp1002
Rp1003
sg261
g251
(g255
S'\xa4p=\n\xd7\xa3\x16\xc0'
p1004
tp1005
Rp1006
sg17
(lp1007
S'phenol or hydroxyhetarene'
p1008
aS'aromatic'
p1009
asg269
F-4.7
sg270
g271
ssS'mobley_6743808'
p1010
(dp1011
g3
S'Cc1ccc(cc1C)O'
p1012
sg24
g25
sg26
F0.03
sg27
F-6.5
sg9
(lp1013
g11
asg29
S'3,4-dimethylphenol'
p1014
sg14
F0.6
sg31
g32
sg17
(lp1015
S'phenol or hydroxyhetarene'
p1016
aS'aromatic'
p1017
asg37
F-5.33
ssS'mobley_2493732'
p1018
(dp1019
g3
S'C=C(Cl)Cl'
p1020
sg24
g25
sg26
F0.02
sg27
F0.25
sg9
(lp1021
g11
asg29
S'1,1-dichloroethylene'
p1022
sg14
F0.6
sg31
g32
sg17
(lp1023
S'ketene acetal or derivative'
p1024
aS'halogen derivative'
p1025
asg37
F1.24
ssS'mobley_9407874'
p1026
(dp1027
g3
S'CCCCCCC(=O)C'
p1028
sg24
g25
sg26
F0.03
sg27
F-2.88
sg9
(lp1029
g11
asg29
S'octan-2-one'
p1030
sg14
F0.6
sg31
g32
sg17
(lp1031
S'ketone'
p1032
asg37
F-2.3
ssS'mobley_7142697'
p1033
(dp1034
g3
S'CCCCCN'
p1035
sg24
g25
sg26
F0.02
sg27
F-4.09
sg9
(lp1036
g11
asg29
S'pentan-1-amine'
p1037
sg14
F0.6
sg31
g32
sg17
(lp1038
S'primary amine'
p1039
aS'primary aliphatic amine (alkylamine)'
p1040
asg37
F-2.99
ssS'mobley_1896013'
p1041
(dp1042
g3
S'C1[C@H]([C@@H]([C@H]([C@H](O1)O)O)O)O'
p1043
sg408
g409
sg410
F0.1
sg9
(lp1044
g11
aS'Changed IUPAC name from d-xylose to (2S,3R,4S,5R)-oxane-2,3,4,5-tetrol for better handling/standardization.'
p1045
asg412
S'd-xylose'
p1046
sg414
F0.27
sg415
F-20.52
sg17
(lp1047
S'hemiacetal'
p1048
aS'secondary alcohol'
p1049
aS'1,2-diol'
p1050
aS'heterocyclic'
p1051
asg421
F-13.7
sg422
g423
ssS'mobley_49274'
p1052
(dp1053
g3
S'CCCCCC#C'
p1054
sg24
g25
sg26
F0.02
sg27
F0.6
sg9
(lp1055
g11
asg29
S'hept-1-yne'
p1056
sg14
F0.6
sg31
g32
sg17
(lp1057
S'alkyne'
p1058
asg37
F0.84
ssS'mobley_5123639'
p1059
(dp1060
g3
S'C[C@H](CC(C)C)O'
p1061
sg24
g25
sg26
F0.02
sg27
F-3.73
sg9
(lp1062
g11
asg29
S'4-methylpentan-2-ol'
p1063
sg14
F0.6
sg31
g32
sg17
(lp1064
S'secondary alcohol'
p1065
asg37
F-2.75
ssS'mobley_4694328'
p1066
(dp1067
g3
S'CCCCCCCC=O'
p1068
sg24
g25
sg26
F0.03
sg27
F-2.29
sg9
(lp1069
g11
asg29
S'octanal'
p1070
sg14
F0.6
sg31
g32
sg17
(lp1071
S'aldehyde'
p1072
asg37
F-2.57
ssS'mobley_7913234'
p1073
(dp1074
g3
S'CCCCOC[C@H](C)O'
p1075
sg244
g245
sg246
F0.023
sg9
(lp1076
S'Renamed mobley_7913234 from 1-butoxy-2-propanol to (2S)-1-butoxypropan-2-ol (the name from the 3D structure) since the former did not completely specify stereochemistry.\n'
p1077
asg248
S'1-butoxy-2-propanol'
p1078
sg250
g251
(g255
S'333333\xc3?'
p1079
tp1080
Rp1081
sg261
g251
(g255
S'\xecQ\xb8\x1e\x85\xeb\x16\xc0'
p1082
tp1083
Rp1084
sg17
(lp1085
S'secondary alcohol'
p1086
aS'dialkyl ether'
p1087
asg269
F-3.78
sg270
g271
ssS'mobley_1178614'
p1088
(dp1089
g3
S'c1ccc(c(c1)O)Cl'
p1090
sg24
g25
sg26
F0.03
sg27
F-4.55
sg9
(lp1091
g11
asg29
S'2-chlorophenol'
p1092
sg14
F0.6
sg31
g32
sg17
(lp1093
S'phenol or hydroxyhetarene'
p1094
aS'aryl chloride'
p1095
aS'aromatic'
p1096
asg37
F-3.23
ssS'mobley_951560'
p1097
(dp1098
g3
S'C1CNCCN1'
p1099
sg24
g25
sg26
F0.03
sg27
F-7.4
sg9
(lp1100
g11
asg29
S'piperazine'
p1101
sg14
F0.6
sg31
g32
sg17
(lp1102
S'secondary amine'
p1103
aS'secondary aliphatic amine (dialkylamine)'
p1104
aS'heterocyclic'
p1105
asg37
F-8.34
ssS'mobley_3211679'
p1106
(dp1107
g3
S'C1CCC=CC1'
p1108
sg244
g245
sg246
F0.017
sg9
(lp1109
g11
asg248
S'cyclohexene'
p1110
sg250
g251
(g255
S'\x9a\x99\x99\x99\x99\x99\xb9?'
p1111
tp1112
Rp1113
sg261
g251
(g255
S'\xecQ\xb8\x1e\x85\xeb\xc1?'
p1114
tp1115
Rp1116
sg17
(lp1117
S'alkene'
p1118
asg269
F1.14
sg270
g271
ssS'mobley_6359156'
p1119
(dp1120
g3
S'c1ccc(cc1)c2cc(ccc2Cl)Cl'
p1121
sg190
g191
sg192
F0.03
sg9
(lp1122
g11
asg194
S'1,4-dichloro-2-phenyl-benzene'
p1123
sg196
F0.1
sg197
F-2.46
sg17
(lp1124
S'aryl chloride'
p1125
aS'aromatic'
p1126
asg200
F-1.77
sg201
g202
ssS'mobley_3234716'
p1127
(dp1128
g3
S'Cc1ccc(cc1)C'
p1129
sg24
g25
sg26
F0.02
sg27
F-0.8
sg9
(lp1130
g11
asg29
S'p-xylene'
p1131
sg14
F0.6
sg31
g32
sg17
(lp1132
S'aromatic'
p1133
asg37
F-0.67
ssS'mobley_5286200'
p1134
(dp1135
g3
S'C(CCCl)CCl'
p1136
sg24
g25
sg26
F0.02
sg27
F-2.32
sg9
(lp1137
g11
asg29
S'1,4-dichlorobutane'
p1138
sg14
F0.6
sg31
g32
sg17
(lp1139
S'alkyl chloride'
p1140
asg37
F-0.27
ssS'mobley_7988076'
p1141
(dp1142
g3
S'c1cc(ccc1C=O)O'
p1143
sg24
g25
sg26
F0.03
sg27
F-8.83
sg9
(lp1144
g11
asg29
S'4-hydroxybenzaldehyde'
p1145
sg14
F0.6
sg31
g32
sg17
(lp1146
S'aldehyde'
p1147
aS'phenol or hydroxyhetarene'
p1148
aS'aromatic'
p1149
asg37
F-10.0
ssS'mobley_6854178'
p1150
(dp1151
g3
S'CC(C)OC=O'
p1152
sg24
g25
sg26
F0.02
sg27
F-2.02
sg9
(lp1153
g11
asg29
S'isopropyl formate'
p1154
sg14
F0.6
sg31
g32
sg17
(lp1155
S'carboxylic acid ester'
p1156
asg37
F-2.64
ssS'mobley_9617923'
p1157
(dp1158
g3
S'CCCCCCCCC(=O)C'
p1159
sg24
g25
sg26
F0.03
sg27
F-2.34
sg9
(lp1160
g11
asg29
S'decan-2-one'
p1161
sg14
F0.6
sg31
g32
sg17
(lp1162
S'ketone'
p1163
asg37
F-1.98
ssS'mobley_2402487'
p1164
(dp1165
g3
S'CCOC(=O)CC(=O)OCC'
p1166
sg24
g25
sg26
F0.04
sg27
F-6.0
sg9
(lp1167
g11
asg29
S'diethyl propanedioate'
p1168
sg14
F0.6
sg31
g32
sg17
(lp1169
S'carboxylic acid ester'
p1170
asg37
F-6.45
ssS'mobley_1235151'
p1171
(dp1172
g3
S'CCCCC[N+](=O)[O-]'
p1173
sg24
g25
sg26
F0.02
sg27
F-2.82
sg9
(lp1174
g11
asg29
S'1-nitropentane'
p1175
sg14
F0.6
sg31
g32
sg17
(lp1176
S'nitro'
p1177
asg37
F-1.29
ssS'mobley_2689721'
p1178
(dp1179
g3
S'C1CCCCC1'
p1180
sg24
g25
sg26
F0.02
sg27
F1.23
sg9
(lp1181
g11
asg29
S'cyclohexane'
p1182
sg14
F0.6
sg31
g32
sg17
(lp1183
S''
p1184
asg37
F1.67
ssS'mobley_4613090'
p1185
(dp1186
g3
S'c1ccc(cc1)Cn2ccnc2'
p1187
sg244
g245
sg246
F0.022
sg9
(lp1188
g11
asg248
S'1-benzylimidazole'
p1189
sg250
g251
(g255
S'\xb8\x1e\x85\xebQ\xb8\xbe?'
p1190
tp1191
Rp1192
sg261
g251
(g255
S'\x85\xebQ\xb8\x1e\x85\x1e\xc0'
p1193
tp1194
Rp1195
sg17
(lp1196
S'aromatic'
p1197
aS'heterocyclic'
p1198
asg269
F-7.94
sg270
g271
ssS'mobley_1838110'
p1199
(dp1200
g3
S'C(C(F)(Cl)Cl)(F)(F)Cl'
p1201
sg24
g25
sg26
F0.02
sg27
F1.77
sg9
(lp1202
g11
asg29
S'1,1,2-trichloro-1,2,2-trifluoro-ethane'
p1203
sg14
F0.6
sg31
g32
sg17
(lp1204
S'halogen derivative'
p1205
asg37
F1.53
ssS'mobley_3083321'
p1206
(dp1207
g3
S'COCOC'
p1208
sS'expt_reference'
p1209
S'10.1021/jm070549+'
p1210
sS'd_calc'
p1211
F0.1
sS'notes'
p1212
(lp1213
S'Topology and coordinate files re-generated 10/9/13 from original .mol2 files.'
p1214
ag11
asS'iupac'
p1215
S'dimethoxymethane'
p1216
sg14
F0.6
sS'expt'
p1217
F-2.93
sg17
(lp1218
S'acetal'
p1219
asS'calc'
p1220
F-3.2
sS'calc_reference'
p1221
g1210
ssS'mobley_3572203'
p1222
(dp1223
g3
S'CCCCCOC(=O)CC'
p1224
sg24
g25
sg26
F0.03
sg27
F-2.11
sg9
(lp1225
g11
asg29
S'pentyl propanoate'
p1226
sg14
F0.6
sg31
g32
sg17
(lp1227
S'carboxylic acid ester'
p1228
asg37
F-3.36
ssS'mobley_3843583'
p1229
(dp1230
g3
S'c1ccc2c(c1)cccc2N'
p1231
sg24
g25
sg26
F0.03
sg27
F-7.28
sg9
(lp1232
g11
asg29
S'naphthalen-1-amine'
p1233
sg14
F0.6
sg31
g32
sg17
(lp1234
S'primary amine'
p1235
aS'primary aromatic amine'
p1236
aS'aromatic'
p1237
asg37
F-7.76
ssS'mobley_8127829'
p1238
(dp1239
g3
S'CCc1ccccc1'
p1240
sg24
g25
sg26
F0.02
sg27
F-0.79
sg9
(lp1241
g11
asg29
S'ethylbenzene'
p1242
sg14
F0.6
sg31
g32
sg17
(lp1243
S'aromatic'
p1244
asg37
F-0.59
ssS'mobley_7983227'
p1245
(dp1246
g3
S'CC[C@@H](C)CO'
p1247
sg24
g25
sg26
F0.02
sg27
F-4.42
sg9
(lp1248
S'Renamed mobley_7983227 from 2-methylbutan-1-ol to (2R)-2-methylbutan-1-ol (the name from the 3D structure) since the former did not completely specify stereochemistry.\n'
p1249
asg29
S'2-methylbutan-1-ol'
p1250
sg14
F0.6
sg31
g32
sg17
(lp1251
S'primary alcohol'
p1252
asg37
F-2.78
ssS'mobley_2390199'
p1253
(dp1254
g3
S'CCCC(=O)CCC'
p1255
sg24
g25
sg26
F0.02
sg27
F-2.92
sg9
(lp1256
g11
asg29
S'heptan-4-one'
p1257
sg14
F0.6
sg31
g32
sg17
(lp1258
S'ketone'
p1259
asg37
F-2.68
ssS'mobley_2960202'
p1260
(dp1261
g3
S'c1c2c(cc(c1Cl)Cl)Oc3c(c(c(c(c3Cl)Cl)Cl)Cl)O2'
p1262
sg190
g191
sg192
F0.03
sg9
(lp1263
g11
asg194
S'1,2,3,4,7,8-hexachlorodibenzo-p-dioxin'
p1264
sg196
F1.0
sg197
F-3.71
sg17
(lp1265
S'diaryl ether'
p1266
aS'aryl chloride'
p1267
aS'aromatic'
p1268
aS'heterocyclic'
p1269
asg200
F-1.9
sg201
g202
ssS'mobley_5326154'
p1270
(dp1271
g3
S'CN(C)c1ccccc1'
p1272
sg24
g25
sg26
F0.02
sg27
F-3.45
sg9
(lp1273
g11
asg29
S'N,N-dimethylaniline'
p1274
sg14
F0.6
sg31
g32
sg17
(lp1275
S'tertiary amine'
p1276
aS'tertiary aliphatic/aromatic amine (alkylarylamine)'
p1277
aS'aromatic'
p1278
asg37
F-4.7
ssS'mobley_7176290'
p1279
(dp1280
g3
S'c1cc(cc(c1)O)[N+](=O)[O-]'
p1281
sg24
g25
sg26
F0.03
sg27
F-9.62
sg9
(lp1282
g11
asg29
S'3-nitrophenol'
p1283
sg14
F0.6
sg31
g32
sg17
(lp1284
S'phenol or hydroxyhetarene'
p1285
aS'nitro'
p1286
aS'aromatic'
p1287
asg37
F-7.66
ssS'mobley_6334915'
p1288
(dp1289
g3
S'COP(=O)([C@H](C(Cl)(Cl)Cl)O)OC'
p1290
sg158
g159
sg160
F0.04
sg9
(lp1291
g11
aS'Changed IUPAC name from trichlorfon to (1R)-2,2,2-trichloro-1-dimethoxyphosphoryl-ethanol for better handling/standardization.'
p1292
asg162
S'trichlorfon'
p1293
sg164
F1.93
sg165
F-12.74
sg17
(lp1294
S'halogen derivative'
p1295
asg168
F-14.03
sg169
g170
ssS'mobley_6497672'
p1296
(dp1297
g3
S'C/C=C/C=O'
p1298
sg24
g25
sg26
F0.02
sg27
F-4.22
sg9
(lp1299
S'Renamed mobley_6497672 from but-2-enal to (E)-but-2-enal (the name from the 3D structure) since the former did not completely specify stereochemistry.\n'
p1300
asg29
S'but-2-enal'
p1301
sg14
F0.6
sg31
g32
sg17
(lp1302
S'aldehyde'
p1303
aS'alkene'
p1304
asg37
F-3.66
ssS'mobley_5665561'
p1305
(dp1306
g3
S'Cc1cc(c2ccccc2c1)C'
p1307
sg24
g25
sg26
F0.03
sg27
F-2.47
sg9
(lp1308
g11
asg29
S'1,3-dimethylnaphthalene'
p1309
sg14
F0.6
sg31
g32
sg17
(lp1310
S'aromatic'
p1311
asg37
F-2.79
ssS'mobley_4850657'
p1312
(dp1313
g3
S'CS(=O)(=O)Cl'
p1314
sg24
g25
sg26
F0.02
sg27
F-4.87
sg9
(lp1315
g11
asg29
S'methanesulfonyl chloride'
p1316
sg14
F0.6
sg31
g32
sg17
(lp1317
S'sulfonyl halide'
p1318
asg37
F-6.33
ssS'mobley_6235784'
p1319
(dp1320
g3
S'CC[C@H](C)Cl'
p1321
sg24
g25
sg26
F0.02
sg27
F0.0
sg9
(lp1322
S'Renamed mobley_6235784 from 2-chlorobutane to (2S)-2-chlorobutane (the name from the 3D structure) since the former did not completely specify stereochemistry.\n'
p1323
asg29
S'2-chlorobutane'
p1324
sg14
F0.6
sg31
g32
sg17
(lp1325
S'alkyl chloride'
p1326
asg37
F1.21
ssS'mobley_8809190'
p1327
(dp1328
g3
S'CCCCc1ccccc1'
p1329
sg24
g25
sg26
F0.02
sg27
F-0.4
sg9
(lp1330
g11
asg29
S'butylbenzene'
p1331
sg14
F0.6
sg31
g32
sg17
(lp1332
S'aromatic'
p1333
asg37
F-0.3
ssS'mobley_1743409'
p1334
(dp1335
g3
S'CCOC(=O)CCC(=O)OCC'
p1336
sg24
g25
sg26
F0.04
sg27
F-5.71
sg9
(lp1337
g11
asg29
S'diethyl butanedioate'
p1338
sg14
F0.6
sg31
g32
sg17
(lp1339
S'carboxylic acid ester'
p1340
asg37
F-8.47
ssS'mobley_900088'
p1341
(dp1342
g3
S'CC(=C)C(=C)C'
p1343
sg24
g25
sg26
F0.02
sg27
F0.4
sg9
(lp1344
g11
asg29
S'2,3-dimethylbuta-1,3-diene'
p1345
sg14
F0.6
sg31
g32
sg17
(lp1346
S'alkene'
p1347
asg37
F1.69
ssS'mobley_5759258'
p1348
(dp1349
g3
S'CCCCCO'
p1350
sg24
g25
sg26
F0.02
sg27
F-4.57
sg9
(lp1351
g11
asg29
S'pentan-1-ol'
p1352
sg14
F0.6
sg31
g32
sg17
(lp1353
S'primary alcohol'
p1354
asg37
F-3.14
ssS'mobley_7608435'
p1355
(dp1356
g3
S'CCCCCCCC(=O)OC'
p1357
sg24
g25
sg26
F0.03
sg27
F-2.04
sg9
(lp1358
g11
asg29
S'methyl octanoate'
p1359
sg14
F0.6
sg31
g32
sg17
(lp1360
S'carboxylic acid ester'
p1361
asg37
F-2.94
ssS'mobley_3006808'
p1362
(dp1363
g3
S'C(C(F)(F)F)O'
p1364
sg24
g25
sg26
F0.03
sg27
F-4.31
sg9
(lp1365
g11
asg29
S'2,2,2-trifluoroethanol'
p1366
sg14
F0.6
sg31
g32
sg17
(lp1367
S'primary alcohol'
p1368
aS'halogen derivative'
p1369
asg37
F-3.95
ssS'mobley_6303022'
p1370
(dp1371
g3
S'CCc1ccncc1'
p1372
sg24
g25
sg26
F0.02
sg27
F-4.73
sg9
(lp1373
g11
asg29
S'4-ethylpyridine'
p1374
sg14
F0.6
sg31
g32
sg17
(lp1375
S'aromatic'
p1376
aS'heterocyclic'
p1377
asg37
F-2.87
ssS'mobley_7047032'
p1378
(dp1379
g3
S'CC(C)(C)Cl'
p1380
sg24
g25
sg26
F0.02
sg27
F1.09
sg9
(lp1381
g11
asg29
S'2-chloro-2-methyl-propane'
p1382
sg14
F0.6
sg31
g32
sg17
(lp1383
S'alkyl chloride'
p1384
asg37
F0.82
ssS'mobley_1708457'
p1385
(dp1386
g3
S'CS(=O)(=O)C'
p1387
sg24
g25
sg26
F0.03
sg27
F-10.08
sg9
(lp1388
g11
asg29
S'methylsulfonylmethane'
p1389
sg14
F0.6
sg31
g32
sg17
(lp1390
S'sulfone'
p1391
asg37
F-10.36
ssS'mobley_1079207'
p1392
(dp1393
g3
S'c1cc(cc(c1)Cl)Cl'
p1394
sg24
g25
sg26
F0.02
sg27
F-0.98
sg9
(lp1395
g11
asg29
S'1,3-dichlorobenzene'
p1396
sg14
F0.6
sg31
g32
sg17
(lp1397
S'aryl chloride'
p1398
aS'aromatic'
p1399
asg37
F0.01
ssS'mobley_8573194'
p1400
(dp1401
g3
S'CCCC=O'
p1402
sg24
g25
sg26
F0.02
sg27
F-3.18
sg9
(lp1403
g11
asg29
S'butanal'
p1404
sg14
F0.6
sg31
g32
sg17
(lp1405
S'aldehyde'
p1406
asg37
F-3.01
ssS'mobley_7375018'
p1407
(dp1408
g3
S'CCCCCCCCCC(=O)C'
p1409
sg24
g25
sg26
F0.03
sg27
F-2.15
sg9
(lp1410
g11
asg29
S'undecan-2-one'
p1411
sg14
F0.6
sg31
g32
sg17
(lp1412
S'ketone'
p1413
asg37
F-2.12
ssS'mobley_4792268'
p1414
(dp1415
g3
S'CCCCC(=O)O'
p1416
sg24
g25
sg26
F0.06
sg27
F-6.16
sg9
(lp1417
g11
asg29
S'pentanoic acid'
p1418
sg14
F0.6
sg31
g32
sg17
(lp1419
S'carboxylic acid'
p1420
asg37
F-5.37
ssS'mobley_1520842'
p1421
(dp1422
g3
S'Cc1ccncc1'
p1423
sg24
g25
sg26
F0.02
sg27
F-4.93
sg9
(lp1424
g11
asg29
S'4-methylpyridine'
p1425
sg14
F0.6
sg31
g32
sg17
(lp1426
S'aromatic'
p1427
aS'heterocyclic'
p1428
asg37
F-3.41
ssS'mobley_5520946'
p1429
(dp1430
g3
S'c1ccc(cc1)S'
p1431
sg24
g25
sg26
F0.02
sg27
F-2.55
sg9
(lp1432
g11
asg29
S'benzenethiol'
p1433
sg14
F0.6
sg31
g32
sg17
(lp1434
S'thiol (sulfanyl)'
p1435
aS'arylthiol (thiophenol)'
p1436
aS'aromatic'
p1437
asg37
F-1.43
ssS'mobley_2005792'
p1438
(dp1439
g3
S'c1ccc(cc1)c2ccccc2'
p1440
sg5
g6
sg7
F0.1
sg8
F-2.7
sg9
(lp1441
g11
aS'Changed IUPAC name from biphenyle to biphenyl for better handling/standardization.'
p1442
asg12
S'biphenyle'
p1443
sg14
F0.6
sg15
g16
sg17
(lp1444
S'aromatic'
p1445
asg20
F-3.5
ssS'mobley_7688753'
p1446
(dp1447
g3
S'c1cc(cc(c1)O)C=O'
p1448
sg24
g25
sg26
F0.03
sg27
F-9.52
sg9
(lp1449
g11
aS"Experimental value updated 10/22/13 from J. Peter Guthrie's examination of published data. A range of values -7.48 to -9.52 seem possible, but the original experimental data has not yet been located. More work is needed.\n"
p1450
asg29
S'3-hydroxybenzaldehyde'
p1451
sg14
F1.9
sg31
g32
sg17
(lp1452
S'aldehyde'
p1453
aS'phenol or hydroxyhetarene'
p1454
aS'aromatic'
p1455
asg37
F-9.24
ssS'mobley_7860938'
p1456
(dp1457
g3
S'CCCCNCCCC'
p1458
sg24
g25
sg26
F0.03
sg27
F-3.24
sg9
(lp1459
g11
asg29
S'N-butylbutan-1-amine'
p1460
sg14
F0.6
sg31
g32
sg17
(lp1461
S'secondary amine'
p1462
aS'secondary aliphatic amine (dialkylamine)'
p1463
asg37
F-1.63
ssS'mobley_4780078'
p1464
(dp1465
g3
S'Cc1ccc(c(c1)C)O'
p1466
sg24
g25
sg26
F0.03
sg27
F-6.01
sg9
(lp1467
g11
asg29
S'2,4-dimethylphenol'
p1468
sg14
F0.6
sg31
g32
sg17
(lp1469
S'phenol or hydroxyhetarene'
p1470
aS'aromatic'
p1471
asg37
F-4.55
ssS'mobley_3709920'
p1472
(dp1473
g3
S'CCCCCCCC=C'
p1474
sg24
g25
sg26
F0.03
sg27
F2.06
sg9
(lp1475
g11
asg29
S'non-1-ene'
p1476
sg14
F0.6
sg31
g32
sg17
(lp1477
S'alkene'
p1478
asg37
F2.91
ssS'mobley_7542832'
p1479
(dp1480
g3
S'CCCOCCC'
p1481
sg24
g25
sg26
F0.02
sg27
F-1.16
sg9
(lp1482
g11
asg29
S'1-propoxypropane'
p1483
sg14
F0.6
sg31
g32
sg17
(lp1484
S'dialkyl ether'
p1485
asg37
F0.21
ssS'mobley_2492140'
p1486
(dp1487
g3
S'C(C(Cl)(Cl)Cl)(Cl)Cl'
p1488
sg190
g191
sg192
F0.02
sg9
(lp1489
g11
asg194
S'1,1,1,2,2-pentachloroethane'
p1490
sg196
F0.1
sg197
F-1.23
sg17
(lp1491
S'alkyl chloride'
p1492
asg200
F0.13
sg201
g202
ssS'mobley_8899867'
p1493
(dp1494
g3
S'C1CCC(C1)O'
p1495
sg24
g25
sg26
F0.02
sg27
F-5.49
sg9
(lp1496
g11
asg29
S'cyclopentanol'
p1497
sg14
F0.6
sg31
g32
sg17
(lp1498
S'secondary alcohol'
p1499
asg37
F-4.15
ssS'mobley_5371840'
p1500
(dp1501
g3
S'c1ccc2c(c1)Oc3ccc(cc3O2)Cl'
p1502
sg190
g191
sg192
F0.02
sg9
(lp1503
g11
asg194
S'2-chlorodibenzo-p-dioxin'
p1504
sg196
F0.1
sg197
F-3.1
sg17
(lp1505
S'diaryl ether'
p1506
aS'aryl chloride'
p1507
aS'aromatic'
p1508
aS'heterocyclic'
p1509
asg200
F-3.99
sg201
g202
ssS'mobley_2929847'
p1510
(dp1511
g3
S'CC(C)CC(=O)O'
p1512
sg24
g25
sg26
F0.03
sg27
F-6.09
sg9
(lp1513
g11
asg29
S'3-methylbutanoic acid'
p1514
sg14
F0.6
sg31
g32
sg17
(lp1515
S'carboxylic acid'
p1516
asg37
F-5.51
ssS'mobley_8006582'
p1517
(dp1518
g3
S'C1CCCC1'
p1519
sg24
g25
sg26
F0.02
sg27
F1.2
sg9
(lp1520
g11
asg29
S'cyclopentane'
p1521
sg14
F0.6
sg31
g32
sg17
(lp1522
S''
p1523
asg37
F1.53
ssS'mobley_2146331'
p1524
(dp1525
g3
S'C=O'
p1526
sg24
g25
sg26
F0.01
sg27
F-2.75
sg9
(lp1527
g11
aS'Formaldehyde is covalently hydrated in water. Our value here is the true free energy of hydration (based on the concentration of formaldehyde in gas vs in water) as opposed to the apparent one. See Guthrie, J. P., J. Am. Chem. Soc. 2000, 122, 5529-5538.\n'
p1528
asg29
S'formaldehyde'
p1529
sg14
F0.6
sg31
g32
sg17
(lp1530
S'aldehyde'
p1531
asg37
F-3.22
ssS'mobley_2099370'
p1532
(dp1533
g3
S'C[C@@H](c1cccc(c1)C(=O)c2ccccc2)C(=O)O'
p1534
sg408
g409
sg410
F0.1
sg9
(lp1535
S'Renamed mobley_2099370 from ketoprofen to (2S)-2-(3-benzoylphenyl)propanoic acid (the name from the 3D structure) since the former did not completely specify stereochemistry.\n'
p1536
asg412
S'ketoprofen'
p1537
sg414
F0.18
sg415
F-10.78
sg17
(lp1538
S'ketone'
p1539
aS'carboxylic acid'
p1540
aS'aromatic'
p1541
asg421
F-11.9
sg422
g423
ssS'mobley_1781152'
p1542
(dp1543
g3
S'CC(C)(C)C(=O)OC'
p1544
sg24
g25
sg26
F0.02
sg27
F-2.4
sg9
(lp1545
g11
asg29
S'methyl 2,2-dimethylpropanoate'
p1546
sg14
F0.6
sg31
g32
sg17
(lp1547
S'carboxylic acid ester'
p1548
asg37
F-2.99
ssS'mobley_3968043'
p1549
(dp1550
g3
S'C1CCC(=O)C1'
p1551
sg24
g25
sg26
F0.02
sg27
F-4.7
sg9
(lp1552
g11
asg29
S'cyclopentanone'
p1553
sg14
F0.6
sg31
g32
sg17
(lp1554
S'ketone'
p1555
asg37
F-3.71
ssS'mobley_3323117'
p1556
(dp1557
g3
S'C1CC[S+2](C1)([O-])[O-]'
p1558
sg408
g409
sg410
F0.05
sg9
(lp1559
g11
asg412
S'sulfolane'
p1560
sg414
F0.31
sg415
F-8.61
sg17
(lp1561
S'heterocyclic'
p1562
asg421
F-9.45
sg422
g423
ssS'mobley_4043951'
p1563
(dp1564
g3
S'CCCC=C'
p1565
sg24
g25
sg26
F0.02
sg27
F1.68
sg9
(lp1566
g11
asg29
S'pent-1-ene'
p1567
sg14
F0.6
sg31
g32
sg17
(lp1568
S'alkene'
p1569
asg37
F2.44
ssS'mobley_8705848'
p1570
(dp1571
g3
S'CC(C)NC(C)C'
p1572
sg24
g25
sg26
F0.02
sg27
F-3.22
sg9
(lp1573
g11
asg29
S'N-isopropylpropan-2-amine'
p1574
sg14
F0.6
sg31
g32
sg17
(lp1575
S'secondary amine'
p1576
aS'secondary aliphatic amine (dialkylamine)'
p1577
asg37
F-1.97
ssS'mobley_2484519'
p1578
(dp1579
g3
S'c1ccc(cc1)CCl'
p1580
sg1209
g1210
sg1211
F0.08
sg1212
(lp1581
g1214
ag11
asg1215
S'benzyl chloride'
p1582
sg14
F0.6
sg1217
F-1.93
sg17
(lp1583
S'alkyl chloride'
p1584
aS'aromatic'
p1585
asg1220
F-1.5
sg1221
g1210
ssS'mobley_547634'
p1586
(dp1587
g3
S'Cc1cc2ccccc2cc1C'
p1588
sg24
g25
sg26
F0.02
sg27
F-2.78
sg9
(lp1589
g11
asg29
S'2,3-dimethylnaphthalene'
p1590
sg14
F0.6
sg31
g32
sg17
(lp1591
S'aromatic'
p1592
asg37
F-2.59
ssS'mobley_8311321'
p1593
(dp1594
g3
S'C(F)(F)Cl'
p1595
sg24
g25
sg26
F0.02
sg27
F-0.5
sg9
(lp1596
g11
asg29
S'chloro-difluoro-methane'
p1597
sg14
F0.6
sg31
g32
sg17
(lp1598
S'halogen derivative'
p1599
asg37
F-0.04
ssS'mobley_3318135'
p1600
(dp1601
g3
S'CCCCC(=O)CCCC'
p1602
sg24
g25
sg26
F0.03
sg27
F-2.64
sg9
(lp1603
g11
asg29
S'nonan-5-one'
p1604
sg14
F0.6
sg31
g32
sg17
(lp1605
S'ketone'
p1606
asg37
F-2.34
ssS'mobley_3761215'
p1607
(dp1608
g3
S'CC(Cl)(Cl)Cl'
p1609
sg24
g25
sg26
F0.02
sg27
F-0.19
sg9
(lp1610
g11
asg29
S'1,1,1-trichloroethane'
p1611
sg14
F0.6
sg31
g32
sg17
(lp1612
S'halogen derivative'
p1613
asg37
F0.75
ssS'mobley_3047364'
p1614
(dp1615
g3
S'CCNc1nc(nc(n1)SC)NC(C)C'
p1616
sg158
g159
sg160
F0.04
sg9
(lp1617
g11
aS'Changed IUPAC name from ametryn to 2-N-ethyl-6-(methylsulfanyl)-4-N-(propan-2-yl)-1,3,5-triazine-2,4-diamine for better handling/standardization.'
p1618
asg162
S'ametryn'
p1619
sg164
F0.45
sg165
F-7.65
sg17
(lp1620
S'thioether'
p1621
aS'secondary amine'
p1622
aS'secondary aliphatic/aromatic amine (alkylarylamine)'
p1623
aS'aromatic'
p1624
aS'heterocyclic'
p1625
asg168
F-9.24
sg169
g170
ssS'mobley_3183805'
p1626
(dp1627
g3
S'Cc1ccc(c(c1)C)C'
p1628
sg24
g25
sg26
F0.02
sg27
F-0.86
sg9
(lp1629
g11
asg29
S'1,2,4-trimethylbenzene'
p1630
sg14
F0.6
sg31
g32
sg17
(lp1631
S'aromatic'
p1632
asg37
F-0.36
ssS'mobley_1717215'
p1633
(dp1634
g3
S'COC=O'
p1635
sg24
g25
sg26
F0.02
sg27
F-2.78
sg9
(lp1636
g11
asg29
S'methyl formate'
p1637
sg14
F0.6
sg31
g32
sg17
(lp1638
S'carboxylic acid ester'
p1639
asg37
F-3.17
ssS'mobley_5600967'
p1640
(dp1641
g3
S'CN(C)C(=O)c1ccc(cc1)OC'
p1642
sg24
g25
sg26
F0.04
sg27
F-11.01
sg9
(lp1643
g11
asg29
S'4-methoxy-N,N-dimethyl-benzamide'
p1644
sg14
F0.6
sg31
g32
sg17
(lp1645
S'cation'
p1646
aS'alkyl aryl ether'
p1647
aS'aromatic'
p1648
asg37
F-9.29
ssS'mobley_6794076'
p1649
(dp1650
g3
S'CC(=O)c1ccncc1'
p1651
sg24
g25
sg26
F0.03
sg27
F-7.62
sg9
(lp1652
g11
asg29
S'1-(4-pyridyl)ethanone'
p1653
sg14
F0.6
sg31
g32
sg17
(lp1654
S'ketone'
p1655
aS'aromatic'
p1656
aS'heterocyclic'
p1657
asg37
F-7.63
ssS'mobley_6055410'
p1658
(dp1659
g3
S'c1cc(c(cc1c2ccc(cc2F)F)C(=O)O)O'
p1660
sg408
g409
sg410
F0.1
sg9
(lp1661
g11
asg412
S'diflunisal'
p1662
sg414
F0.2
sg415
F-9.4
sg17
(lp1663
S'phenol or hydroxyhetarene'
p1664
aS'aryl fluoride'
p1665
aS'carboxylic acid'
p1666
aS'aromatic'
p1667
asg421
F-6.5
sg422
g423
ssS'mobley_7455579'
p1668
(dp1669
g3
S'CC(C)COC=O'
p1670
sg24
g25
sg26
F0.02
sg27
F-2.22
sg9
(lp1671
g11
asg29
S'isobutyl formate'
p1672
sg14
F0.6
sg31
g32
sg17
(lp1673
S'carboxylic acid ester'
p1674
asg37
F-3.21
ssS'mobley_7393673'
p1675
(dp1676
g3
S'COc1ccc(cc1)C(=O)OC'
p1677
sg24
g25
sg26
F0.03
sg27
F-5.33
sg9
(lp1678
g11
asg29
S'methyl 4-methoxybenzoate'
p1679
sg14
F0.6
sg31
g32
sg17
(lp1680
S'alkyl aryl ether'
p1681
aS'carboxylic acid ester'
p1682
aS'aromatic'
p1683
asg37
F-6.32
ssS'mobley_3980099'
p1684
(dp1685
g3
S'c1cc(c(c(c1)Cl)Cl)Cl'
p1686
sg24
g25
sg26
F0.02
sg27
F-1.24
sg9
(lp1687
g11
asg29
S'1,2,3-trichlorobenzene'
p1688
sg14
F0.6
sg31
g32
sg17
(lp1689
S'aryl chloride'
p1690
aS'aromatic'
p1691
asg37
F-0.38
ssS'mobley_2845466'
p1692
(dp1693
g3
S'c1c2c(cc(c1Cl)Cl)Oc3cc(c(cc3O2)Cl)Cl'
p1694
sg190
g191
sg192
F0.03
sg9
(lp1695
g11
asg194
S'2,3,7,8-tetrachlorodibenzo-p-dioxin'
p1696
sg196
F1.0
sg197
F-3.37
sg17
(lp1697
S'diaryl ether'
p1698
aS'aryl chloride'
p1699
aS'aromatic'
p1700
aS'heterocyclic'
p1701
asg200
F-2.49
sg201
g202
ssS'mobley_9197172'
p1702
(dp1703
g3
S'CCCCCCC=C'
p1704
sg24
g25
sg26
F0.03
sg27
F1.92
sg9
(lp1705
g11
asg29
S'oct-1-ene'
p1706
sg14
F0.6
sg31
g32
sg17
(lp1707
S'alkene'
p1708
asg37
F2.77
ssS'mobley_9055303'
p1709
(dp1710
g3
S'C'
p1711
sg5
g6
sg7
F0.1
sg8
F2.0
sg9
(lp1712
g11
asg12
S'methane'
p1713
sg14
F0.6
sg15
g16
sg17
(lp1714
S''
p1715
asg20
F2.6
ssS'mobley_6935906'
p1716
(dp1717
g3
S'CC(=CCC[C@](C)(C=C)OC(=O)C)C'
p1718
sg244
g245
sg246
F0.024
sg9
(lp1719
g11
asg248
S'(3R)-3,7-Dimethylocta-1,6-dien-3-yl acetate'
p1720
sg250
g251
(g255
S'333333\xeb?'
p1721
tp1722
Rp1723
sg261
g251
(g255
S'\xecQ\xb8\x1e\x85\xeb\x03\xc0'
p1724
tp1725
Rp1726
sg17
(lp1727
S'carboxylic acid ester'
p1728
aS'alkene'
p1729
asg269
F-2.58
sg270
g271
ssS'mobley_7239499'
p1730
(dp1731
g3
S'c1ccc2c(c1)Oc3cccc(c3O2)Cl'
p1732
sg190
g191
sg192
F0.02
sg9
(lp1733
g11
asg194
S'1-chlorodibenzo-p-dioxin'
p1734
sg196
F0.1
sg197
F-3.52
sg17
(lp1735
S'diaryl ether'
p1736
aS'aryl chloride'
p1737
aS'aromatic'
p1738
aS'heterocyclic'
p1739
asg200
F-4.38
sg201
g202
ssS'mobley_4193752'
p1740
(dp1741
g3
S'c1ccc(cc1)[N+](=O)[O-]'
p1742
sg24
g25
sg26
F0.02
sg27
F-4.12
sg9
(lp1743
g11
asg29
S'nitrobenzene'
p1744
sg14
F0.6
sg31
g32
sg17
(lp1745
S'nitro'
p1746
aS'aromatic'
p1747
asg37
F-3.4
ssS'mobley_2844990'
p1748
(dp1749
g3
S'c1cc2c(cc1Cl)Oc3cc(c(c(c3O2)Cl)Cl)Cl'
p1750
sg190
g191
sg192
F0.03
sg9
(lp1751
g11
asg194
S'1,2,3,7-tetrachlorodibenzo-p-dioxin'
p1752
sg196
F1.0
sg197
F-3.84
sg17
(lp1753
S'diaryl ether'
p1754
aS'aryl chloride'
p1755
aS'aromatic'
p1756
aS'heterocyclic'
p1757
asg200
F-2.58
sg201
g202
ssS'mobley_2925352'
p1758
(dp1759
g3
S'Cc1ccc(cc1)O'
p1760
sg24
g25
sg26
F0.02
sg27
F-6.13
sg9
(lp1761
g11
asg29
S'p-cresol'
p1762
sg14
F0.6
sg31
g32
sg17
(lp1763
S'phenol or hydroxyhetarene'
p1764
aS'aromatic'
p1765
asg37
F-5.36
ssS'mobley_4934872'
p1766
(dp1767
g3
S'CCOC(OCC)Oc1ccccc1'
p1768
sg24
g25
sg26
F0.04
sg27
F-5.23
sg9
(lp1769
g11
asg29
S'diethoxymethoxybenzene'
p1770
sg14
F0.6
sg31
g32
sg17
(lp1771
S'orthocarboxylic acid derivative'
p1772
aS'orthoester'
p1773
aS'aromatic'
p1774
asg37
F-4.44
ssS'mobley_1923244'
p1775
(dp1776
g3
S'CCCC'
p1777
sg5
g6
sg7
F0.1
sg8
F2.1
sg9
(lp1778
g11
asg12
S'n-butane'
p1779
sg14
F0.6
sg15
g16
sg17
(lp1780
S''
p1781
asg20
F3.1
ssS'mobley_3690931'
p1782
(dp1783
g3
S'CCCC(=O)OCCC'
p1784
sg24
g25
sg26
F0.03
sg27
F-2.28
sg9
(lp1785
g11
asg29
S'propyl butanoate'
p1786
sg14
F0.6
sg31
g32
sg17
(lp1787
S'carboxylic acid ester'
p1788
asg37
F-2.88
ssS'mobley_6359135'
p1789
(dp1790
g3
S'C(Cl)(Cl)(Cl)Cl'
p1791
sg24
g25
sg26
F0.02
sg27
F0.08
sg9
(lp1792
g11
asg29
S'carbon tetrachloride'
p1793
sg14
F0.6
sg31
g32
sg17
(lp1794
S'halogen derivative'
p1795
asg37
F1.41
ssS'mobley_8117218'
p1796
(dp1797
g3
S'C1[C@@H]2[C@H]3[C@@H]([C@H]1[C@H]4[C@@H]2O4)[C@@]5(C(=C([C@]3(C5(Cl)Cl)Cl)Cl)Cl)Cl'
p1798
sg158
g159
sg160
F0.07
sg9
(lp1799
g11
asg162
S'endrin'
p1800
sg164
F0.1
sg165
F-4.82
sg17
(lp1801
S'dialkyl ether'
p1802
aS'alkyl chloride'
p1803
aS'alkene'
p1804
aS'heterocyclic'
p1805
asg168
F-4.77
sg169
g170
ssS'mobley_1857976'
p1806
(dp1807
g3
S'C(CCl)Cl'
p1808
sg24
g25
sg26
F0.02
sg27
F-1.79
sg9
(lp1809
g11
asg29
S'1,2-dichloroethane'
p1810
sg14
F0.6
sg31
g32
sg17
(lp1811
S'alkyl chloride'
p1812
asg37
F-0.52
ssS'mobley_2068538'
p1813
(dp1814
g3
S'CCC'
p1815
sg5
g6
sg7
F0.1
sg8
F2.0
sg9
(lp1816
g11
asg12
S'propane'
p1817
sg14
F0.6
sg15
g16
sg17
(lp1818
S''
p1819
asg20
F2.4
ssS'mobley_52782'
p1820
(dp1821
g3
S'C(CO[N+](=O)[O-])O[N+](=O)[O-]'
p1822
sg158
g159
sg160
F0.02
sg9
(lp1823
g11
aS'Changed IUPAC name from nitroglycol to 1,2-dinitroxyethane for better handling/standardization.'
p1824
asg162
S'nitroglycol'
p1825
sg164
F0.1
sg165
F-5.73
sg17
(lp1826
S'nitrate'
p1827
asg168
F-5.97
sg169
g170
ssS'mobley_4584540'
p1828
(dp1829
g3
S'Cc1cccc(n1)C'
p1830
sg24
g25
sg26
F0.02
sg27
F-4.59
sg9
(lp1831
g11
asg29
S'2,6-dimethylpyridine'
p1832
sg14
F0.6
sg31
g32
sg17
(lp1833
S'aromatic'
p1834
aS'heterocyclic'
p1835
asg37
F-3.36
ssS'mobley_7573149'
p1836
(dp1837
g3
S'CCCOC(=O)C'
p1838
sg24
g25
sg26
F0.02
sg27
F-2.79
sg9
(lp1839
g11
asg29
S'propyl acetate'
p1840
sg14
F0.6
sg31
g32
sg17
(lp1841
S'carboxylic acid ester'
p1842
asg37
F-3.33
ssS'mobley_7758918'
p1843
(dp1844
g3
S'CCC(=O)O'
p1845
sg24
g25
sg26
F0.03
sg27
F-6.46
sg9
(lp1846
g11
asg29
S'propionic acid'
p1847
sg14
F0.6
sg31
g32
sg17
(lp1848
S'carboxylic acid'
p1849
asg37
F-6.41
ssS'mobley_2763835'
p1850
(dp1851
g3
S'CCOc1ccccc1'
p1852
sg24
g25
sg26
F0.02
sg27
F-2.22
sg9
(lp1853
g11
asg29
S'ethoxybenzene'
p1854
sg14
F0.6
sg31
g32
sg17
(lp1855
S'alkyl aryl ether'
p1856
aS'aromatic'
p1857
asg37
F-2.01
ssS'mobley_6896128'
p1858
(dp1859
g3
S'CCCC[C@@H](C)CC'
p1860
sg24
g25
sg26
F0.03
sg27
F2.97
sg9
(lp1861
S'Renamed mobley_6896128 from 3-methylheptane to (3S)-3-methylheptane (the name from the 3D structure) since the former did not completely specify stereochemistry.\n'
p1862
asg29
S'3-methylheptane'
p1863
sg14
F0.6
sg31
g32
sg17
(lp1864
S''
p1865
asg37
F3.29
ssS'mobley_4218209'
p1866
(dp1867
g3
S'COc1ccc(cc1)N'
p1868
sg24
g25
sg26
F0.03
sg27
F-7.48
sg9
(lp1869
g11
asg29
S'4-methoxyaniline'
p1870
sg14
F0.6
sg31
g32
sg17
(lp1871
S'alkyl aryl ether'
p1872
aS'primary amine'
p1873
aS'primary aromatic amine'
p1874
aS'aromatic'
p1875
asg37
F-6.92
ssS'mobley_2727678'
p1876
(dp1877
g3
S'c1c(c(=O)[nH]c(=O)[nH]1)I'
p1878
sg408
g409
sg410
F0.06
sg9
(lp1879
g11
asg412
S'5-iodouracil'
p1880
sg414
F0.64
sg415
F-18.72
sg17
(lp1881
S'aryl iodide'
p1882
aS'oxo(het)arene'
p1883
aS'aromatic'
p1884
aS'heterocyclic'
p1885
asg421
F-17.14
sg422
g423
ssS'mobley_6973347'
p1886
(dp1887
g3
S'CCOC(=O)C'
p1888
sg24
g25
sg26
F0.02
sg27
F-2.94
sg9
(lp1889
g11
asg29
S'ethyl acetate'
p1890
sg14
F0.6
sg31
g32
sg17
(lp1891
S'carboxylic acid ester'
p1892
asg37
F-3.23
ssS'mobley_6175884'
p1893
(dp1894
g3
S'Cc1ccc(cc1)C=O'
p1895
sg24
g25
sg26
F0.03
sg27
F-4.27
sg9
(lp1896
g11
asg29
S'4-methylbenzaldehyde'
p1897
sg14
F0.6
sg31
g32
sg17
(lp1898
S'aldehyde'
p1899
aS'aromatic'
p1900
asg37
F-4.9
ssS'mobley_5026370'
p1901
(dp1902
g3
S'c1cnccc1C#N'
p1903
sg24
g25
sg26
F0.02
sg27
F-6.02
sg9
(lp1904
g11
asg29
S'pyridine-4-carbonitrile'
p1905
sg14
F0.6
sg31
g32
sg17
(lp1906
S'carbonitrile'
p1907
aS'aromatic'
p1908
aS'heterocyclic'
p1909
asg37
F-5.01
ssS'mobley_3762186'
p1910
(dp1911
g3
S'C(Cl)Cl'
p1912
sg24
g25
sg26
F0.01
sg27
F-1.31
sg9
(lp1913
g11
asg29
S'dichloromethane'
p1914
sg14
F0.6
sg31
g32
sg17
(lp1915
S'alkyl chloride'
p1916
asg37
F0.23
ssS'mobley_1977493'
p1917
(dp1918
g3
S'CCCCl'
p1919
sg24
g25
sg26
F0.02
sg27
F-0.33
sg9
(lp1920
g11
asg29
S'1-chloropropane'
p1921
sg14
F0.6
sg31
g32
sg17
(lp1922
S'alkyl chloride'
p1923
asg37
F0.92
ssS'mobley_1396156'
p1924
(dp1925
g3
S'c1(c(c(c(c(c1Cl)Cl)Cl)Cl)Cl)N(=O)=O'
p1926
sg408
g409
sg410
F0.05
sg9
(lp1927
g11
asg412
S'pentachloronitrobenzene'
p1928
sg414
F0.25
sg415
F-5.22
sg17
(lp1929
S'aryl chloride'
p1930
aS'nitro'
p1931
aS'aromatic'
p1932
asg421
F-2.26
sg422
g423
ssS'mobley_9507933'
p1933
(dp1934
g3
S'Cc1ccc(nc1)C'
p1935
sg24
g25
sg26
F0.02
sg27
F-4.72
sg9
(lp1936
g11
asg29
S'2,5-dimethylpyridine'
p1937
sg14
F0.6
sg31
g32
sg17
(lp1938
S'aromatic'
p1939
aS'heterocyclic'
p1940
asg37
F-2.83
ssS'mobley_9913368'
p1941
(dp1942
g3
S'C(=C/Cl)\\Cl'
p1943
sg24
g25
sg26
F0.02
sg27
F-0.78
sg9
(lp1944
S'Renamed mobley_9913368 from (E)-1,2-dichloroethylene to (E)-1,2-dichloroethylene (the name from the 3D structure) since the former did not completely specify stereochemistry.\n'
p1945
asg29
S'(E)-1,2-dichloroethylene'
p1946
sg14
F0.6
sg31
g32
sg17
(lp1947
S'halogen derivative'
p1948
aS'alkene'
p1949
asg37
F1.2
ssS'mobley_3167746'
p1950
(dp1951
g3
S'CCCCCCCC'
p1952
sg24
g25
sg26
F0.03
sg27
F2.88
sg9
(lp1953
g11
asg29
S'octane'
p1954
sg14
F0.6
sg31
g32
sg17
(lp1955
S''
p1956
asg37
F3.13
ssS'mobley_2725802'
p1957
(dp1958
g3
S'CC(=O)N1CCCC1'
p1959
sg24
g25
sg26
F0.02
sg27
F-9.8
sg9
(lp1960
g11
asg29
S'1-pyrrolidin-1-ylethanone'
p1961
sg14
F0.6
sg31
g32
sg17
(lp1962
S'cation'
p1963
aS'heterocyclic'
p1964
asg37
F-7.97
ssS'mobley_7912193'
p1965
(dp1966
g3
S'CCCCOC(=O)c1ccc(cc1)O'
p1967
sg408
g409
sg410
F0.06
sg9
(lp1968
g11
asg412
S'butyl paraben'
p1969
sg414
F0.27
sg415
F-8.72
sg17
(lp1970
S'phenol or hydroxyhetarene'
p1971
aS'carboxylic acid ester'
p1972
aS'aromatic'
p1973
asg421
F-9.19
sg422
g423
ssS'mobley_242480'
p1974
(dp1975
g3
S'c1ccc2c(c1)C(=O)c3c(ccc(c3C2=O)N)N'
p1976
sg244
g245
sg246
F0.024
sg9
(lp1977
g11
asg248
S'1,4-diamino-9,10-anthracenedione'
p1978
sg250
g251
(g255
S'ffffff\xd6?'
p1979
tp1980
Rp1981
sg261
g251
(g255
S"33333\xb3'\xc0"
p1982
tp1983
Rp1984
sg17
(lp1985
S'ketone'
p1986
aS'primary amine'
p1987
aS'primary aromatic amine'
p1988
aS'aromatic'
p1989
asg269
F-14.2
sg270
g271
ssS'mobley_5445548'
p1990
(dp1991
g3
S'CC(C)c1ccccc1'
p1992
sg24
g25
sg26
F0.02
sg27
F-0.3
sg9
(lp1993
g11
asg29
S'cumene'
p1994
sg14
F0.6
sg31
g32
sg17
(lp1995
S'aromatic'
p1996
asg37
F-0.31
ssS'mobley_8823527'
p1997
(dp1998
g3
S'c1cc(c(cc1Cl)c2cc(c(c(c2)Cl)Cl)Cl)Cl'
p1999
sg190
g191
sg192
F0.03
sg9
(lp2000
g11
asg194
S'1,2,3-trichloro-5-(2,5-dichlorophenyl)benzene'
p2001
sg196
F0.13
sg197
F-3.61
sg17
(lp2002
S'aryl chloride'
p2003
aS'aromatic'
p2004
asg200
F-0.86
sg201
g202
ssS'mobley_1019269'
p2005
(dp2006
g3
S'CCCCO'
p2007
sg24
g25
sg26
F0.02
sg27
F-4.72
sg9
(lp2008
g11
asg29
S'butan-1-ol'
p2009
sg14
F0.6
sg31
g32
sg17
(lp2010
S'primary alcohol'
p2011
asg37
F-3.14
ssS'mobley_1755375'
p2012
(dp2013
g3
S'Cc1cccc(c1O)C'
p2014
sg24
g25
sg26
F0.03
sg27
F-5.26
sg9
(lp2015
g11
asg29
S'2,6-dimethylphenol'
p2016
sg14
F0.6
sg31
g32
sg17
(lp2017
S'phenol or hydroxyhetarene'
p2018
aS'aromatic'
p2019
asg37
F-4.09
ssS'mobley_4371692'
p2020
(dp2021
g3
S'c1ccc2c(c1)C(=O)c3c(ccc(c3C2=O)O)N'
p2022
sg244
g245
sg246
F0.022
sg9
(lp2023
g11
asg248
S'1-amino-4-hydroxy-9,10-anthracenedione'
p2024
sg250
g251
(g255
S'\xecQ\xb8\x1e\x85\xeb\xd1?'
p2025
tp2026
Rp2027
sg261
g251
(g255
S'\x8f\xc2\xf5(\\\x0f#\xc0'
p2028
tp2029
Rp2030
sg17
(lp2031
S'ketone'
p2032
aS'phenol or hydroxyhetarene'
p2033
aS'primary amine'
p2034
aS'primary aromatic amine'
p2035
aS'aromatic'
p2036
asg269
F-11.22
sg270
g271
ssS'mobley_1139153'
p2037
(dp2038
g3
S'CC(C)CC(C)(C)C'
p2039
sg24
g25
sg26
F0.03
sg27
F2.89
sg9
(lp2040
g11
asg29
S'2,2,4-trimethylpentane'
p2041
sg14
F0.6
sg31
g32
sg17
(lp2042
S''
p2043
asg37
F2.93
ssS'mobley_4338603'
p2044
(dp2045
g3
S'c1c(=O)[nH]c(=O)[nH]c1Cl'
p2046
sg408
g409
sg410
F0.06
sg9
(lp2047
g11
asg412
S'6-chlorouracil'
p2048
sg414
F1.22
sg415
F-15.83
sg17
(lp2049
S'aryl chloride'
p2050
aS'oxo(het)arene'
p2051
aS'aromatic'
p2052
aS'heterocyclic'
p2053
asg421
F-15.11
sg422
g423
ssS'mobley_5471704'
p2054
(dp2055
g3
S'CC(C)CCOC(=O)C'
p2056
sg24
g25
sg26
F0.03
sg27
F-2.21
sg9
(lp2057
g11
asg29
S'isopentyl acetate'
p2058
sg14
F0.6
sg31
g32
sg17
(lp2059
S'carboxylic acid ester'
p2060
asg37
F-3.05
ssS'mobley_6060301'
p2061
(dp2062
g3
S'CCCCCCN'
p2063
sg24
g25
sg26
F0.02
sg27
F-3.95
sg9
(lp2064
g11
asg29
S'hexan-1-amine'
p2065
sg14
F0.6
sg31
g32
sg17
(lp2066
S'primary amine'
p2067
aS'primary aliphatic amine (alkylamine)'
p2068
asg37
F-2.54
ssS'mobley_588781'
p2069
(dp2070
g3
S'CCCCCCc1ccccc1'
p2071
sg24
g25
sg26
F0.03
sg27
F-0.04
sg9
(lp2072
g11
asg29
S'hexylbenzene'
p2073
sg14
F0.6
sg31
g32
sg17
(lp2074
S'aromatic'
p2075
asg37
F0.24
ssS'mobley_2354112'
p2076
(dp2077
g3
S'CCc1cccc(c1)O'
p2078
sg24
g25
sg26
F0.03
sg27
F-6.25
sg9
(lp2079
g11
asg29
S'3-ethylphenol'
p2080
sg14
F0.6
sg31
g32
sg17
(lp2081
S'phenol or hydroxyhetarene'
p2082
aS'aromatic'
p2083
asg37
F-5.02
ssS'mobley_8772587'
p2084
(dp2085
g3
S'CCCCI'
p2086
sg24
g25
sg26
F0.02
sg27
F-0.25
sg9
(lp2087
g11
asg29
S'1-iodobutane'
p2088
sg14
F0.6
sg31
g32
sg17
(lp2089
S'alkyl iodide'
p2090
asg37
F0.58
ssS'mobley_5456566'
p2091
(dp2092
g3
S'c1(c(c(c(c(c1Cl)Cl)Cl)Cl)Cl)c2c(c(c(c(c2Cl)Cl)Cl)Cl)Cl'
p2093
sg190
g191
sg192
F0.06
sg9
(lp2094
g11
asg194
S'1,2,3,4,5-pentachloro-6-(2,3,4,5,6-pentachlorophenyl)benzene'
p2095
sg196
F1.0
sg197
F-2.98
sg17
(lp2096
S'aryl chloride'
p2097
aS'aromatic'
p2098
asg200
F0.87
sg201
g202
ssS'mobley_2371092'
p2099
(dp2100
g3
S'Cc1ccncc1C'
p2101
sg24
g25
sg26
F0.02
sg27
F-5.22
sg9
(lp2102
g11
asg29
S'3,4-dimethylpyridine'
p2103
sg14
F0.6
sg31
g32
sg17
(lp2104
S'aromatic'
p2105
aS'heterocyclic'
p2106
asg37
F-3.18
ssS'mobley_1328936'
p2107
(dp2108
g3
S'COC(=O)c1ccc(cc1)[N+](=O)[O-]'
p2109
sg24
g25
sg26
F0.03
sg27
F-6.88
sg9
(lp2110
g11
asg29
S'methyl 4-nitrobenzoate'
p2111
sg14
F0.6
sg31
g32
sg17
(lp2112
S'carboxylic acid ester'
p2113
aS'nitro'
p2114
aS'aromatic'
p2115
asg37
F-6.39
ssS'mobley_2792521'
p2116
(dp2117
g3
S'CCC/C=C/C=O'
p2118
sg24
g25
sg26
F0.02
sg27
F-3.68
sg9
(lp2119
S'Renamed mobley_2792521 from hex-2-enal to (E)-hex-2-enal (the name from the 3D structure) since the former did not completely specify stereochemistry.\n'
p2120
asg29
S'(2E)-hex-2-enal'
p2121
sg14
F0.6
sg31
g32
sg17
(lp2122
S'aldehyde'
p2123
aS'alkene'
p2124
asg37
F-3.22
ssS'mobley_9974966'
p2125
(dp2126
g3
S'CC(C)SC(C)C'
p2127
sg24
g25
sg26
F0.02
sg27
F-1.21
sg9
(lp2128
g11
asg29
S'2-isopropylsulfanylpropane'
p2129
sg14
F0.6
sg31
g32
sg17
(lp2130
S'thioether'
p2131
asg37
F0.1
ssS'mobley_6733657'
p2132
(dp2133
g3
S'C1[C@H]([C@@H]2[C@H]([C@H]1Cl)[C@]3(C(=C([C@@]2(C3(Cl)Cl)Cl)Cl)Cl)Cl)Cl'
p2134
sg158
g159
sg160
F0.03
sg9
(lp2135
g11
asg162
S'chlordane'
p2136
sg164
F0.1
sg165
F-3.44
sg17
(lp2137
S'alkyl chloride'
p2138
aS'alkene'
p2139
asg168
F-3.25
sg169
g170
ssS'mobley_9121449'
p2140
(dp2141
g3
S'CCC#C'
p2142
sg24
g25
sg26
F0.02
sg27
F-0.16
sg9
(lp2143
g11
asg29
S'but-1-yne'
p2144
sg14
F0.6
sg31
g32
sg17
(lp2145
S'alkyne'
p2146
asg37
F0.51
ssS'mobley_2310185'
p2147
(dp2148
g3
S'CCO'
p2149
sg24
g25
sg26
F0.03
sg27
F-5.0
sg9
(lp2150
g11
asg29
S'ethanol'
p2151
sg14
F0.6
sg31
g32
sg17
(lp2152
S'primary alcohol'
p2153
asg37
F-3.45
ssS'mobley_7099614'
p2154
(dp2155
g3
S'C=CCCl'
p2156
sg24
g25
sg26
F0.02
sg27
F-0.57
sg9
(lp2157
g11
asg29
S'3-chloroprop-1-ene'
p2158
sg14
F0.6
sg31
g32
sg17
(lp2159
S'alkyl chloride'
p2160
aS'alkene'
p2161
asg37
F0.88
ssS'mobley_7295828'
p2162
(dp2163
g3
S'COc1ccccc1'
p2164
sg24
g25
sg26
F0.02
sg27
F-2.45
sg9
(lp2165
g11
asg29
S'anisole'
p2166
sg14
F0.6
sg31
g32
sg17
(lp2167
S'alkyl aryl ether'
p2168
aS'aromatic'
p2169
asg37
F-2.3
ssS'mobley_63712'
p2170
(dp2171
g3
S'CN1CCCCC1'
p2172
sg24
g25
sg26
F0.02
sg27
F-3.88
sg9
(lp2173
g11
asg29
S'1-methylpiperidine'
p2174
sg14
F0.6
sg31
g32
sg17
(lp2175
S'tertiary amine'
p2176
aS'tertiary aliphatic amine (trialkylamine)'
p2177
aS'heterocyclic'
p2178
asg37
F-3.21
ssS'mobley_3060426'
p2179
(dp2180
g3
S'CC(C)CCC(C)(C)C'
p2181
sg24
g25
sg26
F0.03
sg27
F2.93
sg9
(lp2182
g11
asg29
S'2,2,5-trimethylhexane'
p2183
sg14
F0.6
sg31
g32
sg17
(lp2184
S''
p2185
asg37
F2.86
ssS'mobley_7176248'
p2186
(dp2187
g3
S'CCCN(CCC)c1c(cc(cc1[N+](=O)[O-])C(F)(F)F)[N+](=O)[O-]'
p2188
sg158
g159
sg160
F0.04
sg9
(lp2189
g11
aS'Changed IUPAC name from trifluralin to 2,6-Dinitro-N,N-dipropyl-4-(trifluoromethyl)aniline for better handling/standardization.'
p2190
asg162
S'trifluralin'
p2191
sg164
F0.1
sg165
F-3.25
sg17
(lp2192
S'tertiary amine'
p2193
aS'tertiary aliphatic/aromatic amine (alkylarylamine)'
p2194
aS'halogen derivative'
p2195
aS'nitro'
p2196
aS'aromatic'
p2197
asg168
F-2.58
sg169
g170
ssS'mobley_3359593'
p2198
(dp2199
g3
S'CCCc1ccc(c(c1)OC)O'
p2200
sg244
g245
sg246
F0.024
sg9
(lp2201
g11
asg248
S'4-propylguaiacol'
p2202
sg250
F0.18
sg261
F-5.26
sg17
(lp2203
S'phenol or hydroxyhetarene'
p2204
aS'alkyl aryl ether'
p2205
aS'aromatic'
p2206
asg269
F-4.1
sg270
g271
ssS'mobley_5282042'
p2207
(dp2208
g3
S'CN(C)CCC=C1c2ccccc2CCc3c1cccc3'
p2209
sg244
g245
sg246
F0.031
sg9
(lp2210
g11
asg248
S'Amitriptyline'
p2211
sg250
F0.6
sg261
F-7.43
sg17
(lp2212
S'tertiary amine'
p2213
aS'tertiary aliphatic amine (trialkylamine)'
p2214
aS'alkene'
p2215
aS'aromatic'
p2216
asg269
F-8.28
sg270
g271
ssS'mobley_2607611'
p2217
(dp2218
g3
S'CCCCCCOC(=O)C'
p2219
sg24
g25
sg26
F0.03
sg27
F-2.26
sg9
(lp2220
g11
asg29
S'hexyl acetate'
p2221
sg14
F0.6
sg31
g32
sg17
(lp2222
S'carboxylic acid ester'
p2223
asg37
F-2.97
ssS'mobley_1036761'
p2224
(dp2225
g3
S'C1CCC(CC1)N'
p2226
sg24
g25
sg26
F0.02
sg27
F-4.59
sg9
(lp2227
g11
asg29
S'cyclohexanamine'
p2228
sg14
F0.6
sg31
g32
sg17
(lp2229
S'primary amine'
p2230
aS'primary aliphatic amine (alkylamine)'
p2231
asg37
F-3.94
ssS'mobley_4893032'
p2232
(dp2233
g3
S'CCCCC#N'
p2234
sg24
g25
sg26
F0.02
sg27
F-3.52
sg9
(lp2235
g11
asg29
S'pentanenitrile'
p2236
sg14
F0.6
sg31
g32
sg17
(lp2237
S'carbonitrile'
p2238
asg37
F-2.16
ssS'mobley_8558116'
p2239
(dp2240
g3
S'CN1CCOCC1'
p2241
sg24
g25
sg26
F0.03
sg27
F-6.32
sg9
(lp2242
g11
asg29
S'4-methylmorpholine'
p2243
sg14
F0.6
sg31
g32
sg17
(lp2244
S'dialkyl ether'
p2245
aS'tertiary amine'
p2246
aS'tertiary aliphatic amine (trialkylamine)'
p2247
aS'heterocyclic'
p2248
asg37
F-5.87
ssS'mobley_5518547'
p2249
(dp2250
g3
S'Cc1ccc(cc1)N'
p2251
sg24
g25
sg26
F0.03
sg27
F-5.57
sg9
(lp2252
g11
asg29
S'4-methylaniline'
p2253
sg14
F0.6
sg31
g32
sg17
(lp2254
S'primary amine'
p2255
aS'primary aromatic amine'
p2256
aS'aromatic'
p2257
asg37
F-5.56
ssS'mobley_3378420'
p2258
(dp2259
g3
S'CCCCCCCCCO'
p2260
sg24
g25
sg26
F0.03
sg27
F-3.88
sg9
(lp2261
g11
asg29
S'nonan-1-ol'
p2262
sg14
F0.6
sg31
g32
sg17
(lp2263
S'primary alcohol'
p2264
asg37
F-2.54
ssS'mobley_9794857'
p2265
(dp2266
g3
S'CC(C)(C)OC'
p2267
sg24
g25
sg26
F0.02
sg27
F-2.21
sg9
(lp2268
g11
asg29
S'2-methoxy-2-methyl-propane'
p2269
sg14
F0.6
sg31
g32
sg17
(lp2270
S'dialkyl ether'
p2271
asg37
F-0.68
ssS'mobley_6456034'
p2272
(dp2273
g3
S'CC(C)COC(=O)C(C)C'
p2274
sg24
g25
sg26
F0.03
sg27
F-1.69
sg9
(lp2275
g11
asg29
S'isobutyl 2-methylpropanoate'
p2276
sg14
F0.6
sg31
g32
sg17
(lp2277
S'carboxylic acid ester'
p2278
asg37
F-2.55
ssS'mobley_3573480'
p2279
(dp2280
g3
S'CCCCCC(=O)C'
p2281
sg24
g25
sg26
F0.02
sg27
F-3.04
sg9
(lp2282
g11
asg29
S'heptan-2-one'
p2283
sg14
F0.6
sg31
g32
sg17
(lp2284
S'ketone'
p2285
asg37
F-2.8
ssS'mobley_676247'
p2286
(dp2287
g3
S'C(F)(F)(F)F'
p2288
sg24
g25
sg26
F0.01
sg27
F3.12
sg9
(lp2289
g11
asg29
S'tetrafluoromethane'
p2290
sg14
F0.6
sg31
g32
sg17
(lp2291
S'halogen derivative'
p2292
asg37
F2.42
ssS'mobley_5760563'
p2293
(dp2294
g3
S'COS(=O)(=O)OC'
p2295
sg24
g25
sg26
F0.02
sg27
F-5.1
sg9
(lp2296
g11
asg29
S'dimethyl sulfate'
p2297
sg14
F0.6
sg31
g32
sg17
(lp2298
S'sulfuric acid diester'
p2299
asg37
F-7.85
ssS'mobley_8754702'
p2300
(dp2301
g3
S'CCCOC=O'
p2302
sg24
g25
sg26
F0.02
sg27
F-2.48
sg9
(lp2303
g11
asg29
S'propyl formate'
p2304
sg14
F0.6
sg31
g32
sg17
(lp2305
S'carboxylic acid ester'
p2306
asg37
F-3.5
ssS'mobley_3169935'
p2307
(dp2308
g3
S'c1ccc(c(c1)N)Cl'
p2309
sg24
g25
sg26
F0.03
sg27
F-4.91
sg9
(lp2310
g11
asg29
S'2-chloroaniline'
p2311
sg14
F0.6
sg31
g32
sg17
(lp2312
S'primary amine'
p2313
aS'primary aromatic amine'
p2314
aS'aryl chloride'
p2315
aS'aromatic'
p2316
asg37
F-4.96
ssS'mobley_5311804'
p2317
(dp2318
g3
S'c1ccc(cc1)CO'
p2319
sg24
g25
sg26
F0.03
sg27
F-6.62
sg9
(lp2320
g11
asg29
S'phenylmethanol'
p2321
sg14
F0.6
sg31
g32
sg17
(lp2322
S'primary alcohol'
p2323
aS'aromatic'
p2324
asg37
F-5.41
ssS'mobley_6115639'
p2325
(dp2326
g3
S'COP(=O)(OC)OC'
p2327
sg408
g409
sg410
F0.06
sg9
(lp2328
g11
asg412
S'trimethyl phosphate'
p2329
sg414
F0.1
sg415
F-8.7
sg17
(lp2330
S''
p2331
asg421
F-11.36
sg422
g423
ssS'mobley_6714389'
p2332
(dp2333
g3
S'CN'
p2334
sg24
g25
sg26
F0.01
sg27
F-4.55
sg9
(lp2335
g11
asg29
S'methanamine'
p2336
sg14
F0.6
sg31
g32
sg17
(lp2337
S'primary amine'
p2338
aS'primary aliphatic amine (alkylamine)'
p2339
asg37
F-3.44
ssS'mobley_9015240'
p2340
(dp2341
g3
S'CCCCCCCCBr'
p2342
sg24
g25
sg26
F0.03
sg27
F0.52
sg9
(lp2343
g11
asg29
S'1-bromooctane'
p2344
sg14
F0.6
sg31
g32
sg17
(lp2345
S'alkyl bromide'
p2346
asg37
F1.92
ssS'mobley_1417007'
p2347
(dp2348
g3
S'C1C=CC[C@@H]2[C@@H]1C(=O)N(C2=O)SC(Cl)(Cl)Cl'
p2349
sg158
g159
sg160
F0.04
sg9
(lp2350
S'Renamed mobley_1417007 from captan to (3aR,7aR)-2-(trichloromethylsulfanyl)-3a,4,7,7a-tetrahydroisoindole-1,3-dione (the name from the 3D structure) since the former did not completely specify stereochemistry.\n'
p2351
asg162
S'captan'
p2352
sg164
F1.93
sg165
F-9.01
sg17
(lp2353
S'halogen derivative'
p2354
aS'carboxylic acid imide, N-substituted'
p2355
aS'alkene'
p2356
aS'heterocyclic'
p2357
asg168
F-8.71
sg169
g170
ssS'mobley_2681549'
p2358
(dp2359
g3
S'c1c(cc(cc1Cl)Cl)Cl'
p2360
sg24
g25
sg26
F0.02
sg27
F-0.78
sg9
(lp2361
g11
asg29
S'1,3,5-trichlorobenzene'
p2362
sg14
F0.6
sg31
g32
sg17
(lp2363
S'aryl chloride'
p2364
aS'aromatic'
p2365
asg37
F0.45
ssS'mobley_4287564'
p2366
(dp2367
g3
S'Cc1ccccn1'
p2368
sg24
g25
sg26
F0.02
sg27
F-4.63
sg9
(lp2369
g11
asg29
S'2-methylpyridine'
p2370
sg14
F0.6
sg31
g32
sg17
(lp2371
S'aromatic'
p2372
aS'heterocyclic'
p2373
asg37
F-3.41
ssS'mobley_9653690'
p2374
(dp2375
g3
S'CC1=CC[C@H](C[C@@H]1O)C(=C)C'
p2376
sg244
g245
sg246
F0.021
sg9
(lp2377
g11
asg248
S'(1S,5R)-2-methyl-5-(1-methylethenyl)-2-cyclohexen-1-ol'
p2378
sg250
F0.43
sg261
F-4.44
sg17
(lp2379
S'secondary alcohol'
p2380
aS'alkene'
p2381
asg269
F-3.38
sg270
g271
ssS'mobley_2043882'
p2382
(dp2383
g3
S'CC(=O)C1CCCCC1'
p2384
sg24
g25
sg26
F0.02
sg27
F-3.9
sg9
(lp2385
g11
asg29
S'1-cyclohexylethanone'
p2386
sg14
F0.6
sg31
g32
sg17
(lp2387
S'ketone'
p2388
asg37
F-3.9
ssS'mobley_352111'
p2389
(dp2390
g3
S'CC(=O)OCCOC(=O)C'
p2391
sg24
g25
sg26
F0.04
sg27
F-6.34
sg9
(lp2392
g11
asg29
S'2-acetoxyethyl acetate'
p2393
sg14
F0.6
sg31
g32
sg17
(lp2394
S'carboxylic acid ester'
p2395
asg37
F-8.32
ssS'mobley_3686115'
p2396
(dp2397
g3
S'CCOC(C)OCC'
p2398
sg1209
g1210
sg1211
F0.08
sg1212
(lp2399
g1214
ag11
asg1215
S'1,1-diethoxyethane'
p2400
sg14
F0.6
sg1217
F-3.28
sg17
(lp2401
S'acetal'
p2402
asg1220
F-1.89
sg1221
g1210
ssS'mobley_8337722'
p2403
(dp2404
g3
S'C[C@@H]1CC[C@H]([C@@H](C1)O)C(C)C'
p2405
sg244
g245
sg246
F0.021
sg9
(lp2406
g11
asg248
S'(1R,2S,5R)-2-isopropyl-5-methylcyclohexanol'
p2407
sg250
F0.28
sg261
F-3.2
sg17
(lp2408
S'secondary alcohol'
p2409
asg269
F-3.39
sg270
g271
ssS'mobley_7326706'
p2410
(dp2411
g3
S'CCOP(=S)(OCC)Oc1c(cc(c(n1)Cl)Cl)Cl'
p2412
sg158
g159
sg160
F0.04
sg9
(lp2413
g11
asg162
S'chlorpyrifos'
p2414
sg164
F0.21
sg165
F-5.04
sg17
(lp2415
S'aryl chloride'
p2416
aS'aromatic'
p2417
aS'heterocyclic'
p2418
asg168
F-9.05
sg169
g170
ssS'mobley_3144334'
p2419
(dp2420
g3
S'Cc1ccc(c(c1)O)C'
p2421
sg24
g25
sg26
F0.03
sg27
F-5.91
sg9
(lp2422
g11
asg29
S'2,5-dimethylphenol'
p2423
sg14
F0.6
sg31
g32
sg17
(lp2424
S'phenol or hydroxyhetarene'
p2425
aS'aromatic'
p2426
asg37
F-4.39
ssS'mobley_2078467'
p2427
(dp2428
g3
S'C[C@@H](c1ccc(cc1)CC(C)C)C(=O)O'
p2429
sg408
g409
sg410
F0.07
sg9
(lp2430
g11
asg412
S'ibuprofen'
p2431
sg414
F0.64
sg415
F-7.0
sg17
(lp2432
S'carboxylic acid'
p2433
aS'aromatic'
p2434
asg421
F-6.91
sg422
g423
ssS'mobley_5973402'
p2435
(dp2436
g3
S'CC(C)CCO'
p2437
sg24
g25
sg26
F0.03
sg27
F-4.42
sg9
(lp2438
g11
asg29
S'3-methylbutan-1-ol'
p2439
sg14
F0.6
sg31
g32
sg17
(lp2440
S'primary alcohol'
p2441
asg37
F-2.92
ssS'mobley_6353617'
p2442
(dp2443
g3
S'CC(=O)c1cccnc1'
p2444
sg24
g25
sg26
F0.03
sg27
F-8.26
sg9
(lp2445
g11
asg29
S'1-(3-pyridyl)ethanone'
p2446
sg14
F0.6
sg31
g32
sg17
(lp2447
S'ketone'
p2448
aS'aromatic'
p2449
aS'heterocyclic'
p2450
asg37
F-7.1
ssS'mobley_2261979'
p2451
(dp2452
g3
S'c1cc2cccc3c2c(c1)CC3'
p2453
sg24
g25
sg26
F0.03
sg27
F-3.15
sg9
(lp2454
g11
asg29
S'acenaphthene'
p2455
sg14
F0.6
sg31
g32
sg17
(lp2456
S'aromatic'
p2457
asg37
F-3.51
ssS'mobley_4715906'
p2458
(dp2459
g3
S'C[C@@H]1CCCC[C@@H]1C'
p2460
sg24
g25
sg26
F0.02
sg27
F1.58
sg9
(lp2461
S'Renamed mobley_4715906 from 1,2-dimethylcyclohexane to (1R,2S)-1,2-dimethylcyclohexane (the name from the 3D structure) since the former did not completely specify stereochemistry.\n'
p2462
asg29
S'1,2-dimethylcyclohexane'
p2463
sg14
F0.6
sg31
g32
sg17
(lp2464
S''
p2465
asg37
F2.05
ssS'mobley_5952846'
p2466
(dp2467
g3
S'C(=C(Cl)Cl)(Cl)Cl'
p2468
sg24
g25
sg26
F0.02
sg27
F0.1
sg9
(lp2469
g11
asg29
S'1,1,2,2-tetrachloroethylene'
p2470
sg14
F0.6
sg31
g32
sg17
(lp2471
S'halogen derivative'
p2472
asg37
F1.41
ssS'mobley_1903702'
p2473
(dp2474
g3
S'CC[C@H](C)O'
p2475
sg24
g25
sg26
F0.03
sg27
F-4.62
sg9
(lp2476
S'Renamed mobley_1903702 from butan-2-ol to (2S)-butan-2-ol (the name from the 3D structure) since the former did not completely specify stereochemistry.\n'
p2477
asg29
S'butan-2-ol'
p2478
sg14
F0.6
sg31
g32
sg17
(lp2479
S'secondary alcohol'
p2480
asg37
F-3.12
ssS'mobley_5220185'
p2481
(dp2482
g3
S'CCc1cnccn1'
p2483
sg24
g25
sg26
F0.03
sg27
F-5.45
sg9
(lp2484
g11
asg29
S'2-ethylpyrazine'
p2485
sg14
F0.6
sg31
g32
sg17
(lp2486
S'aromatic'
p2487
aS'heterocyclic'
p2488
asg37
F-5.68
ssS'mobley_5510474'
p2489
(dp2490
g3
S'c1ccc2c(c1)Oc3c(c(c(c(c3Cl)Cl)Cl)Cl)O2'
p2491
sg190
g191
sg192
F0.03
sg9
(lp2492
g11
asg194
S'1,2,3,4-tetrachlorodibenzo-p-dioxin'
p2493
sg196
F0.14
sg197
F-3.81
sg17
(lp2494
S'diaryl ether'
p2495
aS'aryl chloride'
p2496
aS'aromatic'
p2497
aS'heterocyclic'
p2498
asg200
F-2.7
sg201
g202
ssS'mobley_1944394'
p2499
(dp2500
g3
S'CN(C)CCOC(c1ccccc1)c2ccccc2'
p2501
sg244
g245
sg246
F0.031
sg9
(lp2502
g11
asg248
S'[2-benzhydryloxyethyl]-dimethyl-amine'
p2503
sg250
g251
(g255
S'\xd7\xa3p=\n\xd7\xe3?'
p2504
tp2505
Rp2506
sg261
g251
(g255
S'\xaeG\xe1z\x14\xae"\xc0'
p2507
tp2508
Rp2509
sg17
(lp2510
S'dialkyl ether'
p2511
aS'tertiary amine'
p2512
aS'tertiary aliphatic amine (trialkylamine)'
p2513
aS'aromatic'
p2514
asg269
F-8.15
sg270
g271
ssS'mobley_2501588'
p2515
(dp2516
g3
S'CCC[N@@](CC1CC1)c2c(cc(cc2[N+](=O)[O-])C(F)(F)F)[N+](=O)[O-]'
p2517
sg158
g159
sg160
F0.04
sg9
(lp2518
g11
asg162
S'profluralin'
p2519
sg164
F1.37
sg165
F-2.45
sg17
(lp2520
S'tertiary amine'
p2521
aS'tertiary aliphatic/aromatic amine (alkylarylamine)'
p2522
aS'halogen derivative'
p2523
aS'nitro'
p2524
aS'aromatic'
p2525
asg168
F-1.81
sg169
g170
ssS'mobley_3968739'
p2526
(dp2527
g3
S'COC(=O)c1ccccc1'
p2528
sg24
g25
sg26
F0.03
sg27
F-3.92
sg9
(lp2529
g11
asg29
S'methyl benzoate'
p2530
sg14
F0.6
sg31
g32
sg17
(lp2531
S'carboxylic acid ester'
p2532
aS'aromatic'
p2533
asg37
F-5.06
ssS'mobley_9897248'
p2534
(dp2535
g3
S'CC(=CCC/C(=C\\CO)/C)C'
p2536
sg244
g245
sg246
F0.022
sg9
(lp2537
g11
aS'Former IUPAC name Nerol replaced with one generated from the 3D structure, (2Z)-3,7-dimethylocta-2,6-dien-1-ol'
p2538
asg248
S'(2Z)-3,7-dimethylocta-2,6-dien-1-ol'
p2539
sg250
g251
(g255
S'\x00\x00\x00\x00\x00\x00\xd0?'
p2540
tp2541
Rp2542
sg261
g251
(g255
S'\x1f\x85\xebQ\xb8\x1e\x13\xc0'
p2543
tp2544
Rp2545
sg17
(lp2546
S'primary alcohol'
p2547
aS'alkene'
p2548
asg269
F-2.64
sg270
g271
ssS'mobley_3727287'
p2549
(dp2550
g3
S'C1=CC(=O)C=CC1=O'
p2551
sg5
g6
sg7
F0.1
sg8
F-6.5
sg9
(lp2552
g11
asg12
S'quinone'
p2553
sg14
F0.6
sg15
g16
sg17
(lp2554
S'ketone'
p2555
aS'alkene'
p2556
asg20
F-6.9
ssS'mobley_2577969'
p2557
(dp2558
g3
S'c1cc2ccc3cccc4c3c2c(c1)cc4'
p2559
sg24
g25
sg26
F0.03
sg27
F-4.52
sg9
(lp2560
g11
asg29
S'pyrene'
p2561
sg14
F0.6
sg31
g32
sg17
(lp2562
S'aromatic'
p2563
asg37
F-6.62
ssS'mobley_6620221'
p2564
(dp2565
g3
S'CC1(Cc2cccc(c2O1)OC(=O)NC)C'
p2566
sg158
g159
sg160
F0.04
sg9
(lp2567
g11
asg162
S'carbofuran'
p2568
sg164
F0.3
sg165
F-9.61
sg17
(lp2569
S'alkyl aryl ether'
p2570
aS'aromatic'
p2571
aS'heterocyclic'
p2572
asg168
F-11.21
sg169
g170
ssS'mobley_3370989'
p2573
(dp2574
g3
S'CC(F)F'
p2575
sg24
g25
sg26
F0.02
sg27
F-0.11
sg9
(lp2576
g11
asg29
S'1,1-difluoroethane'
p2577
sg14
F0.6
sg31
g32
sg17
(lp2578
S'alkyl fluoride'
p2579
asg37
F0.19
ssS'mobley_7814642'
p2580
(dp2581
g3
S'c1cc(c(cc1Cl)Cl)Cl'
p2582
sg24
g25
sg26
F0.02
sg27
F-1.12
sg9
(lp2583
g11
asg29
S'1,2,4-trichlorobenzene'
p2584
sg14
F0.6
sg31
g32
sg17
(lp2585
S'aryl chloride'
p2586
aS'aromatic'
p2587
asg37
F-0.18
ssS'mobley_6239320'
p2588
(dp2589
g3
S'c1(=O)[nH]c(=O)[nH]c(=O)[nH]1'
p2590
sg408
g409
sg410
F0.07
sg9
(lp2591
g11
asg412
S'cyanuric acid'
p2592
sg414
F0.27
sg415
F-18.06
sg17
(lp2593
S'oxo(het)arene'
p2594
aS'aromatic'
p2595
aS'heterocyclic'
p2596
asg421
F-21.71
sg422
g423
ssS'mobley_5056289'
p2597
(dp2598
g3
S'C[C@H]1CCCO1'
p2599
sg24
g25
sg26
F0.02
sg27
F-3.3
sg9
(lp2600
S'Renamed mobley_5056289 from 2-methyltetrahydrofuran to (2S)-2-methyltetrahydrofuran (the name from the 3D structure) since the former did not completely specify stereochemistry.\n'
p2601
asg29
S'2-methyltetrahydrofuran'
p2602
sg14
F0.6
sg31
g32
sg17
(lp2603
S'dialkyl ether'
p2604
aS'heterocyclic'
p2605
asg37
F-1.95
ssS'mobley_1261349'
p2606
(dp2607
g3
S'CC(C)(C)C'
p2608
sg24
g25
sg26
F0.02
sg27
F2.51
sg9
(lp2609
g11
asg29
S'neopentane'
p2610
sg14
F0.6
sg31
g32
sg17
(lp2611
S''
p2612
asg37
F2.6
ssS'mobley_1363784'
p2613
(dp2614
g3
S'Cc1cc(cnc1)C'
p2615
sg24
g25
sg26
F0.02
sg27
F-4.84
sg9
(lp2616
g11
asg29
S'3,5-dimethylpyridine'
p2617
sg14
F0.6
sg31
g32
sg17
(lp2618
S'aromatic'
p2619
aS'heterocyclic'
p2620
asg37
F-2.94
ssS'mobley_628086'
p2621
(dp2622
g3
S'C[C@@H](C(F)(F)F)O'
p2623
sg24
g25
sg26
F0.03
sg27
F-4.16
sg9
(lp2624
S'Renamed mobley_628086 from 1,1,1-trifluoropropan-2-ol to (2S)-1,1,1-trifluoropropan-2-ol (the name from the 3D structure) since the former did not completely specify stereochemistry.\n'
p2625
asg29
S'1,1,1-trifluoropropan-2-ol'
p2626
sg14
F0.6
sg31
g32
sg17
(lp2627
S'secondary alcohol'
p2628
aS'halogen derivative'
p2629
asg37
F-3.56
ssS'mobley_8207196'
p2630
(dp2631
g3
S'CCNc1nc(nc(n1)Cl)NCC'
p2632
sg158
g159
sg160
F0.04
sg9
(lp2633
g11
asg162
S'simazine'
p2634
sg164
F0.1
sg165
F-10.22
sg17
(lp2635
S'secondary amine'
p2636
aS'secondary aliphatic/aromatic amine (alkylarylamine)'
p2637
aS'aryl chloride'
p2638
aS'aromatic'
p2639
aS'heterocyclic'
p2640
asg168
F-8.63
sg169
g170
ssS'mobley_7039935'
p2641
(dp2642
g3
S'c1ccc2c(c1)cccc2O'
p2643
sg24
g25
sg26
F0.03
sg27
F-7.67
sg9
(lp2644
g11
asg29
S'naphthalen-1-ol'
p2645
sg14
F0.6
sg31
g32
sg17
(lp2646
S'phenol or hydroxyhetarene'
p2647
aS'aromatic'
p2648
asg37
F-7.51
ssS'mobley_1662128'
p2649
(dp2650
g3
S'CCC=C'
p2651
sg24
g25
sg26
F0.02
sg27
F1.38
sg9
(lp2652
g11
asg29
S'but-1-ene'
p2653
sg14
F0.6
sg31
g32
sg17
(lp2654
S'alkene'
p2655
asg37
F2.48
ssS'mobley_3034976'
p2656
(dp2657
g3
S'CC(=O)O'
p2658
sg24
g25
sg26
F0.02
sg27
F-6.69
sg9
(lp2659
g11
asg29
S'acetic acid'
p2660
sg14
F0.6
sg31
g32
sg17
(lp2661
S'carboxylic acid'
p2662
asg37
F-5.95
ssS'mobley_9510785'
p2663
(dp2664
g3
S'c1ccc(cc1)c2cc(c(c(c2Cl)Cl)Cl)Cl'
p2665
sg190
g191
sg192
F0.03
sg9
(lp2666
g11
asg194
S'1,2,3,4-tetrachloro-5-phenyl-benzene'
p2667
sg196
F1.0
sg197
F-3.48
sg17
(lp2668
S'aryl chloride'
p2669
aS'aromatic'
p2670
asg200
F-1.34
sg201
g202
ssS'mobley_4465023'
p2671
(dp2672
g3
S'C(=C\\Cl)\\Cl'
p2673
sg24
g25
sg26
F0.02
sg27
F-1.17
sg9
(lp2674
S'Renamed mobley_4465023 from (Z)-1,2-dichloroethylene to (Z)-1,2-dichloroethylene (the name from the 3D structure) since the former did not completely specify stereochemistry.\n'
p2675
asg29
S'(Z)-1,2-dichloroethylene'
p2676
sg14
F0.6
sg31
g32
sg17
(lp2677
S'halogen derivative'
p2678
aS'alkene'
p2679
asg37
F0.31
ssS'mobley_4364398'
p2680
(dp2681
g3
S'CI'
p2682
sg24
g25
sg26
F0.01
sg27
F-0.89
sg9
(lp2683
g11
asg29
S'iodomethane'
p2684
sg14
F0.6
sg31
g32
sg17
(lp2685
S'alkyl iodide'
p2686
asg37
F0.03
ssS'mobley_6917738'
p2687
(dp2688
g3
S'COCCN'
p2689
sg24
g25
sg26
F0.03
sg27
F-6.55
sg9
(lp2690
g11
asg29
S'2-methoxyethanamine'
p2691
sg14
F0.6
sg31
g32
sg17
(lp2692
S'dialkyl ether'
p2693
aS'primary amine'
p2694
aS'primary aliphatic amine (alkylamine)'
p2695
asg37
F-5.62
ssS'mobley_6102880'
p2696
(dp2697
g3
S'c1ccc(cc1)Oc2ccccc2'
p2698
sg244
g245
sg246
F0.02
sg9
(lp2699
g11
asg248
S'diphenyl ether'
p2700
sg250
g251
(g255
S'\x14\xaeG\xe1z\x14\xe6?'
p2701
tp2702
Rp2703
sg261
g251
(g255
S'\xf6(\\\x8f\xc2\xf5\x06\xc0'
p2704
tp2705
Rp2706
sg17
(lp2707
S'diaryl ether'
p2708
aS'aromatic'
p2709
asg269
F-2.79
sg270
g271
ssS'mobley_8118832'
p2710
(dp2711
g3
S'C=CCO'
p2712
sg24
g25
sg26
F0.03
sg27
F-5.03
sg9
(lp2713
g11
asg29
S'prop-2-en-1-ol'
p2714
sg14
F0.6
sg31
g32
sg17
(lp2715
S'primary alcohol'
p2716
aS'alkene'
p2717
asg37
F-3.23
ssS'mobley_5076071'
p2718
(dp2719
g3
S'CCN(CC)c1c(cc(c(c1[N+](=O)[O-])N)C(F)(F)F)[N+](=O)[O-]'
p2720
sg158
g159
sg160
F0.04
sg9
(lp2721
g11
aS'Changed IUPAC name from dinitramine to 1-N,1-N-diethyl-2,6-dinitro-4-(trifluoromethyl)benzene-1,3-diamine for better handling/standardization.'
p2722
asg162
S'dinitramine'
p2723
sg164
F1.93
sg165
F-5.66
sg17
(lp2724
S'primary amine'
p2725
aS'primary aromatic amine'
p2726
aS'tertiary amine'
p2727
aS'tertiary aliphatic/aromatic amine (alkylarylamine)'
p2728
aS'halogen derivative'
p2729
aS'nitro'
p2730
aS'aromatic'
p2731
asg168
F-7.42
sg169
g170
ssS'mobley_20524'
p2732
(dp2733
g3
S'c1ccc(cc1)O'
p2734
sg5
g6
sg7
F0.1
sg8
F-6.6
sg9
(lp2735
g11
asg12
S'phenol'
p2736
sg14
F0.6
sg15
g16
sg17
(lp2737
S'phenol or hydroxyhetarene'
p2738
aS'aromatic'
p2739
asg20
F-4.6
ssS'mobley_7378987'
p2740
(dp2741
g3
S'Cn1cnc2c1c(=O)n(c(=O)n2C)C'
p2742
sg408
g409
sg410
F0.07
sg9
(lp2743
g11
asg412
S'caffeine'
p2744
sg414
F0.74
sg415
F-12.64
sg17
(lp2745
S'oxo(het)arene'
p2746
aS'aromatic'
p2747
aS'heterocyclic'
p2748
asg421
F-17.57
sg422
g423
ssS'mobley_5499659'
p2749
(dp2750
g3
S'Cn1ccnc1'
p2751
sg24
g25
sg26
F0.03
sg27
F-8.41
sg9
(lp2752
g11
asg29
S'1-methylimidazole'
p2753
sg14
F0.6
sg31
g32
sg17
(lp2754
S'aromatic'
p2755
aS'heterocyclic'
p2756
asg37
F-6.33
ssS'mobley_7227357'
p2757
(dp2758
g3
S'CCC(CC)O'
p2759
sg24
g25
sg26
F0.02
sg27
F-4.35
sg9
(lp2760
g11
asg29
S'pentan-3-ol'
p2761
sg14
F0.6
sg31
g32
sg17
(lp2762
S'secondary alcohol'
p2763
asg37
F-2.95
ssS'mobley_9139060'
p2764
(dp2765
g3
S'CC1CCC(CC1)C'
p2766
sg24
g25
sg26
F0.02
sg27
F2.11
sg9
(lp2767
g11
asg29
S'1,4-dimethylcyclohexane'
p2768
sg14
F0.6
sg31
g32
sg17
(lp2769
S''
p2770
asg37
F2.05
ssS'mobley_2996632'
p2771
(dp2772
g3
S'C(Cl)(Cl)Cl'
p2773
sg24
g25
sg26
F0.02
sg27
F-1.08
sg9
(lp2774
g11
asg29
S'chloroform'
p2775
sg14
F0.6
sg31
g32
sg17
(lp2776
S'halogen derivative'
p2777
asg37
F0.32
ssS'mobley_9073553'
p2778
(dp2779
g3
S'CSC'
p2780
sg24
g25
sg26
F0.02
sg27
F-1.61
sg9
(lp2781
g11
asg29
S'methylsulfanylmethane'
p2782
sg14
F0.6
sg31
g32
sg17
(lp2783
S'thioether'
p2784
asg37
F0.26
ssS'mobley_397645'
p2785
(dp2786
g3
S'CCOC(=O)c1ccccc1'
p2787
sg24
g25
sg26
F0.02
sg27
F-3.64
sg9
(lp2788
g11
asg29
S'ethyl benzoate'
p2789
sg14
F0.6
sg31
g32
sg17
(lp2790
S'carboxylic acid ester'
p2791
aS'aromatic'
p2792
asg37
F-4.68
ssS'mobley_2518989'
p2793
(dp2794
g3
S'CCOP(=S)(OCC)S[C@@H](CCl)N1C(=O)c2ccccc2C1=O'
p2795
sg158
g159
sg160
F0.06
sg9
(lp2796
S'Renamed mobley_2518989 from 2-(2-chloro-1-diethoxyphosphinothioylsulfanylethyl)isoindole-1,3-dione to 2-[(1S)-2-chloro-1-diethoxyphosphinothioylsulfanyl-ethyl]isoindoline-1,3-dione (the name from the 3D structure) since the former did not completely specify stereochemistry.\n'
p2797
asg162
S'dialifor'
p2798
sg164
F1.93
sg165
F-5.74
sg17
(lp2799
S'alkyl chloride'
p2800
aS'carboxylic acid imide, N-substituted'
p2801
aS'aromatic'
p2802
aS'heterocyclic'
p2803
asg168
F-15.1
sg169
g170
ssS'mobley_282648'
p2804
(dp2805
g3
S'c1ccc2ccccc2c1'
p2806
sg24
g25
sg26
F0.02
sg27
F-2.4
sg9
(lp2807
g11
asg29
S'naphthalene'
p2808
sg14
F0.6
sg31
g32
sg17
(lp2809
S'aromatic'
p2810
asg37
F-3.34
ssS'mobley_5857'
p2811
(dp2812
g3
S'c1ccc2c(c1)cccn2'
p2813
sg24
g25
sg26
F0.02
sg27
F-5.72
sg9
(lp2814
g11
asg29
S'quinoline'
p2815
sg14
F0.6
sg31
g32
sg17
(lp2816
S'aromatic'
p2817
aS'heterocyclic'
p2818
asg37
F-4.87
ssS'mobley_197466'
p2819
(dp2820
g3
S'CC(=O)C1CC1'
p2821
sg24
g25
sg26
F0.02
sg27
F-4.61
sg9
(lp2822
g11
asg29
S'1-cyclopropylethanone'
p2823
sg14
F0.6
sg31
g32
sg17
(lp2824
S'ketone'
p2825
asg37
F-3.74
ssS'mobley_7676709'
p2826
(dp2827
g3
S'CC1=CC(=O)[C@@H](CC1)C(C)C'
p2828
sg244
g245
sg246
F0.022
sg9
(lp2829
S'Renamed mobley_7676709 from 6-isopropyl-3-methyl-1-cyclohex-2-enone to (6S)-6-isopropyl-3-methyl-cyclohex-2-en-1-one (the name from the 3D structure) since the former did not completely specify stereochemistry.\n'
p2830
asg248
S'6-isopropyl-3-methyl-1-cyclohex-2-enone'
p2831
sg250
F0.1
sg261
F-4.51
sg17
(lp2832
S'ketone'
p2833
aS'alkene'
p2834
asg269
F-3.81
sg270
g271
ssS'mobley_718988'
p2835
(dp2836
g3
S'CCCCCCCN'
p2837
sg24
g25
sg26
F0.03
sg27
F-3.79
sg9
(lp2838
g11
asg29
S'heptan-1-amine'
p2839
sg14
F0.6
sg31
g32
sg17
(lp2840
S'primary amine'
p2841
aS'primary aliphatic amine (alkylamine)'
p2842
asg37
F-2.72
ssS'mobley_967099'
p2843
(dp2844
g3
S'CC(C)[N+](=O)[O-]'
p2845
sg24
g25
sg26
F0.02
sg27
F-3.13
sg9
(lp2846
g11
asg29
S'2-nitropropane'
p2847
sg14
F0.6
sg31
g32
sg17
(lp2848
S'nitro'
p2849
asg37
F-1.61
ssS'mobley_1792062'
p2850
(dp2851
g3
S'C(CBr)Br'
p2852
sg24
g25
sg26
F0.02
sg27
F-2.33
sg9
(lp2853
g11
asg29
S'1,2-dibromoethane'
p2854
sg14
F0.6
sg31
g32
sg17
(lp2855
S'alkyl bromide'
p2856
asg37
F0.19
ssS'mobley_7203421'
p2857
(dp2858
g3
S'CCCCCC(=O)N'
p2859
sg24
g25
sg26
F0.03
sg27
F-9.31
sg9
(lp2860
g11
asg29
S'hexanamide'
p2861
sg14
F0.6
sg31
g32
sg17
(lp2862
S''
p2863
asg37
F-8.14
ssS'mobley_4678740'
p2864
(dp2865
g3
S'c1cc(cc(c1)C(F)(F)F)C(F)(F)F'
p2866
sg1209
g1210
sg1211
F0.04
sg1212
(lp2867
g1214
ag11
aS'Changed IUPAC name from m-bis(trifluoromethyl)benzene to 1,3-bis(trifluoromethyl)benzene for better handling/standardization.'
p2868
asg1215
S'm-bis(trifluoromethyl)benzene'
p2869
sg14
F0.6
sg1217
F1.07
sg17
(lp2870
S'halogen derivative'
p2871
aS'aromatic'
p2872
asg1220
F-0.27
sg1221
g1210
ssS'mobley_7200804'
p2873
(dp2874
g3
S'c1ccc(c(c1)O)F'
p2875
sg24
g25
sg26
F0.03
sg27
F-5.29
sg9
(lp2876
g11
asg29
S'2-fluorophenol'
p2877
sg14
F0.6
sg31
g32
sg17
(lp2878
S'phenol or hydroxyhetarene'
p2879
aS'aryl fluoride'
p2880
aS'aromatic'
p2881
asg37
F-3.24
ssS'mobley_5094777'
p2882
(dp2883
g3
S'c1ccc2c(c1)CCC2'
p2884
sg24
g25
sg26
F0.02
sg27
F-1.46
sg9
(lp2885
g11
asg29
S'indane'
p2886
sg14
F0.6
sg31
g32
sg17
(lp2887
S'aromatic'
p2888
asg37
F-1.7
ssS'mobley_4561957'
p2889
(dp2890
g3
S'CC(C)C(C)C'
p2891
sg24
g25
sg26
F0.02
sg27
F2.34
sg9
(lp2892
g11
asg29
S'2,3-dimethylbutane'
p2893
sg14
F0.6
sg31
g32
sg17
(lp2894
S''
p2895
asg37
F2.69
ssS'mobley_5852491'
p2896
(dp2897
g3
S'CC1CCCC1'
p2898
sg24
g25
sg26
F0.02
sg27
F1.59
sg9
(lp2899
g11
asg29
S'methylcyclopentane'
p2900
sg14
F0.6
sg31
g32
sg17
(lp2901
S''
p2902
asg37
F2.12
ssS'mobley_1987439'
p2903
(dp2904
g3
S'Cc1cc(cc(c1)C)C'
p2905
sg24
g25
sg26
F0.02
sg27
F-0.9
sg9
(lp2906
g11
asg29
S'mesitylene'
p2907
sg14
F0.6
sg31
g32
sg17
(lp2908
S'aromatic'
p2909
asg37
F0.04
ssS'mobley_8492526'
p2910
(dp2911
g3
S'CCCCC=O'
p2912
sg24
g25
sg26
F0.02
sg27
F-3.03
sg9
(lp2913
g11
asg29
S'pentanal'
p2914
sg14
F0.6
sg31
g32
sg17
(lp2915
S'aldehyde'
p2916
asg37
F-2.96
ssS'mobley_4494568'
p2917
(dp2918
g3
S'Cc1ccc(cc1)Br'
p2919
sg24
g25
sg26
F0.02
sg27
F-1.39
sg9
(lp2920
g11
asg29
S'1-bromo-4-methyl-benzene'
p2921
sg14
F0.6
sg31
g32
sg17
(lp2922
S'aryl bromide'
p2923
aS'aromatic'
p2924
asg37
F0.04
ssS'mobley_7869158'
p2925
(dp2926
g3
S'CC[C@H](C)O[N+](=O)[O-]'
p2927
sg158
g159
sg160
F0.02
sg9
(lp2928
g11
aS'Changed IUPAC name from 2-butyl nitrate to [(2S)-butan-2-yl] nitrate for better handling/standardization.'
p2929
asg162
S'2-butyl nitrate'
p2930
sg164
F0.1
sg165
F-1.82
sg17
(lp2931
S'nitrate'
p2932
asg168
F-1.68
sg169
g170
ssS'mobley_7893124'
p2933
(dp2934
g3
S'CC(C)(C)c1ccccc1'
p2935
sg24
g25
sg26
F0.03
sg27
F-0.44
sg9
(lp2936
g11
asg29
S'tert-butylbenzene'
p2937
sg14
F0.6
sg31
g32
sg17
(lp2938
S'aromatic'
p2939
asg37
F-0.42
ssS'mobley_5880265'
p2940
(dp2941
g3
S'CCCCOCCO'
p2942
sg24
g25
sg26
F0.03
sg27
F-6.25
sg9
(lp2943
g11
asg29
S'2-butoxyethanol'
p2944
sg14
F0.6
sg31
g32
sg17
(lp2945
S'primary alcohol'
p2946
aS'dialkyl ether'
p2947
asg37
F-4.07
ssS'mobley_4479135'
p2948
(dp2949
g3
S'C=C(c1ccccc1)c2ccccc2'
p2950
sg244
g245
sg246
F0.023
sg9
(lp2951
g11
asg248
S'1,1-diphenylethene'
p2952
sg250
g251
(g255
S'\x9a\x99\x99\x99\x99\x99\xb9?'
p2953
tp2954
Rp2955
sg261
g251
(g255
S'=\n\xd7\xa3p=\x06\xc0'
p2956
tp2957
Rp2958
sg17
(lp2959
S'alkene'
p2960
aS'aromatic'
p2961
asg269
F-3.92
sg270
g271
ssS'mobley_2693089'
p2962
(dp2963
g3
S'CC(C)Cc1cnccn1'
p2964
sg24
g25
sg26
F0.03
sg27
F-5.04
sg9
(lp2965
g11
asg29
S'2-isobutylpyrazine'
p2966
sg14
F0.6
sg31
g32
sg17
(lp2967
S'aromatic'
p2968
aS'heterocyclic'
p2969
asg37
F-5.1
ssS'mobley_8525830'
p2970
(dp2971
g3
S'CCCCCI'
p2972
sg24
g25
sg26
F0.02
sg27
F-0.14
sg9
(lp2973
g11
asg29
S'1-iodopentane'
p2974
sg14
F0.6
sg31
g32
sg17
(lp2975
S'alkyl iodide'
p2976
asg37
F0.66
ssS'mobley_6232400'
p2977
(dp2978
g3
S'c1cc(cnc1)C=O'
p2979
sg24
g25
sg26
F0.03
sg27
F-7.1
sg9
(lp2980
g11
asg29
S'pyridine-3-carbaldehyde'
p2981
sg14
F0.6
sg31
g32
sg17
(lp2982
S'aldehyde'
p2983
aS'aromatic'
p2984
aS'heterocyclic'
p2985
asg37
F-7.64
ssS'mobley_4506634'
p2986
(dp2987
g3
S'[C@@H](C(F)(F)F)(Cl)Br'
p2988
sg24
g25
sg26
F0.02
sg27
F-0.11
sg9
(lp2989
S'Renamed mobley_4506634 from 2-bromo-2-chloro-1,1,1-trifluoro-ethane to (2R)-2-bromo-2-chloro-1,1,1-trifluoro-ethane (the name from the 3D structure) since the former did not completely specify stereochemistry.\n'
p2990
asg29
S'2-bromo-2-chloro-1,1,1-trifluoro-ethane'
p2991
sg14
F0.6
sg31
g32
sg17
(lp2992
S'alkyl chloride'
p2993
aS'alkyl bromide'
p2994
asg37
F0.7
ssS'mobley_6430250'
p2995
(dp2996
g3
S'CCCc1ccccc1'
p2997
sg24
g25
sg26
F0.02
sg27
F-0.53
sg9
(lp2998
g11
asg29
S'propylbenzene'
p2999
sg14
F0.6
sg31
g32
sg17
(lp3000
S'aromatic'
p3001
asg37
F0.01
ssS'mobley_8685905'
p3002
(dp3003
g3
S'[C@@H](C(F)(F)F)(F)Br'
p3004
sg24
g25
sg26
F0.02
sg27
F0.5
sg9
(lp3005
S'Renamed mobley_8685905 from 2-bromo-1,1,1,2-tetrafluoro-ethane to (2R)-2-bromo-1,1,1,2-tetrafluoro-ethane (the name from the 3D structure) since the former did not completely specify stereochemistry.\n'
p3006
asg29
S'2-bromo-1,1,1,2-tetrafluoro-ethane'
p3007
sg14
F0.6
sg31
g32
sg17
(lp3008
S'alkyl fluoride'
p3009
aS'alkyl bromide'
p3010
asg37
F0.46
ssS'mobley_2451097'
p3011
(dp3012
g3
S'c1ccc(cc1)C#N'
p3013
sg24
g25
sg26
F0.02
sg27
F-4.1
sg9
(lp3014
g11
asg29
S'benzonitrile'
p3015
sg14
F0.6
sg31
g32
sg17
(lp3016
S'carbonitrile'
p3017
aS'aromatic'
p3018
asg37
F-2.56
ssS'mobley_7943327'
p3019
(dp3020
g3
S'CCC(=O)OCC'
p3021
sg24
g25
sg26
F0.02
sg27
F-2.68
sg9
(lp3022
g11
asg29
S'ethyl propanoate'
p3023
sg14
F0.6
sg31
g32
sg17
(lp3024
S'carboxylic acid ester'
p3025
asg37
F-3.39
ssS'mobley_337666'
p3026
(dp3027
g3
S'c1c(c(=O)[nH]c(=O)[nH]1)F'
p3028
sg408
g409
sg410
F0.06
sg9
(lp3029
g11
aS'Changed IUPAC name from 5-flurouracil to 5-fluorouracil for better handling/standardization.'
p3030
asg412
S'5-flurouracil'
p3031
sg414
F0.88
sg415
F-16.92
sg17
(lp3032
S'aryl fluoride'
p3033
aS'oxo(het)arene'
p3034
aS'aromatic'
p3035
aS'heterocyclic'
p3036
asg421
F-16.41
sg422
g423
ssS'mobley_1893937'
p3037
(dp3038
g3
S'CCCCCCCl'
p3039
sg24
g25
sg26
F0.03
sg27
F0.0
sg9
(lp3040
g11
asg29
S'1-chlorohexane'
p3041
sg14
F0.6
sg31
g32
sg17
(lp3042
S'alkyl chloride'
p3043
asg37
F1.23
ssS'mobley_1827204'
p3044
(dp3045
g3
S'CCCCCC=O'
p3046
sg24
g25
sg26
F0.02
sg27
F-2.81
sg9
(lp3047
g11
asg29
S'hexanal'
p3048
sg14
F0.6
sg31
g32
sg17
(lp3049
S'aldehyde'
p3050
asg37
F-2.96
ssS'mobley_2913224'
p3051
(dp3052
g3
S'CC(=O)Oc1ccccc1C(=O)O'
p3053
sg408
g409
sg410
F0.07
sg9
(lp3054
g11
asg412
S'acetylsalicylic acid'
p3055
sg414
F0.18
sg415
F-9.94
sg17
(lp3056
S'carboxylic acid'
p3057
aS'carboxylic acid ester'
p3058
aS'aromatic'
p3059
asg421
F-11.25
sg422
g423
ssS'mobley_5561855'
p3060
(dp3061
g3
S'c1cc(c(c(c1)Cl)c2c(cc(cc2Cl)Cl)Cl)Cl'
p3062
sg190
g191
sg192
F0.04
sg9
(lp3063
g11
asg194
S'1,3,5-trichloro-2-(2,6-dichlorophenyl)benzene'
p3064
sg196
F0.1
sg197
F-1.96
sg17
(lp3065
S'aryl chloride'
p3066
aS'aromatic'
p3067
asg200
F-0.54
sg201
g202
ssS'mobley_8723116'
p3068
(dp3069
g3
S'c1cc(ccc1N)Cl'
p3070
sg24
g25
sg26
F0.02
sg27
F-5.9
sg9
(lp3071
g11
asg29
S'4-chloroaniline'
p3072
sg14
F0.6
sg31
g32
sg17
(lp3073
S'primary amine'
p3074
aS'primary aromatic amine'
p3075
aS'aryl chloride'
p3076
aS'aromatic'
p3077
asg37
F-5.28
ssS'mobley_2517158'
p3078
(dp3079
g3
S'CCCCCCCBr'
p3080
sg24
g25
sg26
F0.03
sg27
F0.34
sg9
(lp3081
g11
asg29
S'1-bromoheptane'
p3082
sg14
F0.6
sg31
g32
sg17
(lp3083
S'alkyl bromide'
p3084
asg37
F1.66
ssS'mobley_6250025'
p3085
(dp3086
g3
S'CCCCCCI'
p3087
sg24
g25
sg26
F0.02
sg27
F0.08
sg9
(lp3088
g11
asg29
S'1-iodohexane'
p3089
sg14
F0.6
sg31
g32
sg17
(lp3090
S'alkyl iodide'
p3091
asg37
F0.66
ssS'mobley_4687447'
p3092
(dp3093
g3
S'CCCOCCO'
p3094
sg24
g25
sg26
F0.03
sg27
F-6.4
sg9
(lp3095
g11
asg29
S'2-propoxyethanol'
p3096
sg14
F0.6
sg31
g32
sg17
(lp3097
S'primary alcohol'
p3098
aS'dialkyl ether'
p3099
asg37
F-4.21
ssS'mobley_3325209'
p3100
(dp3101
g3
S'COC(c1ccccc1)(OC)OC'
p3102
sg24
g25
sg26
F0.04
sg27
F-4.04
sg9
(lp3103
g11
asg29
S'trimethoxymethylbenzene'
p3104
sg14
F0.6
sg31
g32
sg17
(lp3105
S'orthocarboxylic acid derivative'
p3106
aS'orthoester'
p3107
aS'aromatic'
p3108
asg37
F-5.83
ssS'mobley_1875719'
p3109
(dp3110
g3
S'CCC(=O)CC'
p3111
sg5
g6
sg7
F0.1
sg8
F-3.41
sg9
(lp3112
g11
asg12
S'pentan-3-one'
p3113
sg14
F0.6
sg15
g16
sg17
(lp3114
S'ketone'
p3115
asg20
F-2.7
ssS'mobley_9112978'
p3116
(dp3117
g3
S'CC/C=C\\C'
p3118
sg24
g25
sg26
F0.02
sg27
F1.31
sg9
(lp3119
S'Renamed mobley_9112978 from pent-2-ene to (Z)-pent-2-ene (the name from the 3D structure) since the former did not completely specify stereochemistry.\n'
p3120
asg29
S'pent-2-ene'
p3121
sg14
F0.6
sg31
g32
sg17
(lp3122
S'alkene'
p3123
asg37
F2.55
ssS'mobley_5692472'
p3124
(dp3125
g3
S'CNC'
p3126
sg24
g25
sg26
F0.02
sg27
F-4.29
sg9
(lp3127
g11
asg29
S'N-methylmethanamine'
p3128
sg14
F0.6
sg31
g32
sg17
(lp3129
S'secondary amine'
p3130
aS'secondary aliphatic amine (dialkylamine)'
p3131
asg37
F-3.11
ssS'mobley_2972345'
p3132
(dp3133
g3
S'c1ccc2c(c1)Cc3ccccc3C2'
p3134
sg244
g245
sg246
F0.022
sg9
(lp3135
g11
asg248
S'9,10-dihydroanthracene'
p3136
sg250
g251
(g255
S'\x9a\x99\x99\x99\x99\x99\xb9?'
p3137
tp3138
Rp3139
sg261
g251
(g255
S'=\n\xd7\xa3p=\x0e\xc0'
p3140
tp3141
Rp3142
sg17
(lp3143
S'aromatic'
p3144
asg269
F-4.38
sg270
g271
ssS'mobley_3976574'
p3145
(dp3146
g3
S'c1cc2c(cc1Cl)Oc3c(c(c(c(c3Cl)Cl)Cl)Cl)O2'
p3147
sg190
g191
sg192
F0.03
sg9
(lp3148
g11
asg194
S'1,2,3,4,7-pentachlorodibenzo-p-dioxin'
p3149
sg196
F1.0
sg197
F-4.15
sg17
(lp3150
S'diaryl ether'
p3151
aS'aryl chloride'
p3152
aS'aromatic'
p3153
aS'heterocyclic'
p3154
asg200
F-2.17
sg201
g202
ssS'mobley_8966374'
p3155
(dp3156
g3
S'Cc1cnccn1'
p3157
sg24
g25
sg26
F0.03
sg27
F-5.51
sg9
(lp3158
g11
asg29
S'2-methylpyrazine'
p3159
sg14
F0.6
sg31
g32
sg17
(lp3160
S'aromatic'
p3161
aS'heterocyclic'
p3162
asg37
F-6.1
ssS'mobley_5732611'
p3163
(dp3164
g3
S'Cc1c[nH]cn1'
p3165
sg24
g25
sg26
F0.03
sg27
F-10.27
sg9
(lp3166
g11
asg29
S'4-methyl-1H-imidazole'
p3167
sg14
F0.6
sg31
g32
sg17
(lp3168
S'aromatic'
p3169
aS'heterocyclic'
p3170
asg37
F-7.99
ssS'mobley_7298388'
p3171
(dp3172
g3
S'Cc1cccc(c1)[N+](=O)[O-]'
p3173
sg24
g25
sg26
F0.02
sg27
F-3.45
sg9
(lp3174
g11
asg29
S'1-methyl-3-nitro-benzene'
p3175
sg14
F0.6
sg31
g32
sg17
(lp3176
S'nitro'
p3177
aS'aromatic'
p3178
asg37
F-3.16
ssS'mobley_3269819'
p3179
(dp3180
g3
S'c1c(cc(c(c1Cl)Cl)Cl)c2cc(c(c(c2Cl)Cl)Cl)Cl'
p3181
sg190
g191
sg192
F0.04
sg9
(lp3182
g11
asg194
S'1,2,3,4-tetrachloro-5-(3,4,5-trichlorophenyl)benzene'
p3183
sg196
F0.1
sg197
F-3.17
sg17
(lp3184
S'aryl chloride'
p3185
aS'aromatic'
p3186
asg200
F-0.77
sg201
g202
ssS'mobley_3802803'
p3187
(dp3188
g3
S'CCCCCCON([O-])[O-]'
p3189
sg244
g245
sg246
F0.022
sg9
(lp3190
g11
asg248
S'hexyl nitrate'
p3191
sg250
g251
(g255
S'\x9a\x99\x99\x99\x99\x99\xb9?'
p3192
tp3193
Rp3194
sg261
g251
(g255
S'\x8f\xc2\xf5(\\\x8f\xfa\xbf'
p3195
tp3196
Rp3197
sg17
(lp3198
S''
p3199
asg269
F-1.63
sg270
g271
ssS'mobley_7497999'
p3200
(dp3201
g3
S'CC(=O)c1ccccc1'
p3202
sg24
g25
sg26
F0.03
sg27
F-4.58
sg9
(lp3203
g11
asg29
S'1-phenylethanone'
p3204
sg14
F0.6
sg31
g32
sg17
(lp3205
S'ketone'
p3206
aS'aromatic'
p3207
asg37
F-5.07
ssS'mobley_8208692'
p3208
(dp3209
g3
S'c1c(c(c(c(c1Cl)Cl)Cl)Cl)c2c(cc(c(c2Cl)Cl)Cl)Cl'
p3210
sg190
g191
sg192
F0.05
sg9
(lp3211
g11
asg194
S'1,2,3,4-tetrachloro-5-(2,3,4,6-tetrachlorophenyl)benzene'
p3212
sg196
F0.25
sg197
F-4.61
sg17
(lp3213
S'aryl chloride'
p3214
aS'aromatic'
p3215
asg200
F0.0
sg201
g202
ssS'mobley_1199854'
p3216
(dp3217
g3
S'CCCI'
p3218
sg24
g25
sg26
F0.02
sg27
F-0.53
sg9
(lp3219
g11
asg29
S'1-iodopropane'
p3220
sg14
F0.6
sg31
g32
sg17
(lp3221
S'alkyl iodide'
p3222
asg37
F0.0
ssS'mobley_3867265'
p3223
(dp3224
g3
S'CC(=O)C'
p3225
sg24
g25
sg26
F0.02
sg27
F-3.8
sg9
(lp3226
g11
asg29
S'acetone'
p3227
sg14
F0.6
sg31
g32
sg17
(lp3228
S'ketone'
p3229
asg37
F-3.36
ssS'mobley_5072416'
p3230
(dp3231
g3
S'COc1ccccc1N'
p3232
sg24
g25
sg26
F0.03
sg27
F-6.12
sg9
(lp3233
g11
asg29
S'2-methoxyaniline'
p3234
sg14
F0.6
sg31
g32
sg17
(lp3235
S'alkyl aryl ether'
p3236
aS'primary amine'
p3237
aS'primary aromatic amine'
p3238
aS'aromatic'
p3239
asg37
F-6.53
ssS'mobley_2489709'
p3240
(dp3241
g3
S'c1ccc(c(c1)Cl)Cl'
p3242
sg24
g25
sg26
F0.02
sg27
F-1.36
sg9
(lp3243
g11
asg29
S'1,2-dichlorobenzene'
p3244
sg14
F0.6
sg31
g32
sg17
(lp3245
S'aryl chloride'
p3246
aS'aromatic'
p3247
asg37
F-0.64
ssS'mobley_2481002'
p3248
(dp3249
g3
S'C([N+](=O)[O-])(Cl)(Cl)Cl'
p3250
sg158
g159
sg160
F0.02
sg9
(lp3251
g11
aS'Changed IUPAC name from chloropicrin to trichloro(nitro)methane for better handling/standardization.'
p3252
asg162
S'chloropicrin'
p3253
sg164
F0.1
sg165
F-1.45
sg17
(lp3254
S'halogen derivative'
p3255
asg168
F-0.26
sg169
g170
ssS'mobley_1034539'
p3256
(dp3257
g3
S'c1cc(c(cc1c2cc(c(c(c2Cl)Cl)Cl)Cl)Cl)Cl'
p3258
sg190
g191
sg192
F0.04
sg9
(lp3259
g11
asg194
S'1,2,3,4-tetrachloro-5-(3,4-dichlorophenyl)benzene'
p3260
sg196
F0.1
sg197
F-3.04
sg17
(lp3261
S'aryl chloride'
p3262
aS'aromatic'
p3263
asg200
F-1.0
sg201
g202
ssS'mobley_9460824'
p3264
(dp3265
g3
S'CCOP(=S)(OCC)SCSCC'
p3266
sg158
g159
sg160
F0.04
sg9
(lp3267
g11
aS'Changed IUPAC name from phorate to diethoxy-(ethylsulfanylmethylsulfanyl)-thioxo-$l^{5}-phosphane for better handling/standardization.'
p3268
asg162
S'phorate'
p3269
sg164
F0.1
sg165
F-4.37
sg17
(lp3270
S''
p3271
asg168
F-5.2
sg169
g170
ssS'mobley_8882696'
p3272
(dp3273
g3
S'C1CCOC1'
p3274
sg24
g25
sg26
F0.02
sg27
F-3.47
sg9
(lp3275
g11
asg29
S'tetrahydrofuran'
p3276
sg14
F0.6
sg31
g32
sg17
(lp3277
S'dialkyl ether'
p3278
aS'heterocyclic'
p3279
asg37
F-2.07
ssS'mobley_8916409'
p3280
(dp3281
g3
S'CCOC(=O)C[C@H](C(=O)OCC)SP(=S)(OC)OC'
p3282
sg158
g159
sg160
F0.05
sg9
(lp3283
g11
aS'Changed IUPAC name from malathion to diethyl (2R)-2-dimethoxyphosphinothioylsulfanylbutanedioate for better handling/standardization.'
p3284
asg162
S'malathion'
p3285
sg164
F0.21
sg165
F-8.15
sg17
(lp3286
S'carboxylic acid ester'
p3287
asg168
F-12.99
sg169
g170
ssS'mobley_1770205'
p3288
(dp3289
g3
S'COP(=S)(OC)SCn1c(=O)c2ccccc2nn1'
p3290
sg158
g159
sg160
F0.04
sg9
(lp3291
g11
aS'Changed IUPAC name from azinphosmethyl to 3-(dimethoxyphosphinothioylsulfanylmethyl)-1,2,3-benzotriazin-4-one for better handling/standardization.'
p3292
asg162
S'azinphosmethyl'
p3293
sg164
F1.37
sg165
F-10.03
sg17
(lp3294
S'oxo(het)arene'
p3295
aS'aromatic'
p3296
aS'heterocyclic'
p3297
asg168
F-15.54
sg169
g170
ssS'mobley_3982371'
p3298
(dp3299
g3
S'CC(=O)OC'
p3300
sg24
g25
sg26
F0.02
sg27
F-3.13
sg9
(lp3301
g11
asg29
S'methyl acetate'
p3302
sg14
F0.6
sg31
g32
sg17
(lp3303
S'carboxylic acid ester'
p3304
asg37
F-3.73
ssS'mobley_2659552'
p3305
(dp3306
g3
S'Cc1ccc(cc1)C(=O)N(C)C'
p3307
sg1209
g1210
sg1211
F0.05
sg1212
(lp3308
g1214
ag11
asg1215
S'N,N-4-trimethylbenzamide'
p3309
sg14
F0.6
sg1217
F-9.76
sg17
(lp3310
S'cation'
p3311
aS'aromatic'
p3312
asg1220
F-8.76
sg1221
g1210
ssS'mobley_2422586'
p3313
(dp3314
g3
S'CCCOC'
p3315
sg24
g25
sg26
F0.02
sg27
F-1.66
sg9
(lp3316
g11
asg29
S'1-methoxypropane'
p3317
sg14
F0.6
sg31
g32
sg17
(lp3318
S'dialkyl ether'
p3319
asg37
F-0.41
ssS'mobley_2725215'
p3320
(dp3321
g3
S'CCCN(CCC)c1c(cc(cc1[N+](=O)[O-])S(=O)(=O)C)[N+](=O)[O-]'
p3322
sg158
g159
sg160
F0.05
sg9
(lp3323
g11
asg162
S'nitralin'
p3324
sg164
F1.93
sg165
F-7.98
sg17
(lp3325
S'tertiary amine'
p3326
aS'tertiary aliphatic/aromatic amine (alkylarylamine)'
p3327
aS'nitro'
p3328
aS'sulfone'
p3329
aS'aromatic'
p3330
asg168
F-11.56
sg169
g170
ssS'mobley_9571888'
p3331
(dp3332
g3
S'C1[C@@H]2[C@H](COS(=O)O1)[C@@]3(C(=C([C@]2(C3(Cl)Cl)Cl)Cl)Cl)Cl'
p3333
sg158
g159
sg160
F0.04
sg9
(lp3334
g11
asg162
S'endosulfan alpha'
p3335
sg164
F0.26
sg165
F-4.23
sg17
(lp3336
S'alkyl chloride'
p3337
aS'alkene'
p3338
aS'heterocyclic'
p3339
asg168
F-9.96
sg169
g170
ssS'mobley_3777264'
p3340
(dp3341
g3
S'c1cc(cc(c1)[N+](=O)[O-])N'
p3342
sg24
g25
sg26
F0.03
sg27
F-8.84
sg9
(lp3343
g11
asg29
S'3-nitroaniline'
p3344
sg14
F0.6
sg31
g32
sg17
(lp3345
S'primary amine'
p3346
aS'primary aromatic amine'
p3347
aS'nitro'
p3348
aS'aromatic'
p3349
asg37
F-8.24
ssS'mobley_6006813'
p3350
(dp3351
g3
S'CCCC[N+](=O)[O-]'
p3352
sg24
g25
sg26
F0.02
sg27
F-3.09
sg9
(lp3353
g11
asg29
S'1-nitrobutane'
p3354
sg14
F0.6
sg31
g32
sg17
(lp3355
S'nitro'
p3356
asg37
F-1.51
ssS'mobley_1636752'
p3357
(dp3358
g3
S'CO'
p3359
sg24
g25
sg26
F0.01
sg27
F-5.1
sg9
(lp3360
g11
asg29
S'methanol'
p3361
sg14
F0.6
sg31
g32
sg17
(lp3362
S'primary alcohol'
p3363
asg37
F-3.48
ssS'mobley_3525176'
p3364
(dp3365
g3
S'CCCCCc1ccccc1'
p3366
sg24
g25
sg26
F0.03
sg27
F-0.23
sg9
(lp3367
g11
asg29
S'pentylbenzene'
p3368
sg14
F0.6
sg31
g32
sg17
(lp3369
S'aromatic'
p3370
asg37
F0.05
ssS'mobley_1905088'
p3371
(dp3372
g3
S'c1ccc(cc1)CBr'
p3373
sg1209
g1210
sg1211
F0.1
sg1212
(lp3374
g1214
ag11
asg1215
S'benzyl bromide'
p3375
sg14
F0.6
sg1217
F-2.38
sg17
(lp3376
S'alkyl bromide'
p3377
aS'aromatic'
p3378
asg1220
F-1.11
sg1221
g1210
ssS'mobley_637522'
p3379
(dp3380
g3
S'c1ccc2cc3ccccc3cc2c1'
p3381
sg24
g25
sg26
F0.03
sg27
F-3.95
sg9
(lp3382
g11
asg29
S'anthracene'
p3383
sg14
F0.6
sg31
g32
sg17
(lp3384
S'aromatic'
p3385
asg37
F-5.39
ssS'mobley_1615431'
p3386
(dp3387
g3
S'CC(C)OC(C)C'
p3388
sg24
g25
sg26
F0.02
sg27
F-0.53
sg9
(lp3389
g11
asg29
S'2-isopropoxypropane'
p3390
sg14
F0.6
sg31
g32
sg17
(lp3391
S'dialkyl ether'
p3392
asg37
F-0.11
ssS'mobley_9281946'
p3393
(dp3394
g3
S'CCOP(=S)(OCC)Oc1ccc(cc1)[N+](=O)[O-]'
p3395
sg158
g159
sg160
F0.04
sg9
(lp3396
g11
aS'Changed IUPAC name from parathion to diethoxy-(4-nitrophenoxy)-thioxo-$l^{5}-phosphane for better handling/standardization.'
p3397
asg162
S'parathion'
p3398
sg164
F0.1
sg165
F-6.74
sg17
(lp3399
S'nitro'
p3400
aS'aromatic'
p3401
asg168
F-9.41
sg169
g170
ssS'mobley_1469079'
p3402
(dp3403
g3
S'c1ccc2c(c1)Oc3cc(c(cc3O2)Cl)Cl'
p3404
sg190
g191
sg192
F0.02
sg9
(lp3405
g11
asg194
S'2,3-dichlorodibenzo-p-dioxin'
p3406
sg196
F1.0
sg197
F-3.56
sg17
(lp3407
S'diaryl ether'
p3408
aS'aryl chloride'
p3409
aS'aromatic'
p3410
aS'heterocyclic'
p3411
asg200
F-3.51
sg201
g202
ssS'mobley_4603202'
p3412
(dp3413
g3
S'C(CCl)OCCCl'
p3414
sg1209
g1210
sg1211
F0.01
sg1212
(lp3415
g1214
ag11
aS'Changed IUPAC name from bis-2-chloroethyl ether to 1-chloro-2-(2-chloroethoxy)ethane for better handling/standardization.'
p3416
asg1215
S'bis-2-chloroethyl ether'
p3417
sg14
F0.6
sg1217
F-4.23
sg17
(lp3418
S'dialkyl ether'
p3419
aS'alkyl chloride'
p3420
asg1220
F-2.07
sg1221
g1210
ssS'mobley_2341732'
p3421
(dp3422
g3
S'CCCCC(=O)OC'
p3423
sg24
g25
sg26
F0.02
sg27
F-2.56
sg9
(lp3424
g11
asg29
S'methyl pentanoate'
p3425
sg14
F0.6
sg31
g32
sg17
(lp3426
S'carboxylic acid ester'
p3427
asg37
F-3.51
ssS'mobley_6981465'
p3428
(dp3429
g3
S'CC(C)OC(=O)C'
p3430
sg24
g25
sg26
F0.03
sg27
F-2.64
sg9
(lp3431
g11
asg29
S'isopropyl acetate'
p3432
sg14
F0.6
sg31
g32
sg17
(lp3433
S'carboxylic acid ester'
p3434
asg37
F-2.92
ssS'mobley_1527293'
p3435
(dp3436
g3
S'C[C@@H](c1ccc(c(c1)F)c2ccccc2)C(=O)O'
p3437
sg408
g409
sg410
F0.07
sg9
(lp3438
S'Renamed mobley_1527293 from flurbiprofen to (2S)-2-(3-fluoro-4-phenyl-phenyl)propanoic acid (the name from the 3D structure) since the former did not completely specify stereochemistry.\n'
p3439
asg412
S'flurbiprofen'
p3440
sg414
F0.16
sg415
F-8.42
sg17
(lp3441
S'aryl fluoride'
p3442
aS'carboxylic acid'
p3443
aS'aromatic'
p3444
asg421
F-8.7
sg422
g423
ssS'mobley_2328633'
p3445
(dp3446
g3
S'CCCCCC1CCCC1'
p3447
sg24
g25
sg26
F0.03
sg27
F2.55
sg9
(lp3448
g11
asg29
S'pentylcyclopentane'
p3449
sg14
F0.6
sg31
g32
sg17
(lp3450
S''
p3451
asg37
F2.39
ssS'mobley_5393242'
p3452
(dp3453
g3
S'CCOP(=S)(OCC)Oc1cc(nc(n1)C(C)C)C'
p3454
sg158
g159
sg160
F0.05
sg9
(lp3455
g11
asg162
S'diazinon'
p3456
sg164
F0.13
sg165
F-6.48
sg17
(lp3457
S'aromatic'
p3458
aS'heterocyclic'
p3459
asg168
F-9.97
sg169
g170
ssS'mobley_9624458'
p3460
(dp3461
g3
S'C(CCl)CCl'
p3462
sg24
g25
sg26
F0.02
sg27
F-1.89
sg9
(lp3463
g11
asg29
S'1,3-dichloropropane'
p3464
sg14
F0.6
sg31
g32
sg17
(lp3465
S'alkyl chloride'
p3466
asg37
F-0.38
ssS'mobley_2316618'
p3467
(dp3468
g3
S'c1ccc2c(c1)C(=O)c3cccc(c3C2=O)NCCO'
p3469
sg244
g245
sg246
F0.029
sg9
(lp3470
g11
asg248
S'1-(2-hydroxyethylamino)-9,10-anthraquinone'
p3471
sg250
g251
(g255
S'\x9a\x99\x99\x99\x99\x99\xf1?'
p3472
tp3473
Rp3474
sg261
g251
(g255
S'\xecQ\xb8\x1e\x85k,\xc0'
p3475
tp3476
Rp3477
sg17
(lp3478
S'ketone'
p3479
aS'primary alcohol'
p3480
aS'1,2-aminoalcohol'
p3481
aS'secondary amine'
p3482
aS'secondary aliphatic/aromatic amine (alkylarylamine)'
p3483
aS'aromatic'
p3484
asg269
F-13.33
sg270
g271
ssS'mobley_349850'
p3485
(dp3486
g3
S'Cc1ccc(cc1)C(=O)C'
p3487
sg24
g25
sg26
F0.03
sg27
F-4.7
sg9
(lp3488
g11
asg29
S'1-(p-tolyl)ethanone'
p3489
sg14
F0.6
sg31
g32
sg17
(lp3490
S'ketone'
p3491
aS'aromatic'
p3492
asg37
F-4.82
ssS'mobley_186894'
p3493
(dp3494
g3
S'CCCS'
p3495
sg5
g6
sg7
F0.1
sg8
F-1.1
sg9
(lp3496
g11
asg12
S'propanethiol'
p3497
sg14
F0.6
sg15
g16
sg17
(lp3498
S'thiol (sulfanyl)'
p3499
aS'alkylthiol'
p3500
asg20
F-0.3
ssS'mobley_7463408'
p3501
(dp3502
g3
S'CCC(=O)Nc1ccc(c(c1)Cl)Cl'
p3503
sg158
g159
sg160
F0.04
sg9
(lp3504
g11
aS'Changed IUPAC name from propanil to N-(3,4-dichlorophenyl)propanimidic acid for better handling/standardization.'
p3505
asg162
S'propanil'
p3506
sg164
F1.93
sg165
F-7.78
sg17
(lp3507
S'aryl chloride'
p3508
aS'aromatic'
p3509
asg168
F-9.65
sg169
g170
ssS'mobley_5627459'
p3510
(dp3511
g3
S'CC(C)C=O'
p3512
sg24
g25
sg26
F0.02
sg27
F-2.86
sg9
(lp3513
g11
asg29
S'2-methylpropanal'
p3514
sg14
F0.6
sg31
g32
sg17
(lp3515
S'aldehyde'
p3516
asg37
F-2.93
ssS'mobley_2049967'
p3517
(dp3518
g3
S'CCSC'
p3519
sg5
g6
sg7
F0.1
sg8
F-1.5
sg9
(lp3520
g11
aS'Changed IUPAC name from ethylmethylsulfide to methylsulfanylethane for better handling/standardization.'
p3521
asg12
S'ethylmethylsulfide'
p3522
sg14
F0.6
sg15
g16
sg17
(lp3523
S'thioether'
p3524
asg20
F-0.3
ssS'mobley_4759887'
p3525
(dp3526
g3
S'CCCCCCCI'
p3527
sg24
g25
sg26
F0.03
sg27
F0.27
sg9
(lp3528
g11
asg29
S'1-iodoheptane'
p3529
sg14
F0.6
sg31
g32
sg17
(lp3530
S'alkyl iodide'
p3531
asg37
F1.19
ssS'mobley_4219614'
p3532
(dp3533
g3
S'c1cc(c(c(c1Cl)Cl)Cl)Cl'
p3534
sg24
g25
sg26
F0.02
sg27
F-1.34
sg9
(lp3535
g11
asg29
S'1,2,3,4-tetrachlorobenzene'
p3536
sg14
F0.6
sg31
g32
sg17
(lp3537
S'aryl chloride'
p3538
aS'aromatic'
p3539
asg37
F-0.32
ssS'mobley_511661'
p3540
(dp3541
g3
S'C=CC=C'
p3542
sg5
g6
sg7
F0.1
sg8
F0.6
sg9
(lp3543
g11
asg12
S'butadiene'
p3544
sg14
F0.6
sg15
g16
sg17
(lp3545
S'alkene'
p3546
asg20
F1.9
ssS'mobley_3639400'
p3547
(dp3548
g3
S'CCCCCl'
p3549
sg24
g25
sg26
F0.02
sg27
F-0.16
sg9
(lp3550
g11
asg29
S'1-chlorobutane'
p3551
sg14
F0.6
sg31
g32
sg17
(lp3552
S'alkyl chloride'
p3553
asg37
F0.99
ssS'mobley_4463913'
p3554
(dp3555
g3
S'CC(OC(=O)C)OC(=O)C'
p3556
sg24
g25
sg26
F0.1
sg27
F-4.97
sg9
(lp3557
g11
asg29
S'1-acetoxyethyl acetate'
p3558
sg14
F0.6
sg31
g32
sg17
(lp3559
S'carboxylic acid ester'
p3560
asg37
F-7.9
ssS'mobley_6632459'
p3561
(dp3562
g3
S'CCC=O'
p3563
sg24
g25
sg26
F0.02
sg27
F-3.43
sg9
(lp3564
g11
asg29
S'propanal'
p3565
sg14
F0.6
sg31
g32
sg17
(lp3566
S'aldehyde'
p3567
asg37
F-3.08
ssS'mobley_2183616'
p3568
(dp3569
g3
S'CC[C@H](C)c1ccccc1'
p3570
sg24
g25
sg26
F0.03
sg27
F-0.45
sg9
(lp3571
S'Renamed mobley_2183616 from sec-butylbenzene to [(1S)-1-methylpropyl]benzene (the name from the 3D structure) since the former did not completely specify stereochemistry.\n'
p3572
asg29
S'sec-butylbenzene'
p3573
sg14
F0.6
sg31
g32
sg17
(lp3574
S'aromatic'
p3575
asg37
F0.04
ssS'mobley_6416775'
p3576
(dp3577
g3
S'CCCC1CCCC1'
p3578
sg24
g25
sg26
F0.02
sg27
F2.13
sg9
(lp3579
g11
asg29
S'propylcyclopentane'
p3580
sg14
F0.6
sg31
g32
sg17
(lp3581
S''
p3582
asg37
F2.15
ssS'mobley_902954'
p3583
(dp3584
g3
S'CCCCO[N+](=O)[O-]'
p3585
sg158
g159
sg160
F0.02
sg9
(lp3586
g11
asg162
S'butyl nitrate'
p3587
sg164
F0.1
sg165
F-2.09
sg17
(lp3588
S'nitrate'
p3589
asg168
F-1.83
sg169
g170
ssS'mobley_7463799'
p3590
(dp3591
g3
S'c1ccc(cc1)CCCO'
p3592
sg24
g25
sg26
F0.03
sg27
F-6.92
sg9
(lp3593
g11
asg29
S'3-phenylpropan-1-ol'
p3594
sg14
F0.6
sg31
g32
sg17
(lp3595
S'primary alcohol'
p3596
aS'aromatic'
p3597
asg37
F-5.5
ssS'mobley_3969312'
p3598
(dp3599
g3
S'c1ccc(cc1)C=O'
p3600
sg24
g25
sg26
F0.02
sg27
F-4.02
sg9
(lp3601
g11
asg29
S'benzaldehyde'
p3602
sg14
F0.6
sg31
g32
sg17
(lp3603
S'aldehyde'
p3604
aS'aromatic'
p3605
asg37
F-4.99
ssS'mobley_6248915'
p3606
(dp3607
g3
S'CCCCCCCCN'
p3608
sg24
g25
sg26
F0.03
sg27
F-3.65
sg9
(lp3609
g11
asg29
S'octan-1-amine'
p3610
sg14
F0.6
sg31
g32
sg17
(lp3611
S'primary amine'
p3612
aS'primary aliphatic amine (alkylamine)'
p3613
asg37
F-2.38
ssS'mobley_1881249'
p3614
(dp3615
g3
S'CCCC(=O)C'
p3616
sg24
g25
sg26
F0.02
sg27
F-3.52
sg9
(lp3617
g11
asg29
S'pentan-2-one'
p3618
sg14
F0.6
sg31
g32
sg17
(lp3619
S'ketone'
p3620
asg37
F-3.29
ssS'mobley_8449031'
p3621
(dp3622
g3
S'CCN(CC)CC'
p3623
sg24
g25
sg26
F0.03
sg27
F-3.22
sg9
(lp3624
g11
asg29
S'N,N-diethylethanamine'
p3625
sg14
F0.6
sg31
g32
sg17
(lp3626
S'tertiary amine'
p3627
aS'tertiary aliphatic amine (trialkylamine)'
p3628
asg37
F-1.83
ssS'mobley_5467162'
p3629
(dp3630
g3
S'CC(C)(C)c1ccc(cc1)O'
p3631
sg24
g25
sg26
F0.04
sg27
F-5.91
sg9
(lp3632
g11
asg29
S'4-tert-butylphenol'
p3633
sg14
F0.6
sg31
g32
sg17
(lp3634
S'phenol or hydroxyhetarene'
p3635
aS'aromatic'
p3636
asg37
F-5.54
ssS'mobley_7977115'
p3637
(dp3638
g3
S'CCC[C@H](CC)O'
p3639
sg24
g25
sg26
F0.02
sg27
F-4.06
sg9
(lp3640
S'Renamed mobley_7977115 from hexan-3-ol to (3S)-hexan-3-ol (the name from the 3D structure) since the former did not completely specify stereochemistry.\n'
p3641
asg29
S'hexan-3-ol'
p3642
sg14
F0.6
sg31
g32
sg17
(lp3643
S'secondary alcohol'
p3644
asg37
F-2.63
ssS'mobley_8809274'
p3645
(dp3646
g3
S'c1ccc(cc1)C(F)(F)F'
p3647
sg24
g25
sg26
F0.02
sg27
F-0.25
sg9
(lp3648
g11
asg29
S'trifluoromethylbenzene'
p3649
sg14
F0.6
sg31
g32
sg17
(lp3650
S'halogen derivative'
p3651
aS'aromatic'
p3652
asg37
F-0.55
ssS'mobley_5063386'
p3653
(dp3654
g3
S'c1ccc(c(c1)[N+](=O)[O-])O'
p3655
sg24
g25
sg26
F0.03
sg27
F-4.58
sg9
(lp3656
g11
asg29
S'2-nitrophenol'
p3657
sg14
F0.6
sg31
g32
sg17
(lp3658
S'phenol or hydroxyhetarene'
p3659
aS'nitro'
p3660
aS'aromatic'
p3661
asg37
F-5.34
ssS'mobley_2958326'
p3662
(dp3663
g3
S'CCCNCCC'
p3664
sg24
g25
sg26
F0.02
sg27
F-3.65
sg9
(lp3665
g11
asg29
S'N-propylpropan-1-amine'
p3666
sg14
F0.6
sg31
g32
sg17
(lp3667
S'secondary amine'
p3668
aS'secondary aliphatic amine (dialkylamine)'
p3669
asg37
F-2.26
ssS'mobley_8052240'
p3670
(dp3671
g3
S'c1ccc2c(c1)C(=O)c3cccc(c3C2=O)N'
p3672
sg244
g245
sg246
F0.022
sg9
(lp3673
g11
asg248
S'1-amino-9,10-anthracenedione'
p3674
sg250
g251
(g255
S'\xaeG\xe1z\x14\xae\xe7?'
p3675
tp3676
Rp3677
sg261
g251
(g255
S'\xe1z\x14\xaeG\xe1"\xc0'
p3678
tp3679
Rp3680
sg17
(lp3681
S'ketone'
p3682
aS'primary amine'
p3683
aS'primary aromatic amine'
p3684
aS'aromatic'
p3685
asg269
F-11.59
sg270
g271
ssS'mobley_590519'
p3686
(dp3687
g3
S'CCSSCC'
p3688
sg24
g25
sg26
F0.02
sg27
F-1.64
sg9
(lp3689
g11
asg29
S'ethyldisulfanylethane'
p3690
sg14
F0.6
sg31
g32
sg17
(lp3691
S'disulfide'
p3692
asg37
F-0.07
ssS'mobley_6309289'
p3693
(dp3694
g3
S'C1CCNCC1'
p3695
sg24
g25
sg26
F0.02
sg27
F-5.11
sg9
(lp3696
g11
asg29
S'piperidine'
p3697
sg14
F0.6
sg31
g32
sg17
(lp3698
S'secondary amine'
p3699
aS'secondary aliphatic amine (dialkylamine)'
p3700
aS'heterocyclic'
p3701
asg37
F-3.46
ssS'mobley_4059279'
p3702
(dp3703
g3
S'CN1CCN(CC1)C'
p3704
sg24
g25
sg26
F0.03
sg27
F-7.58
sg9
(lp3705
g11
asg29
S'1,4-dimethylpiperazine'
p3706
sg14
F0.6
sg31
g32
sg17
(lp3707
S'tertiary amine'
p3708
aS'tertiary aliphatic amine (trialkylamine)'
p3709
aS'heterocyclic'
p3710
asg37
F-7.4
ssS'mobley_9733743'
p3711
(dp3712
g3
S'CCCCN'
p3713
sg24
g25
sg26
F0.02
sg27
F-4.24
sg9
(lp3714
g11
asg29
S'butan-1-amine'
p3715
sg14
F0.6
sg31
g32
sg17
(lp3716
S'primary amine'
p3717
aS'primary aliphatic amine (alkylamine)'
p3718
asg37
F-2.82
ssS'mobley_252413'
p3719
(dp3720
g3
S'CCCC(C)(C)C'
p3721
sg24
g25
sg26
F0.02
sg27
F2.88
sg9
(lp3722
g11
asg29
S'2,2-dimethylpentane'
p3723
sg14
F0.6
sg31
g32
sg17
(lp3724
S''
p3725
asg37
F2.9
ssS'mobley_1144156'
p3726
(dp3727
g3
S'CCOCC'
p3728
sg24
g25
sg26
F0.02
sg27
F-1.59
sg9
(lp3729
g11
asg29
S'ethoxyethane'
p3730
sg14
F0.6
sg31
g32
sg17
(lp3731
S'dialkyl ether'
p3732
asg37
F-0.7
ssS'mobley_2972906'
p3733
(dp3734
g3
S'c1ccsc1'
p3735
sg5
g6
sg7
F0.1
sg8
F-1.4
sg9
(lp3736
g11
asg12
S'thiophene'
p3737
sg14
F0.6
sg15
g16
sg17
(lp3738
S'aromatic'
p3739
aS'heterocyclic'
p3740
asg20
F-0.6
ssS'mobley_3266352'
p3741
(dp3742
g3
S'CN(CC(F)(F)F)c1ccccc1'
p3743
sg24
g25
sg26
F0.03
sg27
F-1.92
sg9
(lp3744
g11
asg29
S'N-methyl-N-(2,2,2-trifluoroethyl)aniline'
p3745
sg14
F0.6
sg31
g32
sg17
(lp3746
S'tertiary amine'
p3747
aS'tertiary aliphatic/aromatic amine (alkylarylamine)'
p3748
aS'halogen derivative'
p3749
aS'aromatic'
p3750
asg37
F-3.69
ssS'mobley_1231151'
p3751
(dp3752
g3
S'CC(C)Cl'
p3753
sg24
g25
sg26
F0.02
sg27
F-0.25
sg9
(lp3754
g11
asg29
S'2-chloropropane'
p3755
sg14
F0.6
sg31
g32
sg17
(lp3756
S'alkyl chloride'
p3757
asg37
F0.82
ssS'mobley_4035953'
p3758
(dp3759
g3
S'Cc1ccccc1O'
p3760
sg5
g6
sg7
F0.1
sg8
F-5.9
sg9
(lp3761
g11
asg12
S'o-cresol'
p3762
sg14
F0.6
sg15
g16
sg17
(lp3763
S'phenol or hydroxyhetarene'
p3764
aS'aromatic'
p3765
asg20
F-5.0
ssS'mobley_1650157'
p3766
(dp3767
g3
S'CC(C)(C)O'
p3768
sg24
g25
sg26
F0.02
sg27
F-4.47
sg9
(lp3769
g11
asg29
S'2-methylpropan-2-ol'
p3770
sg14
F0.6
sg31
g32
sg17
(lp3771
S'tertiary alcohol'
p3772
asg37
F-3.09
ssS'mobley_299266'
p3773
(dp3774
g3
S'CC(=C)C'
p3775
sg24
g25
sg26
F0.02
sg27
F1.16
sg9
(lp3776
g11
asg29
S'2-methylprop-1-ene'
p3777
sg14
F0.6
sg31
g32
sg17
(lp3778
S'alkene'
p3779
asg37
F2.34
ssS'mobley_7774695'
p3780
(dp3781
g3
S'CNc1ccccc1'
p3782
sg24
g25
sg26
F0.03
sg27
F-4.69
sg9
(lp3783
g11
asg29
S'N-methylaniline'
p3784
sg14
F0.6
sg31
g32
sg17
(lp3785
S'secondary amine'
p3786
aS'secondary aliphatic/aromatic amine (alkylarylamine)'
p3787
aS'aromatic'
p3788
asg37
F-5.74
ssS'mobley_7066554'
p3789
(dp3790
g3
S'c1cc(ccc1O)Cl'
p3791
sg24
g25
sg26
F0.02
sg27
F-7.03
sg9
(lp3792
g11
asg29
S'4-chlorophenol'
p3793
sg14
F0.6
sg31
g32
sg17
(lp3794
S'phenol or hydroxyhetarene'
p3795
aS'aryl chloride'
p3796
aS'aromatic'
p3797
asg37
F-5.36
ssS'mobley_1967551'
p3798
(dp3799
g3
S'CC=O'
p3800
sg24
g25
sg26
F0.02
sg27
F-3.5
sg9
(lp3801
g11
asg29
S'acetaldehyde'
p3802
sg14
F0.6
sg31
g32
sg17
(lp3803
S'aldehyde'
p3804
asg37
F-3.39
ssS'mobley_7326982'
p3805
(dp3806
g3
S'CC(C)O'
p3807
sg24
g25
sg26
F0.02
sg27
F-4.74
sg9
(lp3808
g11
asg29
S'propan-2-ol'
p3809
sg14
F0.6
sg31
g32
sg17
(lp3810
S'secondary alcohol'
p3811
asg37
F-3.28
ssS'mobley_9705941'
p3812
(dp3813
g3
S'Cc1cccs1'
p3814
sg24
g25
sg26
F0.02
sg27
F-1.38
sg9
(lp3815
g11
asg29
S'2-methylthiophene'
p3816
sg14
F0.6
sg31
g32
sg17
(lp3817
S'aromatic'
p3818
aS'heterocyclic'
p3819
asg37
F-0.22
ssS'mobley_4149784'
p3820
(dp3821
g3
S'c1cc2c(cc1Cl)Oc3ccc(cc3O2)Cl'
p3822
sg190
g191
sg192
F0.02
sg9
(lp3823
g11
asg194
S'2,7-dichlorodibenzo-p-dioxin'
p3824
sg196
F0.12
sg197
F-3.67
sg17
(lp3825
S'diaryl ether'
p3826
aS'aryl chloride'
p3827
aS'aromatic'
p3828
aS'heterocyclic'
p3829
asg200
F-3.39
sg201
g202
ssS'mobley_2213823'
p3830
(dp3831
g3
S'CCC(C)CC'
p3832
sg24
g25
sg26
F0.02
sg27
F2.51
sg9
(lp3833
g11
asg29
S'3-methylpentane'
p3834
sg14
F0.6
sg31
g32
sg17
(lp3835
S''
p3836
asg37
F2.72
ssS'mobley_7754849'
p3837
(dp3838
g3
S'CCOP(=S)(OCC)SCSP(=S)(OCC)OCC'
p3839
sg158
g159
sg160
F0.05
sg9
(lp3840
g11
asg162
S'ethion'
p3841
sg164
F1.37
sg165
F-6.1
sg17
(lp3842
S''
p3843
asg168
F-9.71
sg169
g170
ssS'mobley_8885088'
p3844
(dp3845
g3
S'C1CC=CC1'
p3846
sg24
g25
sg26
F0.02
sg27
F0.56
sg9
(lp3847
g11
asg29
S'cyclopentene'
p3848
sg14
F0.6
sg31
g32
sg17
(lp3849
S'alkene'
p3850
asg37
F1.38
ssS'mobley_7417968'
p3851
(dp3852
g3
S'CCOCCOC(=O)C'
p3853
sg244
g245
sg246
F0.021
sg9
(lp3854
g11
asg248
S'2-ethoxyethyl acetate'
p3855
sg250
g251
(g255
S'\x9a\x99\x99\x99\x99\x99\xb9?'
p3856
tp3857
Rp3858
sg261
g251
(g255
S'=\n\xd7\xa3p=\x15\xc0'
p3859
tp3860
Rp3861
sg17
(lp3862
S'dialkyl ether'
p3863
aS'carboxylic acid ester'
p3864
asg269
F-6.04
sg270
g271
ssS'mobley_9478823'
p3865
(dp3866
g3
S'Cc1ccccc1C'
p3867
sg24
g25
sg26
F0.02
sg27
F-0.9
sg9
(lp3868
g11
asg29
S'o-xylene'
p3869
sg14
F0.6
sg31
g32
sg17
(lp3870
S'aromatic'
p3871
asg37
F-0.52
ssS'mobley_4699732'
p3872
(dp3873
g3
S'C[C@@H](CCl)Cl'
p3874
sg24
g25
sg26
F0.02
sg27
F-1.27
sg9
(lp3875
S'Renamed mobley_4699732 from 1,2-dichloropropane to (2S)-1,2-dichloropropane (the name from the 3D structure) since the former did not completely specify stereochemistry.\n'
p3876
asg29
S'1,2-dichloropropane'
p3877
sg14
F0.6
sg31
g32
sg17
(lp3878
S'alkyl chloride'
p3879
asg37
F-0.2
ssS'mobley_4305650'
p3880
(dp3881
g3
S'CCC#N'
p3882
sg24
g25
sg26
F0.02
sg27
F-3.84
sg9
(lp3883
g11
asg29
S'propanenitrile'
p3884
sg14
F0.6
sg31
g32
sg17
(lp3885
S'carbonitrile'
p3886
asg37
F-1.27
ssS'mobley_628951'
p3887
(dp3888
g3
S'c1cc(c(c(c1)Cl)c2c(cccc2Cl)Cl)Cl'
p3889
sg190
g191
sg192
F0.04
sg9
(lp3890
g11
asg194
S'1,3-dichloro-2-(2,6-dichlorophenyl)benzene'
p3891
sg196
F0.12
sg197
F-2.28
sg17
(lp3892
S'aryl chloride'
p3893
aS'aromatic'
p3894
asg200
F-1.22
sg201
g202
ssS'mobley_4883284'
p3895
(dp3896
g3
S'c1ccc(cc1)N'
p3897
sg24
g25
sg26
F0.02
sg27
F-5.49
sg9
(lp3898
g11
asg29
S'aniline'
p3899
sg14
F0.6
sg31
g32
sg17
(lp3900
S'primary amine'
p3901
aS'primary aromatic amine'
p3902
aS'aromatic'
p3903
asg37
F-5.92
ssS'mobley_3210206'
p3904
(dp3905
g3
S'C[C@@H](CO[N+](=O)[O-])O[N+](=O)[O-]'
p3906
sg158
g159
sg160
F0.03
sg9
(lp3907
g11
asg162
S'1,2-dinitroxypropane'
p3908
sg164
F0.1
sg165
F-4.95
sg17
(lp3909
S'nitrate'
p3910
asg168
F-5.62
sg169
g170
ssS'mobley_2802855'
p3911
(dp3912
g3
S'CCCCBr'
p3913
sg24
g25
sg26
F0.02
sg27
F-0.4
sg9
(lp3914
g11
asg29
S'1-bromobutane'
p3915
sg14
F0.6
sg31
g32
sg17
(lp3916
S'alkyl bromide'
p3917
asg37
F1.68
ssS'mobley_1803862'
p3918
(dp3919
g3
S'CCC(C)C'
p3920
sg24
g25
sg26
F0.02
sg27
F2.38
sg9
(lp3921
g11
asg29
S'isopentane'
p3922
sg14
F0.6
sg31
g32
sg17
(lp3923
S''
p3924
asg37
F2.52
ssS'mobley_1858644'
p3925
(dp3926
g3
S'c1ccc(cc1)CCO'
p3927
sg24
g25
sg26
F0.03
sg27
F-6.79
sg9
(lp3928
g11
asg29
S'2-phenylethanol'
p3929
sg14
F0.6
sg31
g32
sg17
(lp3930
S'primary alcohol'
p3931
aS'aromatic'
p3932
asg37
F-5.33
ssS'mobley_8467917'
p3933
(dp3934
g3
S'CCCC/C=C/C'
p3935
sg24
g25
sg26
F0.02
sg27
F1.68
sg9
(lp3936
S'Renamed mobley_8467917 from hept-2-ene to (E)-hept-2-ene (the name from the 3D structure) since the former did not completely specify stereochemistry.\n'
p3937
asg29
S'hept-2-ene'
p3938
sg14
F0.6
sg31
g32
sg17
(lp3939
S'alkene'
p3940
asg37
F2.83
ssS'mobley_7017274'
p3941
(dp3942
g3
S'c1ccc2c(c1)ccc3c2cccc3'
p3943
sg24
g25
sg26
F0.03
sg27
F-3.88
sg9
(lp3944
g11
asg29
S'phenanthrene'
p3945
sg14
F0.6
sg31
g32
sg17
(lp3946
S'aromatic'
p3947
asg37
F-5.15
ssS'mobley_8746821'
p3948
(dp3949
g3
S'Cc1cccnc1C'
p3950
sg24
g25
sg26
F0.02
sg27
F-4.82
sg9
(lp3951
g11
asg29
S'2,3-dimethylpyridine'
p3952
sg14
F0.6
sg31
g32
sg17
(lp3953
S'aromatic'
p3954
aS'heterocyclic'
p3955
asg37
F-3.27
ssS'mobley_4177472'
p3956
(dp3957
g3
S'CC(C)C(C)C(C)C'
p3958
sg24
g25
sg26
F0.03
sg27
F2.56
sg9
(lp3959
g11
asg29
S'2,3,4-trimethylpentane'
p3960
sg14
F0.6
sg31
g32
sg17
(lp3961
S''
p3962
asg37
F2.86
ssS'mobley_8522124'
p3963
(dp3964
g3
S'CCCCCCC#C'
p3965
sg24
g25
sg26
F0.03
sg27
F0.71
sg9
(lp3966
g11
asg29
S'oct-1-yne'
p3967
sg14
F0.6
sg31
g32
sg17
(lp3968
S'alkyne'
p3969
asg37
F1.12
ssS'mobley_1723043'
p3970
(dp3971
g3
S'C1(C(C(C1(F)F)(F)F)(F)F)(F)F'
p3972
sg408
g409
sg410
F0.04
sg9
(lp3973
g11
asg412
S'octafluorocyclobutane'
p3974
sg414
F0.03
sg415
F3.43
sg17
(lp3975
S'alkyl fluoride'
p3976
asg421
F3.01
sg422
g423
ssS'mobley_2245668'
p3977
(dp3978
g3
S'CC(C)CO'
p3979
sg24
g25
sg26
F0.02
sg27
F-4.5
sg9
(lp3980
g11
asg29
S'2-methylpropan-1-ol'
p3981
sg14
F0.6
sg31
g32
sg17
(lp3982
S'primary alcohol'
p3983
asg37
F-2.96
ssS'mobley_1592519'
p3984
(dp3985
g3
S'CCCCCC(=O)OCC'
p3986
sg24
g25
sg26
F0.04
sg27
F-2.23
sg9
(lp3987
g11
asg29
S'ethyl hexanoate'
p3988
sg14
F0.6
sg31
g32
sg17
(lp3989
S'carboxylic acid ester'
p3990
asg37
F-2.8
ssS'mobley_129464'
p3991
(dp3992
g3
S'CCCCOCCCC'
p3993
sg24
g25
sg26
F0.03
sg27
F-0.83
sg9
(lp3994
g11
asg29
S'1-butoxybutane'
p3995
sg14
F0.6
sg31
g32
sg17
(lp3996
S'dialkyl ether'
p3997
asg37
F0.59
ssS'mobley_9434451'
p3998
(dp3999
g3
S'CC(C)Br'
p4000
sg24
g25
sg26
F0.02
sg27
F-0.48
sg9
(lp4001
g11
asg29
S'2-bromopropane'
p4002
sg14
F0.6
sg31
g32
sg17
(lp4003
S'alkyl bromide'
p4004
asg37
F0.97
ssS'mobley_7261305'
p4005
(dp4006
g3
S'NN'
p4007
sg24
g25
sg26
F0.02
sg27
F-9.3
sg9
(lp4008
g11
asg29
S'hydrazine'
p4009
sg14
F0.6
sg31
g32
sg17
(lp4010
S'hydrazine derivative'
p4011
asg37
F-7.1
ssS'mobley_8191186'
p4012
(dp4013
g3
S'C(C(F)(F)F)Cl'
p4014
sg24
g25
sg26
F0.02
sg27
F0.06
sg9
(lp4015
g11
asg29
S'2-chloro-1,1,1-trifluoro-ethane'
p4016
sg14
F0.6
sg31
g32
sg17
(lp4017
S'alkyl chloride'
p4018
asg37
F0.16
ssS'mobley_3040612'
p4019
(dp4020
g3
S'CCc1ccccc1C'
p4021
sg244
g245
sg246
F0.021
sg9
(lp4022
g11
asg248
S'1-ethyl-2-methylbenzene'
p4023
sg250
g251
(g255
S'\x9a\x99\x99\x99\x99\x99\xb9?'
p4024
tp4025
Rp4026
sg261
g251
(g255
S'333333\xeb\xbf'
p4027
tp4028
Rp4029
sg17
(lp4030
S'aromatic'
p4031
asg269
F-0.766
sg270
g271
ssS'mobley_667278'
p4032
(dp4033
g3
S'c1cc(c(c(c1c2cc(c(c(c2Cl)Cl)Cl)Cl)Cl)Cl)Cl'
p4034
sg190
g191
sg192
F0.08
sg9
(lp4035
g11
asg194
S'1,2,3,4-tetrachloro-5-(2,3,4-trichlorophenyl)benzene'
p4036
sg196
F0.1
sg197
F-4.4
sg17
(lp4037
S'aryl chloride'
p4038
aS'aromatic'
p4039
asg200
F-2.21
sg201
g202
ssS'mobley_6911232'
p4040
(dp4041
g3
S'CCOC'
p4042
sg24
g25
sg26
F0.02
sg27
F-2.1
sg9
(lp4043
g11
asg29
S'methoxyethane'
p4044
sg14
F0.6
sg31
g32
sg17
(lp4045
S'dialkyl ether'
p4046
asg37
F-0.82
ssS'mobley_8057732'
p4047
(dp4048
g3
S'c1cc(cc(c1)Cl)O'
p4049
sg24
g25
sg26
F0.03
sg27
F-6.62
sg9
(lp4050
g11
asg29
S'3-chlorophenol'
p4051
sg14
F0.6
sg31
g32
sg17
(lp4052
S'phenol or hydroxyhetarene'
p4053
aS'aryl chloride'
p4054
aS'aromatic'
p4055
asg37
F-5.28
ssS'mobley_5310099'
p4056
(dp4057
g3
S'CCCCC=C'
p4058
sg24
g25
sg26
F0.02
sg27
F1.58
sg9
(lp4059
g11
asg29
S'hex-1-ene'
p4060
sg14
F0.6
sg31
g32
sg17
(lp4061
S'alkene'
p4062
asg37
F2.59
ssS'mobley_6198745'
p4063
(dp4064
g3
S'CC(=O)OCC(COC(=O)C)OC(=O)C'
p4065
sg1209
g1210
sg1211
F0.1
sg1212
(lp4066
g1214
ag11
aS'Changed IUPAC name from glycerol triacetate to 2,3-diacetoxypropyl acetate for better handling/standardization.'
p4067
asg1215
S'glycerol triacetate'
p4068
sg14
F0.6
sg1217
F-8.84
sg17
(lp4069
S'carboxylic acid ester'
p4070
asg1220
F-12.16
sg1221
g1210
ssS'mobley_3201701'
p4071
(dp4072
g3
S'Cc1c(nc(nc1OC(=O)N(C)C)N(C)C)C'
p4073
sg158
g159
sg160
F0.04
sg9
(lp4074
g11
aS'Changed IUPAC name from pirimor to 2-(dimethylamino)-5,6-dimethylpyrimidin-4-yl N,N-dimethylcarbamate for better handling/standardization.'
p4075
asg162
S'pirimor'
p4076
sg164
F1.93
sg165
F-9.41
sg17
(lp4077
S'cation'
p4078
aS'tertiary amine'
p4079
aS'tertiary aliphatic/aromatic amine (alkylarylamine)'
p4080
aS'aromatic'
p4081
aS'heterocyclic'
p4082
asg168
F-13.68
sg169
g170
ssS'mobley_4690963'
p4083
(dp4084
g3
S'CCOCCOCC'
p4085
sg24
g25
sg26
F0.03
sg27
F-3.54
sg9
(lp4086
g11
asg29
S'1,2-diethoxyethane'
p4087
sg14
F0.6
sg31
g32
sg17
(lp4088
S'dialkyl ether'
p4089
asg37
F-3.08
ssS'mobley_1899443'
p4090
(dp4091
g3
S'CCCC(=C)C'
p4092
sg24
g25
sg26
F0.02
sg27
F1.47
sg9
(lp4093
g11
asg29
S'2-methylpent-1-ene'
p4094
sg14
F0.6
sg31
g32
sg17
(lp4095
S'alkene'
p4096
asg37
F2.75
ssS'mobley_3187514'
p4097
(dp4098
g3
S'Cc1ccccc1N'
p4099
sg24
g25
sg26
F0.03
sg27
F-5.53
sg9
(lp4100
g11
asg29
S'2-methylaniline'
p4101
sg14
F0.6
sg31
g32
sg17
(lp4102
S'primary amine'
p4103
aS'primary aromatic amine'
p4104
aS'aromatic'
p4105
asg37
F-5.37
ssS'mobley_4964807'
p4106
(dp4107
g3
S'CC(=O)CO[N+](=O)[O-]'
p4108
sg158
g159
sg160
F0.02
sg9
(lp4109
g11
asg162
S'nitroxyacetone'
p4110
sg164
F0.1
sg165
F-5.99
sg17
(lp4111
S'ketone'
p4112
aS'nitrate'
p4113
asg168
F-5.18
sg169
g170
ssS'mobley_6843802'
p4114
(dp4115
g3
S'c1ccc(cc1)O[C@@H](C(F)F)F'
p4116
sg24
g25
sg26
F0.02
sg27
F-1.29
sg9
(lp4117
S'Renamed mobley_6843802 from 1,2,2-trifluoroethoxybenzene to [(1R)-1,2,2-trifluoroethoxy]benzene (the name from the 3D structure) since the former did not completely specify stereochemistry.\n'
p4118
asg29
S'1,2,2-trifluoroethoxybenzene'
p4119
sg14
F0.6
sg31
g32
sg17
(lp4120
S'alkyl fluoride'
p4121
aS'aromatic'
p4122
asg37
F-2.93
ssS'mobley_210639'
p4123
(dp4124
g3
S'CC(C)I'
p4125
sg24
g25
sg26
F0.02
sg27
F-0.46
sg9
(lp4126
g11
asg29
S'2-iodopropane'
p4127
sg14
F0.6
sg31
g32
sg17
(lp4128
S'alkyl iodide'
p4129
asg37
F0.29
ssS'mobley_1075836'
p4130
(dp4131
g3
S'CCC(=O)OC'
p4132
sg24
g25
sg26
F0.02
sg27
F-2.93
sg9
(lp4133
g11
asg29
S'methyl propanoate'
p4134
sg14
F0.6
sg31
g32
sg17
(lp4135
S'carboxylic acid ester'
p4136
asg37
F-3.83
ssS'mobley_6091882'
p4137
(dp4138
g3
S'C=C'
p4139
sg24
g25
sg26
F0.01
sg27
F1.28
sg9
(lp4140
g11
asg29
S'ethylene'
p4141
sg14
F0.6
sg31
g32
sg17
(lp4142
S'alkene'
p4143
asg37
F2.36
ssS'mobley_8514745'
p4144
(dp4145
g3
S'CCCCCOC(=O)C'
p4146
sg24
g25
sg26
F0.03
sg27
F-2.51
sg9
(lp4147
g11
asg29
S'pentyl acetate'
p4148
sg14
F0.6
sg31
g32
sg17
(lp4149
S'carboxylic acid ester'
p4150
asg37
F-2.83
ssS'mobley_8668219'
p4151
(dp4152
g3
S'CC[C@@H](C)C(C)C'
p4153
sg24
g25
sg26
F0.03
sg27
F2.52
sg9
(lp4154
S'Renamed mobley_8668219 from 2,3-dimethylpentane to (3R)-2,3-dimethylpentane (the name from the 3D structure) since the former did not completely specify stereochemistry.\n'
p4155
asg29
S'2,3-dimethylpentane'
p4156
sg14
F0.6
sg31
g32
sg17
(lp4157
S''
p4158
asg37
F2.66
ssS'mobley_9729792'
p4159
(dp4160
g3
S'C1C=CC=CC=C1'
p4161
sg24
g25
sg26
F0.02
sg27
F-0.99
sg9
(lp4162
g11
asg29
S'cyclohepta-1,3,5-triene'
p4163
sg14
F0.6
sg31
g32
sg17
(lp4164
S'alkene'
p4165
asg37
F0.15
ssS'mobley_2784376'
p4166
(dp4167
g3
S'C1CC1'
p4168
sg24
g25
sg26
F0.02
sg27
F0.75
sg9
(lp4169
g11
asg29
S'cyclopropane'
p4170
sg14
F0.6
sg31
g32
sg17
(lp4171
S''
p4172
asg37
F2.64
ssS'mobley_8739734'
p4173
(dp4174
g3
S'CC(C)C(=O)C'
p4175
sg24
g25
sg26
F0.02
sg27
F-3.24
sg9
(lp4176
g11
asg29
S'3-methylbutan-2-one'
p4177
sg14
F0.6
sg31
g32
sg17
(lp4178
S'ketone'
p4179
asg37
F-2.93
ssS'mobley_6338073'
p4180
(dp4181
g3
S'CCNc1nc(nc(n1)SC)NC(C)(C)C'
p4182
sg158
g159
sg160
F0.05
sg9
(lp4183
g11
aS'Changed IUPAC name from terbutryn to 2-N-tert-butyl-4-N-ethyl-6-(methylsulfanyl)-1,3,5-triazine-2,4-diamine for better handling/standardization.'
p4184
asg162
S'terbutryn'
p4185
sg164
F0.42
sg165
F-6.68
sg17
(lp4186
S'thioether'
p4187
aS'secondary amine'
p4188
aS'secondary aliphatic/aromatic amine (alkylarylamine)'
p4189
aS'aromatic'
p4190
aS'heterocyclic'
p4191
asg168
F-7.9
sg169
g170
ssS'mobley_4884177'
p4192
(dp4193
g3
S'CCc1cccnc1'
p4194
sg24
g25
sg26
F0.02
sg27
F-4.59
sg9
(lp4195
g11
asg29
S'3-ethylpyridine'
p4196
sg14
F0.6
sg31
g32
sg17
(lp4197
S'aromatic'
p4198
aS'heterocyclic'
p4199
asg37
F-2.96
ssS'mobley_6081058'
p4200
(dp4201
g3
S'CCCCC/C=C/C=O'
p4202
sg24
g25
sg26
F0.03
sg27
F-3.43
sg9
(lp4203
S'Renamed mobley_6081058 from oct-2-enal to (E)-oct-2-enal (the name from the 3D structure) since the former did not completely specify stereochemistry.\n'
p4204
asg29
S'oct-2-enal'
p4205
sg14
F0.6
sg31
g32
sg17
(lp4206
S'aldehyde'
p4207
aS'alkene'
p4208
asg37
F-2.47
ssS'mobley_9257453'
p4209
(dp4210
g3
S'c1cc(c(cc1O)Cl)Cl'
p4211
sg244
g245
sg246
F0.019
sg9
(lp4212
g11
asg248
S'3,4-dichlorophenol'
p4213
sg250
g251
(g255
S'\x9a\x99\x99\x99\x99\x99\xb9?'
p4214
tp4215
Rp4216
sg261
g251
(g255
S')\\\x8f\xc2\xf5(\x1d\xc0'
p4217
tp4218
Rp4219
sg17
(lp4220
S'phenol or hydroxyhetarene'
p4221
aS'aryl chloride'
p4222
aS'aromatic'
p4223
asg269
F-5.32
sg270
g271
ssS'mobley_36119'
p4224
(dp4225
g3
S'CCCCCCCCO'
p4226
sg24
g25
sg26
F0.03
sg27
F-4.09
sg9
(lp4227
g11
asg29
S'octan-1-ol'
p4228
sg14
F0.6
sg31
g32
sg17
(lp4229
S'primary alcohol'
p4230
asg37
F-2.65
ssS'mobley_5079234'
p4231
(dp4232
g3
S'CCCCCCCO'
p4233
sg24
g25
sg26
F0.02
sg27
F-4.21
sg9
(lp4234
g11
asg29
S'heptan-1-ol'
p4235
sg14
F0.6
sg31
g32
sg17
(lp4236
S'primary alcohol'
p4237
asg37
F-2.72
ssS'mobley_2487143'
p4238
(dp4239
g3
S'CCCCC(=O)C'
p4240
sg24
g25
sg26
F0.02
sg27
F-3.28
sg9
(lp4241
g11
asg29
S'hexan-2-one'
p4242
sg14
F0.6
sg31
g32
sg17
(lp4243
S'ketone'
p4244
asg37
F-2.77
ssS'mobley_430089'
p4245
(dp4246
g3
S'CCCC#C'
p4247
sg24
g25
sg26
F0.02
sg27
F0.01
sg9
(lp4248
g11
asg29
S'pent-1-yne'
p4249
sg14
F0.6
sg31
g32
sg17
(lp4250
S'alkyne'
p4251
asg37
F0.45
ssS'mobley_7829570'
p4252
(dp4253
g3
S'CCCC[N@](CC)c1c(cc(cc1[N+](=O)[O-])C(F)(F)F)[N+](=O)[O-]'
p4254
sg158
g159
sg160
F0.04
sg9
(lp4255
g11
aS'Changed IUPAC name from benefin to N-butyl-N-ethyl-2,6-dinitro-4-(trifluoromethyl)aniline for better handling/standardization.'
p4256
asg162
S'benefin'
p4257
sg164
F1.93
sg165
F-3.51
sg17
(lp4258
S'tertiary amine'
p4259
aS'tertiary aliphatic/aromatic amine (alkylarylamine)'
p4260
aS'halogen derivative'
p4261
aS'nitro'
p4262
aS'aromatic'
p4263
asg168
F-2.68
sg169
g170
ssS'mobley_5890803'
p4264
(dp4265
g3
S'CCCOC(=O)CC'
p4266
sg24
g25
sg26
F0.02
sg27
F-2.44
sg9
(lp4267
g11
asg29
S'propyl propanoate'
p4268
sg14
F0.6
sg31
g32
sg17
(lp4269
S'carboxylic acid ester'
p4270
asg37
F-2.95
ssS'mobley_3269565'
p4271
(dp4272
g3
S'CC(C)OC'
p4273
sg24
g25
sg26
F0.02
sg27
F-2.01
sg9
(lp4274
g11
asg29
S'2-methoxypropane'
p4275
sg14
F0.6
sg31
g32
sg17
(lp4276
S'dialkyl ether'
p4277
asg37
F-0.75
ssS'mobley_3259411'
p4278
(dp4279
g3
S'C(C(CO)O)O'
p4280
sg408
g409
sg410
F0.06
sg9
(lp4281
g11
asg412
S'glycerol'
p4282
sg414
F1.0
sg415
F-13.43
sg17
(lp4283
S'primary alcohol'
p4284
aS'secondary alcohol'
p4285
aS'1,2-diol'
p4286
asg421
F-9.71
sg422
g423
ssS'mobley_766666'
p4287
(dp4288
g3
S'C(=C(Cl)Cl)Cl'
p4289
sg24
g25
sg26
F0.02
sg27
F-0.44
sg9
(lp4290
g11
asg29
S'1,1,2-trichloroethylene'
p4291
sg14
F0.6
sg31
g32
sg17
(lp4292
S'halogen derivative'
p4293
asg37
F0.99
ssS'mobley_4188615'
p4294
(dp4295
g3
S'CN(C)C(=O)c1ccccc1'
p4296
sg24
g25
sg26
F0.04
sg27
F-9.29
sg9
(lp4297
g11
asg29
S'N,N-dimethylbenzamide'
p4298
sg14
F0.6
sg31
g32
sg17
(lp4299
S'cation'
p4300
aS'aromatic'
p4301
asg37
F-7.98
ssS'mobley_3999471'
p4302
(dp4303
g3
S'CC(Cl)Cl'
p4304
sg24
g25
sg26
F0.02
sg27
F-0.84
sg9
(lp4305
g11
asg29
S'1,1-dichloroethane'
p4306
sg14
F0.6
sg31
g32
sg17
(lp4307
S'alkyl chloride'
p4308
asg37
F0.17
ssS'mobley_5747981'
p4309
(dp4310
g3
S'COCC(OC)(OC)OC'
p4311
sg24
g25
sg26
F0.04
sg27
F-5.73
sg9
(lp4312
g11
asg29
S'1,1,1,2-tetramethoxyethane'
p4313
sg14
F0.6
sg31
g32
sg17
(lp4314
S'dialkyl ether'
p4315
aS'orthocarboxylic acid derivative'
p4316
aS'orthoester'
p4317
asg37
F-5.97
ssS'mobley_9671033'
p4318
(dp4319
g3
S'CCC[N+](=O)[O-]'
p4320
sg24
g25
sg26
F0.02
sg27
F-3.34
sg9
(lp4321
g11
asg29
S'1-nitropropane'
p4322
sg14
F0.6
sg31
g32
sg17
(lp4323
S'nitro'
p4324
asg37
F-1.38
ssS'mobley_525934'
p4325
(dp4326
g3
S'CS'
p4327
sg5
g6
sg7
F0.1
sg8
F-1.2
sg9
(lp4328
g11
asg12
S'methanethiol'
p4329
sg14
F0.6
sg15
g16
sg17
(lp4330
S'thiol (sulfanyl)'
p4331
aS'alkylthiol'
p4332
asg20
F-0.2
ssS'mobley_8578590'
p4333
(dp4334
g3
S'CS(=O)C'
p4335
sg24
S'10.1080/09593338709384509 and 10.1038/313384a0'
p4336
sg26
F0.03
sg27
g251
(g255
S'\x90\xc2\xf5(\\\x8f"\xc0'
p4337
tp4338
Rp4339
sg9
(lp4340
g11
aS'Updated 10/22/13 using the mean of experimental data from two sources from J. Peter Guthrie --  Watts & Brimblecombe (1987) and Taft & Abraham et al. (1985). Uncertainty taken as the standard deviation across the two datapoints..\n'
p4341
asg29
S'methylsulfinylmethane'
p4342
sg14
g251
(g255
S'8\n\xd7\xa3p=\xe2?'
p4343
tp4344
Rp4345
sg31
g32
sg17
(lp4346
S'sulfoxide'
p4347
asg37
F-8.32
ssS'mobley_1821184'
p4348
(dp4349
g3
S'Cc1c[nH]c2c1cccc2'
p4350
sg24
g25
sg26
F0.03
sg27
F-5.88
sg9
(lp4351
g11
asg29
S'3-methyl-1H-indole'
p4352
sg14
F0.6
sg31
g32
sg17
(lp4353
S'aromatic'
p4354
aS'heterocyclic'
p4355
asg37
F-6.55
ssS'mobley_6571751'
p4356
(dp4357
g3
S'CC1=CCCCC1'
p4358
sg24
g25
sg26
F0.02
sg27
F0.67
sg9
(lp4359
g11
asg29
S'1-methylcyclohexene'
p4360
sg14
F0.6
sg31
g32
sg17
(lp4361
S'alkene'
p4362
asg37
F1.33
ssS'mobley_4553008'
p4363
(dp4364
g3
S'c1cc(ccc1Cl)Cl'
p4365
sg24
g25
sg26
F0.02
sg27
F-1.01
sg9
(lp4366
g11
asg29
S'1,4-dichlorobenzene'
p4367
sg14
F0.6
sg31
g32
sg17
(lp4368
S'aryl chloride'
p4369
aS'aromatic'
p4370
asg37
F-0.1
ssS'mobley_5690766'
p4371
(dp4372
g3
S'C=CCCC=C'
p4373
sg24
g25
sg26
F0.02
sg27
F1.01
sg9
(lp4374
g11
asg29
S'hexa-1,5-diene'
p4375
sg14
F0.6
sg31
g32
sg17
(lp4376
S'alkene'
p4377
asg37
F2.44
ssS'mobley_7532833'
p4378
(dp4379
g3
S'CC#N'
p4380
sg24
g25
sg26
F0.01
sg27
F-3.88
sg9
(lp4381
g11
asg29
S'acetonitrile'
p4382
sg14
F0.6
sg31
g32
sg17
(lp4383
S'carbonitrile'
p4384
asg37
F-2.51
ssS'mobley_3398536'
p4385
(dp4386
g3
S'c1ccc(cc1)I'
p4387
sg24
g25
sg26
F0.02
sg27
F-1.74
sg9
(lp4388
g11
asg29
S'iodobenzene'
p4389
sg14
F0.6
sg31
g32
sg17
(lp4390
S'aryl iodide'
p4391
aS'aromatic'
p4392
asg37
F-0.34
ssS'mobley_3546460'
p4393
(dp4394
g3
S'CCCCCCO'
p4395
sg24
g25
sg26
F0.02
sg27
F-4.4
sg9
(lp4396
g11
asg29
S'hexan-1-ol'
p4397
sg14
F0.6
sg31
g32
sg17
(lp4398
S'primary alcohol'
p4399
asg37
F-3.03
ssS'mobley_4013838'
p4400
(dp4401
g3
S'CC(C)C(=O)C(C)C'
p4402
sg24
g25
sg26
F0.02
sg27
F-2.74
sg9
(lp4403
g11
asg29
S'2,4-dimethylpentan-3-one'
p4404
sg14
F0.6
sg31
g32
sg17
(lp4405
S'ketone'
p4406
asg37
F-2.47
ssS'mobley_2782339'
p4407
(dp4408
g3
S'c1ccc2c(c1)C(=O)NC2=O'
p4409
sg408
g409
sg410
F0.05
sg9
(lp4410
g11
asg412
S'phthalimide'
p4411
sg414
F0.5
sg415
F-9.61
sg17
(lp4412
S'carboxylic acid imide, N-unsubstituted'
p4413
aS'aromatic'
p4414
aS'heterocyclic'
p4415
asg421
F-11.74
sg422
g423
ssS'mobley_6727159'
p4416
(dp4417
g3
S'C(CO[N+](=O)[O-])O'
p4418
sg158
g159
sg160
F0.03
sg9
(lp4419
g11
aS'Changed IUPAC name from ethyleneglycol mononitrate to 2-(nitrooxy)ethan-1-ol for better handling/standardization.'
p4420
asg162
S'ethyleneglycol mononitrate'
p4421
sg164
F0.1
sg165
F-8.18
sg17
(lp4422
S'primary alcohol'
p4423
aS'nitrate'
p4424
asg168
F-6.5
sg169
g170
ssS'mobley_4639255'
p4425
(dp4426
g3
S'C(CO)O'
p4427
sg24
g25
sg26
F0.03
sg27
F-9.3
sg9
(lp4428
g11
asg29
S'ethylene glycol'
p4429
sg14
F0.6
sg31
g32
sg17
(lp4430
S'primary alcohol'
p4431
aS'1,2-diol'
p4432
asg37
F-7.62
ssS'mobley_5006685'
p4433
(dp4434
g3
S'CC(=C)[C@H]1CCC(=CC1)C=O'
p4435
sg244
g245
sg246
F0.02
sg9
(lp4436
S'Renamed mobley_5006685 from 4-(1-Methylethenyl)-1-cyclohexene-1-carboxaldehyde to (4S)-4-isopropenylcyclohexene-1-carbaldehyde (the name from the 3D structure) since the former did not completely specify stereochemistry.\n'
p4437
asg248
S'4-(1-Methylethenyl)-1-cyclohexene-1-carboxaldehyde'
p4438
sg250
g251
(g255
S'\xc3\xf5(\\\x8f\xc2\xc5?'
p4439
tp4440
Rp4441
sg261
g251
(g255
S'\\\x8f\xc2\xf5(\\\x10\xc0'
p4442
tp4443
Rp4444
sg17
(lp4445
S'aldehyde'
p4446
aS'alkene'
p4447
asg269
F-3.61
sg270
g271
ssS'mobley_9565165'
p4448
(dp4449
g3
S'c1ccc-2c(c1)Cc3c2cccc3'
p4450
sg24
g25
sg26
F0.02
sg27
F-3.35
sg9
(lp4451
g11
asg29
S'9H-fluorene'
p4452
sg14
F0.6
sg31
g32
sg17
(lp4453
S'aromatic'
p4454
asg37
F-4.29
ssS'mobley_2609604'
p4455
(dp4456
g3
S'CCC(C)(C)CC'
p4457
sg24
g25
sg26
F0.03
sg27
F2.56
sg9
(lp4458
g11
asg29
S'3,3-dimethylpentane'
p4459
sg14
F0.6
sg31
g32
sg17
(lp4460
S''
p4461
asg37
F2.53
ssS'mobley_5747188'
p4462
(dp4463
g3
S'Cc1ccccc1[N+](=O)[O-]'
p4464
sg24
g25
sg26
F0.02
sg27
F-3.58
sg9
(lp4465
g11
asg29
S'1-methyl-2-nitro-benzene'
p4466
sg14
F0.6
sg31
g32
sg17
(lp4467
S'nitro'
p4468
aS'aromatic'
p4469
asg37
F-3.14
ssS'mobley_9626434'
p4470
(dp4471
g3
S'CCOCCO'
p4472
sg24
g25
sg26
F0.03
sg27
F-6.69
sg9
(lp4473
g11
asg29
S'2-ethoxyethanol'
p4474
sg14
F0.6
sg31
g32
sg17
(lp4475
S'primary alcohol'
p4476
aS'dialkyl ether'
p4477
asg37
F-4.77
ssS'mobley_4587267'
p4478
(dp4479
g3
S'C([C@H]([C@H]([C@@H]([C@@H](CO)O)O)O)O)O'
p4480
sg244
g245
sg246
F0.043
sg9
(lp4481
g11
asg248
S'(2R,3R,4R,5R)-Hexan-1,2,3,4,5,6-hexol'
p4482
sg250
g251
(g255
S'{\x14\xaeG\xe1z\xd4?'
p4483
tp4484
Rp4485
sg261
g251
(g255
S'\x1f\x85\xebQ\xb8\x9e7\xc0'
p4486
tp4487
Rp4488
sg17
(lp4489
S'primary alcohol'
p4490
aS'secondary alcohol'
p4491
aS'1,2-diol'
p4492
asg269
F-18.64
sg270
g271
ssS'mobley_172879'
p4493
(dp4494
g3
S'c1ccc2c(c1)Oc3ccccc3O2'
p4495
sg190
g191
sg192
F0.02
sg9
(lp4496
g11
asg194
S'dibenzo-p-dioxin'
p4497
sg196
F0.1
sg197
F-3.15
sg17
(lp4498
S'diaryl ether'
p4499
aS'aromatic'
p4500
aS'heterocyclic'
p4501
asg200
F-4.8
sg201
g202
ssS'mobley_2457863'
p4502
(dp4503
g3
S'COc1cccc(c1)O'
p4504
sg24
g25
sg26
F0.03
sg27
F-7.66
sg9
(lp4505
g11
asg29
S'3-methoxyphenol'
p4506
sg14
F0.6
sg31
g32
sg17
(lp4507
S'phenol or hydroxyhetarene'
p4508
aS'alkyl aryl ether'
p4509
aS'aromatic'
p4510
asg37
F-7.03
ssS'mobley_2143011'
p4511
(dp4512
g3
S'CC(C)C=C'
p4513
sg24
g25
sg26
F0.02
sg27
F1.83
sg9
(lp4514
g11
asg29
S'3-methylbut-1-ene'
p4515
sg14
F0.6
sg31
g32
sg17
(lp4516
S'alkene'
p4517
asg37
F2.8
ssS'mobley_2837389'
p4518
(dp4519
g3
S'c1cc[nH]c1'
p4520
sg24
g25
sg26
F0.02
sg27
F-4.78
sg9
(lp4521
g11
asg29
S'pyrrole'
p4522
sg14
F0.6
sg31
g32
sg17
(lp4523
S'aromatic'
p4524
aS'heterocyclic'
p4525
asg37
F-3.87
ssS'mobley_8789465'
p4526
(dp4527
g3
S'c1ccc(c(c1)O)I'
p4528
sg24
g25
sg26
F0.03
sg27
F-6.2
sg9
(lp4529
g11
asg29
S'2-iodophenol'
p4530
sg14
F0.6
sg31
g32
sg17
(lp4531
S'phenol or hydroxyhetarene'
p4532
aS'aryl iodide'
p4533
aS'aromatic'
p4534
asg37
F-2.91
ssS'mobley_2859600'
p4535
(dp4536
g3
S'C=Cc1ccccc1'
p4537
sg24
g25
sg26
F0.02
sg27
F-1.24
sg9
(lp4538
g11
asg29
S'styrene'
p4539
sg14
F0.6
sg31
g32
sg17
(lp4540
S'alkene'
p4541
aS'aromatic'
p4542
asg37
F-1.32
ssS'mobley_1855337'
p4543
(dp4544
g3
S'c1c(cc(c(c1Cl)Cl)Cl)Cl'
p4545
sg24
g25
sg26
F0.02
sg27
F-1.62
sg9
(lp4546
g11
asg29
S'1,2,3,5-tetrachlorobenzene'
p4547
sg14
F0.6
sg31
g32
sg17
(lp4548
S'aryl chloride'
p4549
aS'aromatic'
p4550
asg37
F-0.02
ssS'mobley_9740891'
p4551
(dp4552
g3
S'c1cc(c(c(c1)Cl)C#N)Cl'
p4553
sg158
g159
sg160
F0.02
sg9
(lp4554
g11
asg162
S'dichlobenil'
p4555
sg164
F1.93
sg165
F-4.71
sg17
(lp4556
S'aryl chloride'
p4557
aS'carbonitrile'
p4558
aS'aromatic'
p4559
asg168
F-2.57
sg169
g170
ssS'mobley_7608462'
p4560
(dp4561
g3
S'c1ccc(cc1)Cl'
p4562
sg24
g25
sg26
F0.02
sg27
F-1.12
sg9
(lp4563
g11
asg29
S'chlorobenzene'
p4564
sg14
F0.6
sg31
g32
sg17
(lp4565
S'aryl chloride'
p4566
aS'aromatic'
p4567
asg37
F-0.6
ssS'mobley_6522117'
p4568
(dp4569
g3
S'CCOP(=O)(OCC)O/C(=C/Cl)/c1ccc(cc1Cl)Cl'
p4570
sg158
g159
sg160
F0.05
sg9
(lp4571
S'Renamed mobley_6522117 from 2-chloro-1-(2,4-dichlorophenyl)ethenyl diethyl phosphate to [(E)-2-chloro-1-(2,4-dichlorophenyl)vinyl] diethyl phosphate (the name from the 3D structure) since the former did not completely specify stereochemistry.\n'
p4572
asg162
S'chlorfenvinphos'
p4573
sg164
F1.37
sg165
F-7.07
sg17
(lp4574
S'aryl chloride'
p4575
aS'alkene'
p4576
aS'aromatic'
p4577
asg168
F-9.45
sg169
g170
ssS'mobley_8221999'
p4578
(dp4579
g3
S'CCCC#N'
p4580
sg24
g25
sg26
F0.02
sg27
F-3.64
sg9
(lp4581
g11
asg29
S'butanenitrile'
p4582
sg14
F0.6
sg31
g32
sg17
(lp4583
S'carbonitrile'
p4584
asg37
F-2.23
ssS'mobley_4762983'
p4585
(dp4586
g3
S'CCCCCC=C'
p4587
sg24
g25
sg26
F0.02
sg27
F1.66
sg9
(lp4588
g11
asg29
S'hept-1-ene'
p4589
sg14
F0.6
sg31
g32
sg17
(lp4590
S'alkene'
p4591
asg37
F2.97
ssS'mobley_2279874'
p4592
(dp4593
g3
S'COC(OC)OC'
p4594
sg24
g25
sg26
F0.03
sg27
F-4.42
sg9
(lp4595
g11
asg29
S'trimethoxymethane'
p4596
sg14
F0.6
sg31
g32
sg17
(lp4597
S'orthocarboxylic acid derivative'
p4598
aS'orthoester'
p4599
asg37
F-4.06
ssS'mobley_3663158'
p4600
(dp4601
g3
S'c1ccc2cc(ccc2c1)O'
p4602
sg24
g25
sg26
F0.03
sg27
F-8.11
sg9
(lp4603
g11
asg29
S'naphthalen-2-ol'
p4604
sg14
F0.6
sg31
g32
sg17
(lp4605
S'phenol or hydroxyhetarene'
p4606
aS'aromatic'
p4607
asg37
F-7.88
ssS'mobley_8764620'
p4608
(dp4609
g3
S'c1cc(cnc1)C#N'
p4610
sg24
g25
sg26
F0.02
sg27
F-6.75
sg9
(lp4611
g11
asg29
S'pyridine-3-carbonitrile'
p4612
sg14
F0.6
sg31
g32
sg17
(lp4613
S'carbonitrile'
p4614
aS'aromatic'
p4615
aS'heterocyclic'
p4616
asg37
F-4.63
ssS'mobley_820789'
p4617
(dp4618
g3
S'CCCC(=O)O'
p4619
sg24
g25
sg26
F0.03
sg27
F-6.35
sg9
(lp4620
g11
asg29
S'butyric acid'
p4621
sg14
F0.6
sg31
g32
sg17
(lp4622
S'carboxylic acid'
p4623
asg37
F-5.46
ssS'mobley_6978427'
p4624
(dp4625
g3
S'COC(=O)C1CCCCC1'
p4626
sg24
g25
sg26
F0.02
sg27
F-3.3
sg9
(lp4627
g11
asg29
S'methyl cyclohexanecarboxylate'
p4628
sg14
F0.6
sg31
g32
sg17
(lp4629
S'carboxylic acid ester'
p4630
asg37
F-4.29
ssS'mobley_6739648'
p4631
(dp4632
g3
S'C1COCCO1'
p4633
sg24
g25
sg26
F0.02
sg27
F-5.06
sg9
(lp4634
g11
asg29
S'1,4-dioxane'
p4635
sg14
F0.6
sg31
g32
sg17
(lp4636
S'dialkyl ether'
p4637
aS'heterocyclic'
p4638
asg37
F-4.35
ssS'mobley_1800170'
p4639
(dp4640
g3
S'CCS'
p4641
sg24
g25
sg26
F0.02
sg27
F-1.14
sg9
(lp4642
g11
asg29
S'ethanethiol'
p4643
sg14
F0.6
sg31
g32
sg17
(lp4644
S'thiol (sulfanyl)'
p4645
aS'alkylthiol'
p4646
asg37
F-0.4
ssS'mobley_1046331'
p4647
(dp4648
g3
S'c1ccc(cc1)OC=O'
p4649
sg24
g25
sg26
F0.02
sg27
F-3.82
sg9
(lp4650
g11
asg29
S'phenyl formate'
p4651
sg14
F0.6
sg31
g32
sg17
(lp4652
S'carboxylic acid ester'
p4653
aS'aromatic'
p4654
asg37
F-4.83
ssS'mobley_9821936'
p4655
(dp4656
g3
S'c12c(c(c(c(c1Cl)Cl)Cl)Cl)Oc3c(c(c(c(c3Cl)Cl)Cl)Cl)O2'
p4657
sg190
g191
sg192
F0.04
sg9
(lp4658
g11
asg194
S'1,2,3,4,6,7,8,9-octachlorodibenzo-p-dioxin'
p4659
sg196
F1.0
sg197
F-4.53
sg17
(lp4660
S'diaryl ether'
p4661
aS'aryl chloride'
p4662
aS'aromatic'
p4663
aS'heterocyclic'
p4664
asg200
F-1.15
sg201
g202
ssS'mobley_8311303'
p4665
(dp4666
g3
S'c1cc(c(cc1c2c(c(cc(c2Cl)Cl)Cl)Cl)Cl)Cl'
p4667
sg190
g191
sg192
F0.04
sg9
(lp4668
g11
asg194
S'1,2,4,5-tetrachloro-3-(3,4-dichlorophenyl)benzene'
p4669
sg196
F0.22
sg197
F-4.38
sg17
(lp4670
S'aryl chloride'
p4671
aS'aromatic'
p4672
asg200
F-0.7
sg201
g202
ssS'mobley_4483973'
p4673
(dp4674
g3
S'c1ccc(cc1)F'
p4675
sg24
g25
sg26
F0.02
sg27
F-0.8
sg9
(lp4676
g11
asg29
S'fluorobenzene'
p4677
sg14
F0.6
sg31
g32
sg17
(lp4678
S'aryl fluoride'
p4679
aS'aromatic'
p4680
asg37
F-0.07
ssS'mobley_4845722'
p4681
(dp4682
g3
S'c1(c(c(c(c(c1Cl)Cl)Cl)Cl)Cl)Cl'
p4683
sg408
g409
sg410
F0.04
sg9
(lp4684
g11
asg412
S'hexachlorobenzene'
p4685
sg414
F1.16
sg415
F-2.33
sg17
(lp4686
S'aryl chloride'
p4687
aS'aromatic'
p4688
asg421
F0.24
sg422
g423
ssS'mobley_4039055'
p4689
(dp4690
g3
S'c1c(c(=O)[nH]c(=O)[nH]1)Br'
p4691
sg408
g409
sg410
F0.06
sg9
(lp4692
g11
asg412
S'5-bromouracil'
p4693
sg414
F0.55
sg415
F-18.17
sg17
(lp4694
S'aryl bromide'
p4695
aS'oxo(het)arene'
p4696
aS'aromatic'
p4697
aS'heterocyclic'
p4698
asg421
F-16.61
sg422
g423
ssS'mobley_2294995'
p4699
(dp4700
g3
S'CCOC=O'
p4701
sg24
g25
sg26
F0.02
sg27
F-2.56
sg9
(lp4702
g11
asg29
S'ethyl formate'
p4703
sg14
F0.6
sg31
g32
sg17
(lp4704
S'carboxylic acid ester'
p4705
asg37
F-2.99
ssS'mobley_303222'
p4706
(dp4707
g3
S'CC=C'
p4708
sg24
g25
sg26
F0.02
sg27
F1.32
sg9
(lp4709
g11
asg29
S'prop-1-ene'
p4710
sg14
F0.6
sg31
g32
sg17
(lp4711
S'alkene'
p4712
asg37
F2.44
ssS'mobley_1563176'
p4713
(dp4714
g3
S'CCCCS'
p4715
sg24
g25
sg26
F0.02
sg27
F-0.99
sg9
(lp4716
g11
asg29
S'butane-1-thiol'
p4717
sg14
F0.6
sg31
g32
sg17
(lp4718
S'thiol (sulfanyl)'
p4719
aS'alkylthiol'
p4720
asg37
F-0.12
ssS'mobley_4375719'
p4721
(dp4722
g3
S'CCCCCCCCC'
p4723
sg24
g25
sg26
F0.03
sg27
F3.13
sg9
(lp4724
g11
asg29
S'nonane'
p4725
sg14
F0.6
sg31
g32
sg17
(lp4726
S''
p4727
asg37
F3.32
ssS'mobley_8765203'
p4728
(dp4729
g3
S'CC(=C)C=C'
p4730
sg24
g25
sg26
F0.02
sg27
F0.68
sg9
(lp4731
g11
asg29
S'isoprene'
p4732
sg14
F0.6
sg31
g32
sg17
(lp4733
S'alkene'
p4734
asg37
F1.81
ssS'mobley_1278715'
p4735
(dp4736
g3
S'C(C(Cl)(Cl)Cl)(Cl)(Cl)Cl'
p4737
sg408
g409
sg410
F0.04
sg9
(lp4738
g11
asg412
S'hexachloroethane'
p4739
sg414
F0.1
sg415
F-0.64
sg17
(lp4740
S'halogen derivative'
p4741
asg421
F1.0
sg422
g423
ssS'mobley_2269032'
p4742
(dp4743
g3
S'C[C@@H](c1ccc2cc(ccc2c1)OC)C(=O)O'
p4744
sg408
g409
sg410
F0.1
sg9
(lp4745
g11
asg412
S'naproxen'
p4746
sg414
F0.18
sg415
F-10.21
sg17
(lp4747
S'alkyl aryl ether'
p4748
aS'carboxylic acid'
p4749
aS'aromatic'
p4750
asg421
F-10.8
sg422
g423
ssS'mobley_929676'
p4751
(dp4752
g3
S'CCCCCCBr'
p4753
sg24
g25
sg26
F0.02
sg27
F0.18
sg9
(lp4754
g11
asg29
S'1-bromohexane'
p4755
sg14
F0.6
sg31
g32
sg17
(lp4756
S'alkyl bromide'
p4757
asg37
F1.78
ssS'mobley_1328465'
p4758
(dp4759
g3
S'C(C(Cl)Cl)Cl'
p4760
sg24
g25
sg26
F0.03
sg27
F-1.99
sg9
(lp4761
g11
asg29
S'1,1,2-trichloroethane'
p4762
sg14
F0.6
sg31
g32
sg17
(lp4763
S'alkyl chloride'
p4764
asg37
F-0.5
ssS'mobley_296847'
p4765
(dp4766
g3
S'c1ccncc1'
p4767
sg24
g25
sg26
F0.02
sg27
F-4.69
sg9
(lp4768
g11
asg29
S'pyridine'
p4769
sg14
F0.6
sg31
g32
sg17
(lp4770
S'aromatic'
p4771
aS'heterocyclic'
p4772
asg37
F-3.45
ssS'mobley_4983965'
p4773
(dp4774
g3
S'CCSCC'
p4775
sg24
g25
sg26
F0.02
sg27
F-1.46
sg9
(lp4776
g11
asg29
S'ethylsulfanylethane'
p4777
sg14
F0.6
sg31
g32
sg17
(lp4778
S'thioether'
p4779
asg37
F0.21
ssS'mobley_6082662'
p4780
(dp4781
g3
S'c1cc(ccc1N)N(=O)=O'
p4782
sg408
g409
sg410
F0.05
sg9
(lp4783
g11
asg412
S'4-nitroaniline'
p4784
sg414
F0.1
sg415
F-9.82
sg17
(lp4785
S'primary amine'
p4786
aS'primary aromatic amine'
p4787
aS'nitro'
p4788
aS'aromatic'
p4789
asg421
F-10.38
sg422
g423
ssS'mobley_7859387'
p4790
(dp4791
g3
S'CCCCCCC=O'
p4792
sg24
g25
sg26
F0.03
sg27
F-2.67
sg9
(lp4793
g11
asg29
S'heptanal'
p4794
sg14
F0.6
sg31
g32
sg17
(lp4795
S'aldehyde'
p4796
asg37
F-2.63
ssS'mobley_7360181'
p4797
(dp4798
g3
S'COC(C(F)(F)F)(OC)OC'
p4799
sg408
g409
sg410
F0.05
sg9
(lp4800
g11
aS'Changed IUPAC name from trimethyl orthotrifluoroacetate to 1,1,1-trifluoro-2,2,2-trimethoxyethane for better handling/standardization.'
p4801
asg412
S'trimethyl orthotrifluoroacetate'
p4802
sg414
F0.2
sg415
F-0.8
sg17
(lp4803
S'halogen derivative'
p4804
aS'orthocarboxylic acid derivative'
p4805
aS'orthoester'
p4806
asg421
F-2.37
sg422
g423
ssS'mobley_2923700'
p4807
(dp4808
g3
S'CCc1ccc(cc1)O'
p4809
sg24
g25
sg26
F0.03
sg27
F-6.13
sg9
(lp4810
g11
asg29
S'4-ethylphenol'
p4811
sg14
F0.6
sg31
g32
sg17
(lp4812
S'phenol or hydroxyhetarene'
p4813
aS'aromatic'
p4814
asg37
F-5.08
ssS'mobley_2123854'
p4815
(dp4816
g3
S'c1cc(ccc1C#N)O'
p4817
sg24
g25
sg26
F0.03
sg27
F-10.17
sg9
(lp4818
g11
asg29
S'4-hydroxybenzonitrile'
p4819
sg14
F0.6
sg31
g32
sg17
(lp4820
S'phenol or hydroxyhetarene'
p4821
aS'carbonitrile'
p4822
aS'aromatic'
p4823
asg37
F-7.24
ssS'mobley_3589456'
p4824
(dp4825
g3
S'COC(CCl)(OC)OC'
p4826
sg24
g25
sg26
F0.04
sg27
F-4.59
sg9
(lp4827
g11
asg29
S'2-chloro-1,1,1-trimethoxy-ethane'
p4828
sg14
F0.6
sg31
g32
sg17
(lp4829
S'alkyl chloride'
p4830
aS'orthocarboxylic acid derivative'
p4831
aS'orthoester'
p4832
asg37
F-3.3
ssS'mobley_4395315'
p4833
(dp4834
g3
S'Cc1cc(ccc1Cl)O'
p4835
sg24
g25
sg26
F0.03
sg27
F-6.79
sg9
(lp4836
g11
asg29
S'4-chloro-3-methyl-phenol'
p4837
sg14
F0.6
sg31
g32
sg17
(lp4838
S'phenol or hydroxyhetarene'
p4839
aS'aryl chloride'
p4840
aS'aromatic'
p4841
asg37
F-4.9
ssS'mobley_3265457'
p4842
(dp4843
g3
S'COc1cc(c(c(c1O)OC)Cl)C=O'
p4844
sg244
g245
sg246
F0.025
sg9
(lp4845
g11
asg248
S'2-chlorosyringaldehyde'
p4846
sg250
g251
(g255
S'\xa4p=\n\xd7\xa3\xe8?'
p4847
tp4848
Rp4849
sg261
g251
(g255
S'\x1f\x85\xebQ\xb8\x1e\x1f\xc0'
p4850
tp4851
Rp4852
sg17
(lp4853
S'aldehyde'
p4854
aS'phenol or hydroxyhetarene'
p4855
aS'alkyl aryl ether'
p4856
aS'aryl chloride'
p4857
aS'aromatic'
p4858
asg269
F-9.23
sg270
g271
ssS'mobley_9028462'
p4859
(dp4860
g3
S'COC(=O)C(F)(F)F'
p4861
sg24
g25
sg26
F0.02
sg27
F-1.1
sg9
(lp4862
g11
asg29
S'methyl 2,2,2-trifluoroacetate'
p4863
sg14
F0.6
sg31
g32
sg17
(lp4864
S'halogen derivative'
p4865
aS'carboxylic acid ester'
p4866
asg37
F-1.39
ssS'mobley_1722522'
p4867
(dp4868
g3
S'CCCC(=O)OCC'
p4869
sg24
g25
sg26
F0.02
sg27
F-2.49
sg9
(lp4870
g11
asg29
S'ethyl butanoate'
p4871
sg14
F0.6
sg31
g32
sg17
(lp4872
S'carboxylic acid ester'
p4873
asg37
F-3.04
ssS'mobley_7735340'
p4874
(dp4875
g3
S'c1cnc[nH]1'
p4876
sg24
g25
sg26
F0.03
sg27
F-9.63
sg9
(lp4877
g11
asg29
S'imidazole'
p4878
sg14
F0.6
sg31
g32
sg17
(lp4879
S'aromatic'
p4880
aS'heterocyclic'
p4881
asg37
F-7.85
ssS'mobley_5948990'
p4882
(dp4883
g3
S'c1ccc(c(c1)N)[N+](=O)[O-]'
p4884
sg24
g25
sg26
F0.03
sg27
F-7.37
sg9
(lp4885
g11
asg29
S'2-nitroaniline'
p4886
sg14
F0.6
sg31
g32
sg17
(lp4887
S'primary amine'
p4888
aS'primary aromatic amine'
p4889
aS'nitro'
p4890
aS'aromatic'
p4891
asg37
F-7.96
ssS'mobley_3452749'
p4892
(dp4893
g3
S'Cc1cccc(c1C)C'
p4894
sg24
g25
sg26
F0.02
sg27
F-1.21
sg9
(lp4895
g11
asg29
S'1,2,3-trimethylbenzene'
p4896
sg14
F0.6
sg31
g32
sg17
(lp4897
S'aromatic'
p4898
asg37
F-0.65
ssS'mobley_9414831'
p4899
(dp4900
g3
S'Cc1cccc2c1cccc2'
p4901
sg24
g25
sg26
F0.02
sg27
F-2.44
sg9
(lp4902
g11
asg29
S'1-methylnaphthalene'
p4903
sg14
F0.6
sg31
g32
sg17
(lp4904
S'aromatic'
p4905
asg37
F-3.24
ssS'mobley_7599023'
p4906
(dp4907
g3
S'c1ccc(cc1)Br'
p4908
sg24
g25
sg26
F0.02
sg27
F-1.46
sg9
(lp4909
g11
asg29
S'bromobenzene'
p4910
sg14
F0.6
sg31
g32
sg17
(lp4911
S'aryl bromide'
p4912
aS'aromatic'
p4913
asg37
F-0.37
ssS'mobley_9557440'
p4914
(dp4915
g3
S'c1c(c(=O)[nH]c(=O)[nH]1)Cl'
p4916
sg408
g409
sg410
F0.06
sg9
(lp4917
g11
asg412
S'5-chlorouracil'
p4918
sg414
F0.78
sg415
F-17.74
sg17
(lp4919
S'aryl chloride'
p4920
aS'oxo(het)arene'
p4921
aS'aromatic'
p4922
aS'heterocyclic'
p4923
asg421
F-16.7
sg422
g423
ssS'mobley_6474572'
p4924
(dp4925
g3
S'C=CCl'
p4926
sg24
g25
sg26
F0.02
sg27
F-0.59
sg9
(lp4927
g11
asg29
S'chloroethylene'
p4928
sg14
F0.6
sg31
g32
sg17
(lp4929
S'halogen derivative'
p4930
aS'alkene'
p4931
asg37
F1.22
ssS'mobley_6988468'
p4932
(dp4933
g3
S'CCc1ccccn1'
p4934
sg24
g25
sg26
F0.02
sg27
F-4.33
sg9
(lp4935
g11
asg29
S'2-ethylpyridine'
p4936
sg14
F0.6
sg31
g32
sg17
(lp4937
S'aromatic'
p4938
aS'heterocyclic'
p4939
asg37
F-3.21
ssS'mobley_7150646'
p4940
(dp4941
g3
S'c1cc(ccc1Br)Br'
p4942
sg24
g25
sg26
F0.02
sg27
F-2.3
sg9
(lp4943
g11
asg29
S'1,4-dibromobenzene'
p4944
sg14
F0.6
sg31
g32
sg17
(lp4945
S'aryl bromide'
p4946
aS'aromatic'
p4947
asg37
F-0.01
ssS'mobley_3425174'
p4948
(dp4949
g3
S'C(F)Cl'
p4950
sg24
g25
sg26
F0.01
sg27
F-0.77
sg9
(lp4951
g11
asg29
S'chloro-fluoro-methane'
p4952
sg14
F0.6
sg31
g32
sg17
(lp4953
S'alkyl fluoride'
p4954
aS'alkyl chloride'
p4955
asg37
F-0.22
ssS'mobley_6688723'
p4956
(dp4957
g3
S'COc1c(cc(c(c1O)OC)Cl)Cl'
p4958
sg244
g245
sg246
F0.023
sg9
(lp4959
g11
asg248
S'3,5-dichloro-2,6-dimethoxy-phenol'
p4960
sg250
g251
(g255
S'R\xb8\x1e\x85\xebQ\xd8?'
p4961
tp4962
Rp4963
sg261
g251
(g255
S'\xf6(\\\x8f\xc2\xf5\x18\xc0'
p4964
tp4965
Rp4966
sg17
(lp4967
S'phenol or hydroxyhetarene'
p4968
aS'alkyl aryl ether'
p4969
aS'aryl chloride'
p4970
aS'aromatic'
p4971
asg269
F-6.13
sg270
g271
ssS'mobley_4252724'
p4972
(dp4973
g3
S'CC(C)Cc1ccccc1'
p4974
sg24
g25
sg26
F0.02
sg27
F0.16
sg9
(lp4975
g11
asg29
S'isobutylbenzene'
p4976
sg14
F0.6
sg31
g32
sg17
(lp4977
S'aromatic'
p4978
asg37
F0.0
ssS'mobley_8983100'
p4979
(dp4980
g3
S'CBr'
p4981
sg24
g25
sg26
F0.01
sg27
F-0.82
sg9
(lp4982
g11
asg29
S'bromomethane'
p4983
sg14
F0.6
sg31
g32
sg17
(lp4984
S'alkyl bromide'
p4985
asg37
F1.09
ssS'mobley_1952272'
p4986
(dp4987
g3
S'C[N+](=O)[O-]'
p4988
sg24
g25
sg26
F0.01
sg27
F-4.02
sg9
(lp4989
g11
asg29
S'nitromethane'
p4990
sg14
F0.6
sg31
g32
sg17
(lp4991
S'nitro'
p4992
asg37
F-2.03
ssS'mobley_9007496'
p4993
(dp4994
g3
S'CNC(=O)Oc1cccc2c1cccc2'
p4995
sg158
g159
sg160
F0.04
sg9
(lp4996
g11
aS'Changed IUPAC name from carbaryl to naphthalen-1-yl N-methylcarbamate for better handling/standardization.'
p4997
asg162
S'carbaryl'
p4998
sg164
F0.1
sg165
F-9.45
sg17
(lp4999
S'aromatic'
p5000
asg168
F-10.92
sg169
g170
ssS'mobley_8124669'
p5001
(dp5002
g3
S'CCc1cccc(c1N(COC)C(=O)CCl)CC'
p5003
sg158
g159
sg160
F0.05
sg9
(lp5004
g11
asg162
S'alachlor'
p5005
sg164
F0.29
sg165
F-8.21
sg17
(lp5006
S'cation'
p5007
aS'alkyl chloride'
p5008
aS'aromatic'
p5009
asg168
F-7.28
sg169
g170
ssS'mobley_1728386'
p5010
(dp5011
g3
S'c1ccc(cc1)C(=O)N'
p5012
sg5
g6
sg7
F0.1
sg8
F-11.0
sg9
(lp5013
g11
asg12
S'benzamide'
p5014
sg14
F0.6
sg15
g16
sg17
(lp5015
S'aromatic'
p5016
asg20
F-9.9
ssS'mobley_9100956'
p5017
(dp5018
g3
S'CC1CCCCC1'
p5019
sg24
g25
sg26
F0.02
sg27
F1.7
sg9
(lp5020
g11
asg29
S'methylcyclohexane'
p5021
sg14
F0.6
sg31
g32
sg17
(lp5022
S''
p5023
asg37
F1.82
ssS'mobley_7768165'
p5024
(dp5025
g3
S'C(CBr)Cl'
p5026
sg24
g25
sg26
F0.02
sg27
F-1.95
sg9
(lp5027
g11
asg29
S'1-bromo-2-chloro-ethane'
p5028
sg14
F0.6
sg31
g32
sg17
(lp5029
S'alkyl chloride'
p5030
aS'alkyl bromide'
p5031
asg37
F0.02
ssS'mobley_664966'
p5032
(dp5033
g3
S'C(I)I'
p5034
sg24
g25
sg26
F0.02
sg27
F-2.49
sg9
(lp5035
g11
asg29
S'diiodomethane'
p5036
sg14
F0.6
sg31
g32
sg17
(lp5037
S'alkyl iodide'
p5038
asg37
F-0.74
ssS'mobley_852937'
p5039
(dp5040
g3
S'c1cc(ccc1O)F'
p5041
sg24
g25
sg26
F0.03
sg27
F-6.19
sg9
(lp5042
g11
asg29
S'4-fluorophenol'
p5043
sg14
F0.6
sg31
g32
sg17
(lp5044
S'phenol or hydroxyhetarene'
p5045
aS'aryl fluoride'
p5046
aS'aromatic'
p5047
asg37
F-4.99
ssS'mobley_8789864'
p5048
(dp5049
g3
S'COC(CC#N)(OC)OC'
p5050
sg24
g25
sg26
F0.04
sg27
F-6.4
sg9
(lp5051
g11
asg29
S'3,3,3-trimethoxypropanenitrile'
p5052
sg14
F0.6
sg31
g32
sg17
(lp5053
S'carbonitrile'
p5054
aS'orthocarboxylic acid derivative'
p5055
aS'orthoester'
p5056
asg37
F-5.74
ssS'mobley_7364468'
p5057
(dp5058
g3
S'CC1=CC(=O)CC(C1)(C)C'
p5059
sg158
g159
sg160
F0.03
sg9
(lp5060
g11
aS'Changed IUPAC name from isophorone to 3,5,5-trimethylcyclohex-2-en-1-one for better handling/standardization.'
p5061
asg162
S'isophorone'
p5062
sg164
F1.37
sg165
F-5.18
sg17
(lp5063
S'ketone'
p5064
aS'alkene'
p5065
asg168
F-3.82
sg169
g170
ssS'mobley_3414356'
p5066
(dp5067
g3
S'CCCC(C)(C)O'
p5068
sg24
g25
sg26
F0.02
sg27
F-3.92
sg9
(lp5069
g11
asg29
S'2-methylpentan-2-ol'
p5070
sg14
F0.6
sg31
g32
sg17
(lp5071
S'tertiary alcohol'
p5072
asg37
F-2.79
ssS'mobley_778352'
p5073
(dp5074
g3
S'CC=C(C)C'
p5075
sg24
g25
sg26
F0.02
sg27
F1.31
sg9
(lp5076
g11
asg29
S'2-methylbut-2-ene'
p5077
sg14
F0.6
sg31
g32
sg17
(lp5078
S'alkene'
p5079
asg37
F2.28
ssS'mobley_7708038'
p5080
(dp5081
g3
S'CCCBr'
p5082
sg24
g25
sg26
F0.02
sg27
F-0.56
sg9
(lp5083
g11
asg29
S'1-bromopropane'
p5084
sg14
F0.6
sg31
g32
sg17
(lp5085
S'alkyl bromide'
p5086
asg37
F1.29
ssS'mobley_1424265'
p5087
(dp5088
g3
S'Cc1cccc(c1)C'
p5089
sg24
g25
sg26
F0.02
sg27
F-0.83
sg9
(lp5090
g11
asg29
S'm-xylene'
p5091
sg14
F0.6
sg31
g32
sg17
(lp5092
S'aromatic'
p5093
asg37
F-0.17
ssS'mobley_7610437'
p5094
(dp5095
g3
S'CC[C@H](C(C)C)O'
p5096
sg24
g25
sg26
F0.03
sg27
F-3.88
sg9
(lp5097
S'Renamed mobley_7610437 from 2-methylpentan-3-ol to (3R)-2-methylpentan-3-ol (the name from the 3D structure) since the former did not completely specify stereochemistry.\n'
p5098
asg29
S'2-methylpentan-3-ol'
p5099
sg14
F0.6
sg31
g32
sg17
(lp5100
S'secondary alcohol'
p5101
asg37
F-2.19
ssS'mobley_4609460'
p5102
(dp5103
g3
S'CCOC(=O)c1ccc(cc1)O'
p5104
sg408
g409
sg410
F0.06
sg9
(lp5105
g11
asg412
S'ethyl paraben'
p5106
sg414
F0.3
sg415
F-9.2
sg17
(lp5107
S'phenol or hydroxyhetarene'
p5108
aS'carboxylic acid ester'
p5109
aS'aromatic'
p5110
asg421
F-9.57
sg422
g423
ssS'mobley_8713762'
p5111
(dp5112
g3
S'CCCN(CCC)C(=O)SCCC'
p5113
sg158
g159
sg160
F0.04
sg9
(lp5114
g11
aS'Changed IUPAC name from vernolate to N,N-dipropyl(propylsulfanyl)formamide for better handling/standardization.'
p5115
asg162
S'vernolate'
p5116
sg164
F1.36
sg165
F-4.13
sg17
(lp5117
S'cation'
p5118
asg168
F-4.17
sg169
g170
ssS'mobley_6358463'
p5119
(dp5120
g3
S'c1ccc(c(c1)C(F)(F)F)C(F)(F)F'
p5121
sg24
g25
sg26
F0.03
sg27
F1.07
sg9
(lp5122
g11
asg29
S'1,2-bis(trifluoromethyl)benzene'
p5123
sg14
F0.6
sg31
g32
sg17
(lp5124
S'halogen derivative'
p5125
aS'aromatic'
p5126
asg37
F-1.58
ssS'mobley_2178600'
p5127
(dp5128
g3
S'CCCCCCl'
p5129
sg5
g6
sg7
F0.1
sg8
F-0.1
sg9
(lp5130
g11
asg12
S'1-chloro-pentane'
p5131
sg14
F0.6
sg15
g16
sg17
(lp5132
S'alkyl chloride'
p5133
asg20
F1.1
ssS'mobley_4936555'
p5134
(dp5135
g3
S'Cc1cccc(c1C)Nc2ccccc2C(=O)O'
p5136
sg244
g245
sg246
F0.025
sg9
(lp5137
g11
asg248
S'2-(2,3-dimethylphenyl)aminobenzoic acid'
p5138
sg250
g251
(g255
S'\x9a\x99\x99\x99\x99\x99\xb9?'
p5139
tp5140
Rp5141
sg261
g251
(g255
S'\x1f\x85\xebQ\xb8\x1e\x1b\xc0'
p5142
tp5143
Rp5144
sg17
(lp5145
S'secondary amine'
p5146
aS'secondary aromatic amine (diarylamine)'
p5147
aS'carboxylic acid'
p5148
aS'aromatic'
p5149
asg269
F-7.69
sg270
g271
ssS'mobley_1760914'
p5150
(dp5151
g3
S'Cc1ccccc1Cl'
p5152
sg24
g25
sg26
F0.02
sg27
F-1.14
sg9
(lp5153
g11
asg29
S'1-chloro-2-methyl-benzene'
p5154
sg14
F0.6
sg31
g32
sg17
(lp5155
S'aryl chloride'
p5156
aS'aromatic'
p5157
asg37
F-0.51
ssS'mobley_9883303'
p5158
(dp5159
g3
S'CCC[C@H](C)CC'
p5160
sg24
g25
sg26
F0.02
sg27
F2.71
sg9
(lp5161
S'Renamed mobley_9883303 from 3-methylhexane to (3R)-3-methylhexane (the name from the 3D structure) since the former did not completely specify stereochemistry.\n'
p5162
asg29
S'3-methylhexane'
p5163
sg14
F0.6
sg31
g32
sg17
(lp5164
S''
p5165
asg37
F2.76
ssS'mobley_9029594'
p5166
(dp5167
g3
S'CF'
p5168
sg24
g25
sg26
F0.01
sg27
F-0.22
sg9
(lp5169
g11
asg29
S'fluoromethane'
p5170
sg14
F0.6
sg31
g32
sg17
(lp5171
S'alkyl fluoride'
p5172
asg37
F0.79
ssS'mobley_1502181'
p5173
(dp5174
g3
S'CCCCCCCC(=O)C'
p5175
sg24
g25
sg26
F0.03
sg27
F-2.49
sg9
(lp5176
g11
asg29
S'nonan-2-one'
p5177
sg14
F0.6
sg31
g32
sg17
(lp5178
S'ketone'
p5179
asg37
F-2.51
ssS'mobley_9201263'
p5180
(dp5181
g3
S'COS(=O)(=O)C'
p5182
sg24
g25
sg26
F0.03
sg27
F-4.87
sg9
(lp5183
g11
asg29
S'methyl methanesulfonate'
p5184
sg14
F0.6
sg31
g32
sg17
(lp5185
S'sulfonic acid ester'
p5186
asg37
F-8.29
ssS'mobley_2613240'
p5187
(dp5188
g3
S'COc1ccccc1OC'
p5189
sg244
g245
sg246
F0.021
sg9
(lp5190
g11
asg248
S'1,2-dimethoxybenzene'
p5191
sg250
g251
(g255
S'\x9a\x99\x99\x99\x99\x99\xb9?'
p5192
tp5193
Rp5194
sg261
g251
(g255
S'R\xb8\x1e\x85\xebQ\x15\xc0'
p5195
tp5196
Rp5197
sg17
(lp5198
S'alkyl aryl ether'
p5199
aS'aromatic'
p5200
asg269
F-3.52
sg270
g271
ssS'mobley_7769613'
p5201
(dp5202
g3
S'CC(C)(C)Br'
p5203
sg24
g25
sg26
F0.02
sg27
F0.84
sg9
(lp5204
g11
asg29
S'2-bromo-2-methyl-propane'
p5205
sg14
F0.6
sg31
g32
sg17
(lp5206
S'alkyl bromide'
p5207
asg37
F0.89
ssS'mobley_4434915'
p5208
(dp5209
g3
S'CCl'
p5210
sg24
g25
sg26
F0.01
sg27
F-0.55
sg9
(lp5211
g11
asg29
S'chloromethane'
p5212
sg14
F0.6
sg31
g32
sg17
(lp5213
S'alkyl chloride'
p5214
asg37
F0.81
ssS'mobley_2410897'
p5215
(dp5216
g3
S'CCN'
p5217
sg24
g25
sg26
F0.02
sg27
F-4.5
sg9
(lp5218
g11
asg29
S'ethanamine'
p5219
sg14
F0.6
sg31
g32
sg17
(lp5220
S'primary amine'
p5221
aS'primary aliphatic amine (alkylamine)'
p5222
asg37
F-3.14
ssS'mobley_5003962'
p5223
(dp5224
g3
S'c1ccc2c(c1)C(=O)c3ccc(cc3C2=O)N'
p5225
sg244
g245
sg246
F0.026
sg9
(lp5226
g11
asg248
S'2-amino-9,10-anthraquinone'
p5227
sg250
g251
(g255
S'\x8f\xc2\xf5(\\\x8f\xd2?'
p5228
tp5229
Rp5230
sg261
g251
(g255
S"\x8f\xc2\xf5(\\\x0f'\xc0"
p5231
tp5232
Rp5233
sg17
(lp5234
S'ketone'
p5235
aS'primary amine'
p5236
aS'primary aromatic amine'
p5237
aS'aromatic'
p5238
asg269
F-13.71
sg270
g271
ssS'mobley_1929982'
p5239
(dp5240
g3
S'S'
p5241
sg24
g25
sg26
F0.01
sg27
F-0.7
sg9
(lp5242
g11
asg29
S'hydrogen sulfide'
p5243
sg14
F0.6
sg31
g32
sg17
(lp5244
S''
p5245
asg37
F-1.17
ssS'mobley_5935995'
p5246
(dp5247
g3
S'CCC(C)(C)C'
p5248
sg24
g25
sg26
F0.02
sg27
F2.51
sg9
(lp5249
g11
asg29
S'2,2-dimethylbutane'
p5250
sg14
F0.6
sg31
g32
sg17
(lp5251
S''
p5252
asg37
F2.53
ssS'mobley_8048190'
p5253
(dp5254
g3
S'CC(=O)N'
p5255
sg24
g25
sg26
F0.03
sg27
F-9.71
sg9
(lp5256
g11
asg29
S'acetamide'
p5257
sg14
F0.6
sg31
g32
sg17
(lp5258
S''
p5259
asg37
F-8.62
ssS'mobley_5917842'
p5260
(dp5261
g3
S'Cc1ccc(c(c1)OC)O'
p5262
sg244
g245
sg246
F0.021
sg9
(lp5263
g11
asg248
S'4-methyl-2-methoxyphenol'
p5264
sg250
g251
(g255
S'\x9a\x99\x99\x99\x99\x99\xb9?'
p5265
tp5266
Rp5267
sg261
g251
(g255
S'333333\x17\xc0'
p5268
tp5269
Rp5270
sg17
(lp5271
S'phenol or hydroxyhetarene'
p5272
aS'alkyl aryl ether'
p5273
aS'aromatic'
p5274
asg269
F-4.46
sg270
g271
ssS'mobley_7106722'
p5275
(dp5276
g3
S'CCCC(C)C'
p5277
sg24
g25
sg26
F0.02
sg27
F2.51
sg9
(lp5278
g11
asg29
S'isohexane'
p5279
sg14
F0.6
sg31
g32
sg17
(lp5280
S''
p5281
asg37
F2.78
ssS'mobley_8883511'
p5282
(dp5283
g3
S'Cc1ccccc1C=O'
p5284
sg244
g245
sg246
F0.019
sg9
(lp5285
g11
asg248
S'2-methylbenzaldehyde'
p5286
sg250
g251
(g255
S'\x9a\x99\x99\x99\x99\x99\xb9?'
p5287
tp5288
Rp5289
sg261
g251
(g255
S'q=\n\xd7\xa3p\x0f\xc0'
p5290
tp5291
Rp5292
sg17
(lp5293
S'aldehyde'
p5294
aS'aromatic'
p5295
asg269
F-4.64
sg270
g271
ssS'mobley_7732703'
p5296
(dp5297
g3
S'C(F)(F)(F)Br'
p5298
sg24
g25
sg26
F0.02
sg27
F1.79
sg9
(lp5299
g11
asg29
S'bromo-trifluoro-methane'
p5300
sg14
F0.6
sg31
g32
sg17
(lp5301
S'halogen derivative'
p5302
asg37
F2.03
ssS'mobley_9185328'
p5303
(dp5304
g3
S'CCCN'
p5305
sg24
g25
sg26
F0.02
sg27
F-4.39
sg9
(lp5306
g11
asg29
S'propan-1-amine'
p5307
sg14
F0.6
sg31
g32
sg17
(lp5308
S'primary amine'
p5309
aS'primary aliphatic amine (alkylamine)'
p5310
asg37
F-3.05
ssS'mobley_3105103'
p5311
(dp5312
g3
S'Cc1c(c(=O)n(c(=O)[nH]1)C(C)(C)C)Cl'
p5313
sg158
g159
sg160
F0.04
sg9
(lp5314
g11
asg162
S'terbacil'
p5315
sg164
F1.93
sg165
F-11.14
sg17
(lp5316
S'aryl chloride'
p5317
aS'oxo(het)arene'
p5318
aS'aromatic'
p5319
aS'heterocyclic'
p5320
asg168
F-13.33
sg169
g170
ssS'mobley_8337977'
p5321
(dp5322
g3
S'CC(C)CC(=O)C'
p5323
sg24
g25
sg26
F0.02
sg27
F-3.05
sg9
(lp5324
g11
asg29
S'4-methylpentan-2-one'
p5325
sg14
F0.6
sg31
g32
sg17
(lp5326
S'ketone'
p5327
asg37
F-2.96
ssS'mobley_5347550'
p5328
(dp5329
g3
S'COC(C(Cl)Cl)(F)F'
p5330
sg24
g25
sg26
F0.02
sg27
F-1.12
sg9
(lp5331
g11
asg29
S'2,2-dichloro-1,1-difluoro-1-methoxy-ethane'
p5332
sg14
F0.6
sg31
g32
sg17
(lp5333
S'alkyl chloride'
p5334
aS'orthocarboxylic acid derivative'
p5335
asg37
F-0.71
ssS'mobley_1733799'
p5336
(dp5337
g3
S'c1cc(ccc1O)Br'
p5338
sg24
S'10.1039/J29710000533 and 10.1007/BF00646936'
p5339
sg26
F0.02
sg27
F-5.85
sg9
(lp5340
g11
aS'Experimental value updated 10/22/13 from J. Peter Guthrie (University of Western Ontario) taken as a weighted average of the values -7.13 from a Cabani review, and -5.24 from experimental data from Parsons, Rochester, and Wood (see reference). The weighting gives preference to the latter since it gives source data.\n'
p5341
asg29
S'4-bromophenol'
p5342
sg14
F0.83
sg31
g32
sg17
(lp5343
S'phenol or hydroxyhetarene'
p5344
aS'aryl bromide'
p5345
aS'aromatic'
p5346
asg37
F-5.47
ssS'mobley_5494918'
p5347
(dp5348
g3
S'C(=C(F)F)(C(F)(F)F)F'
p5349
sg27
F2.93
sg26
F0.02
sS'notes'
p5350
(lp5351
S'Updated correcting an error in the Rizzo/Mobley sets that had arisen from confusing the abbreviation HFP with hexafluoropropan-2-ol versus hexafluoropropene. Reference: Wilhelm, E., Battino, R., Wilcock, R. J., Chem. Rev. 1977, 77, 223-262.\n'
p5352
ag11
asg29
S'1,1,2,3,3,3-hexafluoroprop-1-ene'
p5353
sg14
F0.6
sg31
g32
sg17
(lp5354
S'halogen derivative'
p5355
asg37
F2.29
sg24
S'10.1021/cr60306a003'
p5356
ssS'mobley_7010316'
p5357
(dp5358
g3
S'C1CCC(CC1)O'
p5359
sg24
g25
sg26
F0.02
sg27
F-5.46
sg9
(lp5360
g11
asg29
S'cyclohexanol'
p5361
sg14
F0.6
sg31
g32
sg17
(lp5362
S'secondary alcohol'
p5363
asg37
F-4.26
ssS'mobley_8320545'
p5364
(dp5365
g3
S'CC[N+](=O)[O-]'
p5366
sg24
g25
sg26
F0.02
sg27
F-3.71
sg9
(lp5367
g11
asg29
S'1-nitroethane'
p5368
sg14
F0.6
sg31
g32
sg17
(lp5369
S'nitro'
p5370
asg37
F-1.73
ssS'mobley_3775790'
p5371
(dp5372
g3
S'Cn1cccc1'
p5373
sg24
g25
sg26
F0.02
sg27
F-2.89
sg9
(lp5374
g11
asg29
S'1-methylpyrrole'
p5375
sg14
F0.6
sg31
g32
sg17
(lp5376
S'aromatic'
p5377
aS'heterocyclic'
p5378
asg37
F-2.59
ssS'mobley_7157427'
p5379
(dp5380
g3
S'CCCCCCCCl'
p5381
sg24
g25
sg26
F0.03
sg27
F0.29
sg9
(lp5382
g11
asg29
S'1-chloroheptane'
p5383
sg14
F0.6
sg31
g32
sg17
(lp5384
S'alkyl chloride'
p5385
asg37
F1.53
ssS'mobley_3746675'
p5386
(dp5387
g3
S'CC(=C)c1ccccc1'
p5388
sg24
g25
sg26
F0.02
sg27
F-1.24
sg9
(lp5389
g11
asg29
S'isopropenylbenzene'
p5390
sg14
F0.6
sg31
g32
sg17
(lp5391
S'alkene'
p5392
aS'aromatic'
p5393
asg37
F-1.26
ssS'mobley_3715043'
p5394
(dp5395
g3
S'Cc1ccc(c2c1cccc2)C'
p5396
sg24
g25
sg26
F0.03
sg27
F-2.82
sg9
(lp5397
g11
asg29
S'1,4-dimethylnaphthalene'
p5398
sg14
F0.6
sg31
g32
sg17
(lp5399
S'aromatic'
p5400
asg37
F-3.29
ssS'mobley_5263791'
p5401
(dp5402
g3
S'CCc1cccc2c1cccc2'
p5403
sg24
g25
sg26
F0.03
sg27
F-2.4
sg9
(lp5404
g11
asg29
S'1-ethylnaphthalene'
p5405
sg14
F0.6
sg31
g32
sg17
(lp5406
S'aromatic'
p5407
asg37
F-3.0
ss.