(dp0
S'isopropyl acetate'
p1
S'mobley_6981465'
p2
sS'1,1,1-trifluoropropan-2-ol'
p3
S'mobley_628086'
p4
sS'2-bromopropane'
p5
S'mobley_9434451'
p6
sS'bromobenzene'
p7
S'mobley_7599023'
p8
sS'1-iodobutane'
p9
S'mobley_8772587'
p10
sS'decan-1-ol'
p11
S'mobley_3151666'
p12
sS'methyl 2-cyanoacetate'
p13
S'mobley_9114381'
p14
sS'1-ethylnaphthalene'
p15
S'mobley_5263791'
p16
sS'ammonia'
p17
S'mobley_5631798'
p18
sS'2-bromo-2-methyl-propane'
p19
S'mobley_7769613'
p20
sS'dialifor'
p21
S'mobley_2518989'
p22
sS'methylsulfonylmethane'
p23
S'mobley_1708457'
p24
sS'propanethiol'
p25
S'mobley_186894'
p26
sS'2,5-dimethyltetrahydrofuran'
p27
S'mobley_8785107'
p28
sS'hexa-1,5-diene'
p29
S'mobley_5690766'
p30
sS'1-methylpyrrole'
p31
S'mobley_3775790'
p32
sS'3,3-dimethylbutan-2-one'
p33
S'mobley_5346580'
p34
sS'methylsulfinylmethane'
p35
S'mobley_8578590'
p36
sS'anthracene'
p37
S'mobley_637522'
p38
sS'benzonitrile'
p39
S'mobley_2451097'
p40
sS'hexanamide'
p41
S'mobley_7203421'
p42
sS'1,4-diamino-9,10-anthracenedione'
p43
S'mobley_242480'
p44
sS'1,1,2,3,3,3-hexafluoroprop-1-ene'
p45
S'mobley_5494918'
p46
sS'propane'
p47
S'mobley_2068538'
p48
sS'(2Z)-3,7-dimethylocta-2,6-dien-1-ol'
p49
S'mobley_9897248'
p50
sS'2-methylpyrazine'
p51
S'mobley_8966374'
p52
sS'3,3,3-trimethoxypropanenitrile'
p53
S'mobley_8789864'
p54
sS'octan-1-amine'
p55
S'mobley_6248915'
p56
sS'(2R,3R,4R,5R)-Hexan-1,2,3,4,5,6-hexol'
p57
S'mobley_4587267'
p58
sS'hept-2-ene'
p59
S'mobley_8467917'
p60
sS'1-nitrobutane'
p61
S'mobley_6006813'
p62
sS'hexylbenzene'
p63
S'mobley_588781'
p64
sS'3-ethylpyridine'
p65
S'mobley_4884177'
p66
sS'2-methoxyethanamine'
p67
S'mobley_6917738'
p68
sS'nitroxyacetone'
p69
S'mobley_4964807'
p70
sS'terbacil'
p71
S'mobley_3105103'
p72
sS'tert-butylbenzene'
p73
S'mobley_7893124'
p74
sS'ethyleneglycol mononitrate'
p75
S'mobley_6727159'
p76
sS'pentan-1-ol'
p77
S'mobley_5759258'
p78
sS'propyl butanoate'
p79
S'mobley_3690931'
p80
sS'methane'
p81
S'mobley_9055303'
p82
sS'propanenitrile'
p83
S'mobley_4305650'
p84
sS'prop-1-yne'
p85
S'mobley_8260524'
p86
sS'N-methyl-N-(2,2,2-trifluoroethyl)aniline'
p87
S'mobley_3266352'
p88
sS'phenyl formate'
p89
S'mobley_1046331'
p90
sS'2,2-dimethylpentane'
p91
S'mobley_252413'
p92
sS'ethylene glycol'
p93
S'mobley_4639255'
p94
sS'propylcyclopentane'
p95
S'mobley_6416775'
p96
sS'1-chloroheptane'
p97
S'mobley_7157427'
p98
sS'ethyldisulfanylethane'
p99
S'mobley_590519'
p100
sS'1,2,4-trichlorobenzene'
p101
S'mobley_7814642'
p102
sS'caffeine'
p103
S'mobley_7378987'
p104
sS'pentan-1-amine'
p105
S'mobley_7142697'
p106
sS'2,3-dimethylpyridine'
p107
S'mobley_8746821'
p108
sS'4-(1-Methylethenyl)-1-cyclohexene-1-carboxaldehyde'
p109
S'mobley_5006685'
p110
sS'carbon tetrachloride'
p111
S'mobley_6359135'
p112
sS'2-methoxyphenol'
p113
S'mobley_3515580'
p114
sS'1,3-dichloropropane'
p115
S'mobley_9624458'
p116
sS'1,3-dimethylnaphthalene'
p117
S'mobley_5665561'
p118
sS'trimethoxymethane'
p119
S'mobley_2279874'
p120
sS'isobutane'
p121
S'mobley_5157661'
p122
sS'N,N-dimethylaniline'
p123
S'mobley_5326154'
p124
sS'1,1,2-trichloroethane'
p125
S'mobley_1328465'
p126
sS'naphthalen-1-ol'
p127
S'mobley_7039935'
p128
sS'ethanol'
p129
S'mobley_2310185'
p130
sS'2,3-dichlorodibenzo-p-dioxin'
p131
S'mobley_1469079'
p132
sS'1-bromo-2-chloro-ethane'
p133
S'mobley_7768165'
p134
sS'2-chloropyridine'
p135
S'mobley_4291494'
p136
sS'isopropenylbenzene'
p137
S'mobley_3746675'
p138
sS'methyl methanesulfonate'
p139
S'mobley_9201263'
p140
sS'simazine'
p141
S'mobley_8207196'
p142
sS'methyl formate'
p143
S'mobley_1717215'
p144
sS'ethane'
p145
S'mobley_2008055'
p146
sS'2-methylpropan-2-ol'
p147
S'mobley_1650157'
p148
sS'2,3-dimethylbutane'
p149
S'mobley_4561957'
p150
sS'quinoline'
p151
S'mobley_5857'
p152
sS'pentylbenzene'
p153
S'mobley_3525176'
p154
sS'1,1,2,2-tetrachloroethane'
p155
S'mobley_6190089'
p156
sS'4-nitroaniline'
p157
S'mobley_6082662'
p158
sS'2-nitroaniline'
p159
S'mobley_5948990'
p160
sS'4-hydroxybenzonitrile'
p161
S'mobley_2123854'
p162
sS'piperidine'
p163
S'mobley_6309289'
p164
sS'butane-1-thiol'
p165
S'mobley_1563176'
p166
sS'1,1,1-trichloroethane'
p167
S'mobley_3761215'
p168
sS'1,4-dimethylpiperazine'
p169
S'mobley_4059279'
p170
sS'nitromethane'
p171
S'mobley_1952272'
p172
sS'carbophenothion'
p173
S'mobley_1849020'
p174
sS'phorate'
p175
S'mobley_9460824'
p176
sS'phenanthrene'
p177
S'mobley_7017274'
p178
sS'N,N-dimethylformamide'
p179
S'mobley_8011706'
p180
sS'2-ethoxyethanol'
p181
S'mobley_9626434'
p182
sS'prop-1-ene'
p183
S'mobley_303222'
p184
sS'hex-1-ene'
p185
S'mobley_5310099'
p186
sS'3,4-dimethylphenol'
p187
S'mobley_6743808'
p188
sS'dimethyl sulfate'
p189
S'mobley_5760563'
p190
sS'1,2-dibromoethane'
p191
S'mobley_1792062'
p192
sS'hexane'
p193
S'mobley_6812653'
p194
sS'1,2,3,4-tetrachlorobenzene'
p195
S'mobley_4219614'
p196
sS'2-chloroaniline'
p197
S'mobley_3169935'
p198
sS'(1S,5R)-2-methyl-5-(1-methylethenyl)-2-cyclohexen-1-ol'
p199
S'mobley_9653690'
p200
sS'1,2-dinitroxypropane'
p201
S'mobley_3210206'
p202
sS'3-phenylpropan-1-ol'
p203
S'mobley_7463799'
p204
sS'cycloheptanol'
p205
S'mobley_1244778'
p206
sS'2,3-dimethylpentane'
p207
S'mobley_8668219'
p208
sS'p-cresol'
p209
S'mobley_2925352'
p210
sS'ethyl benzoate'
p211
S'mobley_397645'
p212
sS'aniline'
p213
S'mobley_4883284'
p214
sS'dinoseb'
p215
S'mobley_3274817'
p216
sS'1,3,5-trichlorobenzene'
p217
S'mobley_2681549'
p218
sS'111-trifluoropropan-2-ol'
p219
S'mobley_9979854'
p220
sS'2,6-dimethylnaphthalene'
p221
S'mobley_5110043'
p222
sS'1,2,3,4,7-pentachlorodibenzo-p-dioxin'
p223
S'mobley_3976574'
p224
sS'methyl 2-chloroacetate'
p225
S'mobley_6929123'
p226
sS'methyl 4-methoxybenzoate'
p227
S'mobley_7393673'
p228
sS'hexan-2-one'
p229
S'mobley_2487143'
p230
sS'hexan-1-amine'
p231
S'mobley_6060301'
p232
sS'glycerol triacetate'
p233
S'mobley_6198745'
p234
sS'1-bromo-2-methyl-propane'
p235
S'mobley_627267'
p236
sS'2-(2,3-dimethylphenyl)aminobenzoic acid'
p237
S'mobley_4936555'
p238
sS'pentanal'
p239
S'mobley_8492526'
p240
sS'o-cresol'
p241
S'mobley_4035953'
p242
sS'3-methylpentane'
p243
S'mobley_2213823'
p244
sS'butylbenzene'
p245
S'mobley_8809190'
p246
sS'ethyl butanoate'
p247
S'mobley_1722522'
p248
sS'2-chlorophenol'
p249
S'mobley_1178614'
p250
sS'endosulfan alpha'
p251
S'mobley_9571888'
p252
sS'methanol'
p253
S'mobley_1636752'
p254
sS'1,2,3-trimethylbenzene'
p255
S'mobley_3452749'
p256
sS'hexanal'
p257
S'mobley_1827204'
p258
sS'1-iodoheptane'
p259
S'mobley_4759887'
p260
sS'1,2,4,5-tetrachloro-3-(3,4-dichlorophenyl)benzene'
p261
S'mobley_8311303'
p262
sS'3-hydroxybenzaldehyde'
p263
S'mobley_7688753'
p264
sS'2,6-dimethylaniline'
p265
S'mobley_5571660'
p266
sS'propanal'
p267
S'mobley_6632459'
p268
sS'pyridine-3-carbaldehyde'
p269
S'mobley_6232400'
p270
sS'nitrobenzene'
p271
S'mobley_4193752'
p272
sS'(1R,2S,5R)-2-isopropyl-5-methylcyclohexanol'
p273
S'mobley_8337722'
p274
sS'pyridine'
p275
S'mobley_296847'
p276
sS'methyl cyclohexanecarboxylate'
p277
S'mobley_6978427'
p278
sS'octafluorocyclobutane'
p279
S'mobley_1723043'
p280
sS'chloro-fluoro-methane'
p281
S'mobley_3425174'
p282
sS'4-propylguaiacol'
p283
S'mobley_3359593'
p284
sS'cyclohexanol'
p285
S'mobley_7010316'
p286
sS'isopropyl formate'
p287
S'mobley_6854178'
p288
sS'4-chloro-3-methyl-phenol'
p289
S'mobley_4395315'
p290
sS'1-(p-tolyl)ethanone'
p291
S'mobley_349850'
p292
sS'2-amino-9,10-anthraquinone'
p293
S'mobley_5003962'
p294
sS'4-tert-butylphenol'
p295
S'mobley_5467162'
p296
sS'1,2,3,4-tetrachloro-5-(2,3,4,6-tetrachlorophenyl)benzene'
p297
S'mobley_8208692'
p298
sS'1,1,2,2-tetrachloroethylene'
p299
S'mobley_5952846'
p300
sS'benzamide'
p301
S'mobley_1728386'
p302
sS'1-isopropyl-4-methyl-benzene'
p303
S'mobley_1449384'
p304
sS'methyl paraben'
p305
S'mobley_2295058'
p306
sS'trimethoxymethylbenzene'
p307
S'mobley_3325209'
p308
sS'dimethoxymethane'
p309
S'mobley_3083321'
p310
sS'1,2,3-trichlorobenzene'
p311
S'mobley_3980099'
p312
sS'1-acetoxyethyl acetate'
p313
S'mobley_4463913'
p314
sS'2-isopropylsulfanylpropane'
p315
S'mobley_9974966'
p316
sS'butan-2-ol'
p317
S'mobley_1903702'
p318
sS'Amitriptyline'
p319
S'mobley_5282042'
p320
sS'diethoxymethoxybenzene'
p321
S'mobley_4934872'
p322
sS'3-methylbutan-2-one'
p323
S'mobley_8739734'
p324
sS'endrin'
p325
S'mobley_8117218'
p326
sS'isobutylbenzene'
p327
S'mobley_4252724'
p328
sS'1-cyclohexylethanone'
p329
S'mobley_2043882'
p330
sS'bromoethane'
p331
S'mobley_994483'
p332
sS'chlorpyrifos'
p333
S'mobley_7326706'
p334
sS'dinitramine'
p335
S'mobley_5076071'
p336
sS'N,N-4-trimethylbenzamide'
p337
S'mobley_2659552'
p338
sS'1,1-diphenylethene'
p339
S'mobley_4479135'
p340
sS'4-methylaniline'
p341
S'mobley_5518547'
p342
sS'1,2-dimethoxybenzene'
p343
S'mobley_2613240'
p344
sS'1-nitropropane'
p345
S'mobley_9671033'
p346
sS'bromomethane'
p347
S'mobley_8983100'
p348
sS'propionamide'
p349
S'mobley_8427539'
p350
sS'hexan-1-ol'
p351
S'mobley_3546460'
p352
sS'2-acetoxyethyl acetate'
p353
S'mobley_352111'
p354
sS'tetrahydropyran'
p355
S'mobley_3395921'
p356
sS'1,2,3,4,6,7,8,9-octachlorodibenzo-p-dioxin'
p357
S'mobley_9821936'
p358
sS'2-chloro-2-methyl-propane'
p359
S'mobley_7047032'
p360
sS'pebulate'
p361
S'mobley_1352110'
p362
sS'hexachlorobenzene'
p363
S'mobley_4845722'
p364
sS'oct-2-enal'
p365
S'mobley_6081058'
p366
sS'2-methylpropan-1-ol'
p367
S'mobley_2245668'
p368
sS'acetic acid'
p369
S'mobley_3034976'
p370
sS'acetone'
p371
S'mobley_3867265'
p372
sS'bis-2-chloroethyl ether'
p373
S'mobley_4603202'
p374
sS'anisole'
p375
S'mobley_7295828'
p376
sS'1-nitropentane'
p377
S'mobley_1235151'
p378
sS'terbutryn'
p379
S'mobley_6338073'
p380
sS'pentan-3-one'
p381
S'mobley_1875719'
p382
sS'2-ethylpyridine'
p383
S'mobley_6988468'
p384
sS'1,2-dichlorobenzene'
p385
S'mobley_2489709'
p386
sS'1,2,2-trifluoroethoxybenzene'
p387
S'mobley_6843802'
p388
sS'1-bromo-4-methyl-benzene'
p389
S'mobley_4494568'
p390
sS'methyl propanoate'
p391
S'mobley_1075836'
p392
sS'propyl formate'
p393
S'mobley_8754702'
p394
sS'propyl acetate'
p395
S'mobley_7573149'
p396
sS'2-methylpentan-2-ol'
p397
S'mobley_3414356'
p398
sS'd-xylose'
p399
S'mobley_1896013'
p400
sS'prop-2-en-1-ol'
p401
S'mobley_8118832'
p402
sS'isobutyl 2-methylpropanoate'
p403
S'mobley_6456034'
p404
sS'acenaphthene'
p405
S'mobley_2261979'
p406
sS'2-butyl nitrate'
p407
S'mobley_7869158'
p408
sS'azinphosmethyl'
p409
S'mobley_1770205'
p410
sS'methyl 4-nitrobenzoate'
p411
S'mobley_1328936'
p412
sS'parathion'
p413
S'mobley_9281946'
p414
sS'thiophene'
p415
S'mobley_2972906'
p416
sS'ethyl acetate'
p417
S'mobley_6973347'
p418
sS'methyl 2,2-dimethylpropanoate'
p419
S'mobley_1781152'
p420
sS'2,2,4-trimethylpentane'
p421
S'mobley_1139153'
p422
sS'methylsulfanylbenzene'
p423
S'mobley_1189457'
p424
sS'4-chlorophenol'
p425
S'mobley_7066554'
p426
sS'3-methyl-1H-indole'
p427
S'mobley_1821184'
p428
sS'ethoxyethane'
p429
S'mobley_1144156'
p430
sS'acetonitrile'
p431
S'mobley_7532833'
p432
sS'octanal'
p433
S'mobley_4694328'
p434
sS'3-methoxyaniline'
p435
S'mobley_755351'
p436
sS'1-methylnaphthalene'
p437
S'mobley_9414831'
p438
sS'butanenitrile'
p439
S'mobley_8221999'
p440
sS'fenuron'
p441
S'mobley_6861308'
p442
sS'1,2,3,4-tetrachloro-5-phenyl-benzene'
p443
S'mobley_9510785'
p444
sS'benzyl bromide'
p445
S'mobley_1905088'
p446
sS'pent-1-ene'
p447
S'mobley_4043951'
p448
sS'ethyl hexanoate'
p449
S'mobley_1592519'
p450
sS'ethion'
p451
S'mobley_7754849'
p452
sS'2-chloro-1,1,1-trimethoxy-ethane'
p453
S'mobley_3589456'
p454
sS'indane'
p455
S'mobley_5094777'
p456
sS'1,3-bis-(nitrooxy)butane'
p457
S'mobley_9741965'
p458
sS'oct-1-yne'
p459
S'mobley_8522124'
p460
sS'N-ethylethanamine'
p461
S'mobley_8426916'
p462
sS'N-methylacetamide'
p463
S'mobley_1963873'
p464
sS'vernolate'
p465
S'mobley_8713762'
p466
sS'2-methylthiophene'
p467
S'mobley_9705941'
p468
sS'1,1,2-trichloro-1,2,2-trifluoro-ethane'
p469
S'mobley_1838110'
p470
sS'diiodomethane'
p471
S'mobley_664966'
p472
sS'butan-1-amine'
p473
S'mobley_9733743'
p474
sS'N-methylaniline'
p475
S'mobley_7774695'
p476
sS'3,5-dimethylpyridine'
p477
S'mobley_1363784'
p478
sS'2-chlorodibenzo-p-dioxin'
p479
S'mobley_5371840'
p480
sS'2,4-dimethylpyridine'
p481
S'mobley_8861672'
p482
sS'methanesulfonyl chloride'
p483
S'mobley_4850657'
p484
sS'pentan-3-ol'
p485
S'mobley_7227357'
p486
sS'2-nitrophenol'
p487
S'mobley_5063386'
p488
sS'isobutyl formate'
p489
S'mobley_7455579'
p490
sS'pyrrole'
p491
S'mobley_2837389'
p492
sS'cyanuric acid'
p493
S'mobley_6239320'
p494
sS'3-methylbutanoic acid'
p495
S'mobley_2929847'
p496
sS'diethyl propanedioate'
p497
S'mobley_2402487'
p498
sS'ethyl propanoate'
p499
S'mobley_7943327'
p500
sS'pirimor'
p501
S'mobley_3201701'
p502
sS'2-isobutylpyrazine'
p503
S'mobley_2693089'
p504
sS'dibenzo-p-dioxin'
p505
S'mobley_172879'
p506
sS'2-methylbut-2-ene'
p507
S'mobley_778352'
p508
sS'4-propylphenol'
p509
S'mobley_4683624'
p510
sS'methylcyclopentane'
p511
S'mobley_5852491'
p512
sS'ethyl pentanoate'
p513
S'mobley_6619554'
p514
sS'1-(3-pyridyl)ethanone'
p515
S'mobley_6353617'
p516
sS'1,2,3,7-tetrachlorodibenzo-p-dioxin'
p517
S'mobley_2844990'
p518
sS'1,4-dichloro-2-phenyl-benzene'
p519
S'mobley_6359156'
p520
sS'tetrahydrofuran'
p521
S'mobley_8882696'
p522
sS'4-ethylphenol'
p523
S'mobley_2923700'
p524
sS'd-glucose'
p525
S'mobley_9534740'
p526
sS'1,2,3,5-tetrachlorobenzene'
p527
S'mobley_1855337'
p528
sS'2-methylbenzaldehyde'
p529
S'mobley_8883511'
p530
sS'(2S,5R)-2-isopropyl-5-methylcyclohexanone'
p531
S'mobley_5616693'
p532
sS'formaldehyde'
p533
S'mobley_2146331'
p534
sS'methanamine'
p535
S'mobley_6714389'
p536
sS'butyl paraben'
p537
S'mobley_7912193'
p538
sS'non-1-ene'
p539
S'mobley_3709920'
p540
sS'm-cresol'
p541
S'mobley_8691603'
p542
sS'pentyl acetate'
p543
S'mobley_8514745'
p544
sS'2-phenylethanol'
p545
S'mobley_1858644'
p546
sS'pent-1-yne'
p547
S'mobley_430089'
p548
sS'N-propylpropan-1-amine'
p549
S'mobley_2958326'
p550
sS'1,1,1,2-tetramethoxyethane'
p551
S'mobley_5747981'
p552
sS'N,N-dimethylmethanamine'
p553
S'mobley_9209581'
p554
sS'1,3,5-trichloro-2-(2,6-dichlorophenyl)benzene'
p555
S'mobley_5561855'
p556
sS'cyclohexanone'
p557
S'mobley_3682850'
p558
sS'1-methyl-3-nitro-benzene'
p559
S'mobley_7298388'
p560
sS'aldicarb'
p561
S'mobley_5200358'
p562
sS'1-chlorobutane'
p563
S'mobley_3639400'
p564
sS'2,2-dimethylbutane'
p565
S'mobley_5935995'
p566
sS'N-butylbutan-1-amine'
p567
S'mobley_7860938'
p568
sS'2,4-dimethylphenol'
p569
S'mobley_4780078'
p570
sS'tetrafluoromethane'
p571
S'mobley_676247'
p572
sS'octan-2-one'
p573
S'mobley_9407874'
p574
sS'butadiene'
p575
S'mobley_511661'
p576
sS'1,1-dichloroethylene'
p577
S'mobley_2493732'
p578
sS'methyl benzoate'
p579
S'mobley_3968739'
p580
sS'isoprene'
p581
S'mobley_8765203'
p582
sS'1-methylimidazole'
p583
S'mobley_5499659'
p584
sS'1,4-dimethylnaphthalene'
p585
S'mobley_3715043'
p586
sS'3-ethylphenol'
p587
S'mobley_2354112'
p588
sS'methoxyethane'
p589
S'mobley_6911232'
p590
sS'propyl propanoate'
p591
S'mobley_5890803'
p592
sS'cyclopentene'
p593
S'mobley_8885088'
p594
sS'heptan-4-one'
p595
S'mobley_2390199'
p596
sS'2,3,4-trimethylpentane'
p597
S'mobley_4177472'
p598
sS'captan'
p599
S'mobley_1417007'
p600
sS'pentanenitrile'
p601
S'mobley_4893032'
p602
sS'naphthalen-2-amine'
p603
S'mobley_3264884'
p604
sS'3-nitroaniline'
p605
S'mobley_3777264'
p606
sS'2-butoxyethanol'
p607
S'mobley_5880265'
p608
sS'chloromethane'
p609
S'mobley_4434915'
p610
sS'naproxen'
p611
S'mobley_2269032'
p612
sS'trifluoromethylbenzene'
p613
S'mobley_8809274'
p614
sS'2-propoxyethanol'
p615
S'mobley_4687447'
p616
sS'1-chlorohexane'
p617
S'mobley_1893937'
p618
sS'nonan-2-one'
p619
S'mobley_1502181'
p620
sS'alachlor'
p621
S'mobley_8124669'
p622
sS'1,2-dichloroethane'
p623
S'mobley_1857976'
p624
sS'3-methylheptane'
p625
S'mobley_6896128'
p626
sS'bromoform'
p627
S'mobley_7578802'
p628
sS'1-methoxypropane'
p629
S'mobley_2422586'
p630
sS'2-isopropoxypropane'
p631
S'mobley_1615431'
p632
sS'1-chloro-pentane'
p633
S'mobley_2178600'
p634
sS'cyclopentane'
p635
S'mobley_8006582'
p636
sS'acetaldehyde'
p637
S'mobley_1967551'
p638
sS'1,4-dioxane'
p639
S'mobley_6739648'
p640
sS'1,1-difluoroethane'
p641
S'mobley_3370989'
p642
sS'4-methoxyaniline'
p643
S'mobley_4218209'
p644
sS'3,5-dimethylphenol'
p645
S'mobley_7009711'
p646
sS'morpholine'
p647
S'mobley_1659169'
p648
sS'2-ethylpyrazine'
p649
S'mobley_5220185'
p650
sS'penta-1,4-diene'
p651
S'mobley_9246215'
p652
sS'phthalimide'
p653
S'mobley_2782339'
p654
sS'propyl paraben'
p655
S'mobley_6201330'
p656
sS'1-chloro-2-methyl-benzene'
p657
S'mobley_1760914'
p658
sS'2-chloro-2-(difluoromethoxy)-1,1,1-trifluoro-ethane'
p659
S'mobley_2023925'
p660
sS'pentanoic acid'
p661
S'mobley_4792268'
p662
sS'1,4-dibromobenzene'
p663
S'mobley_7150646'
p664
sS'5-bromouracil'
p665
S'mobley_4039055'
p666
sS'1,4-dichlorobenzene'
p667
S'mobley_4553008'
p668
sS'3-methylpyridine'
p669
S'mobley_5977084'
p670
sS'iodomethane'
p671
S'mobley_4364398'
p672
sS'biphenyle'
p673
S'mobley_2005792'
p674
sS'undecan-2-one'
p675
S'mobley_7375018'
p676
sS'2,2,5-trimethylhexane'
p677
S'mobley_3060426'
p678
sS'hexan-3-ol'
p679
S'mobley_7977115'
p680
sS'4-ethylpyridine'
p681
S'mobley_6303022'
p682
sS'chloroethane'
p683
S'mobley_2198613'
p684
sS'1,2,3,4-tetrachlorodibenzo-p-dioxin'
p685
S'mobley_5510474'
p686
sS'2,6-dimethylpyridine'
p687
S'mobley_4584540'
p688
sS'n-butane'
p689
S'mobley_1923244'
p690
sS'propan-1-amine'
p691
S'mobley_9185328'
p692
sS'nonane'
p693
S'mobley_4375719'
p694
sS'isobutyl nitrate'
p695
S'mobley_2881590'
p696
sS'(E)-1,2-dichloroethylene'
p697
S'mobley_9913368'
p698
sS'methanethiol'
p699
S'mobley_525934'
p700
sS'3-chloropyridine'
p701
S'mobley_2789243'
p702
sS'dicamba'
p703
S'mobley_5708811'
p704
sS'fluorobenzene'
p705
S'mobley_4483973'
p706
sS'decan-2-one'
p707
S'mobley_9617923'
p708
sS'cyclopropane'
p709
S'mobley_2784376'
p710
sS'trimethyl orthotrifluoroacetate'
p711
S'mobley_7360181'
p712
sS'3-methoxyphenol'
p713
S'mobley_2457863'
p714
sS'3,4-dimethylpyridine'
p715
S'mobley_2371092'
p716
sS'methyl cyclopropanecarboxylate'
p717
S'mobley_4620651'
p718
sS'1,3-bis-(nitrooxy)propane'
p719
S'mobley_2636578'
p720
sS'methyl 2,2,2-trifluoroacetate'
p721
S'mobley_9028462'
p722
sS'5-trifluoromethyluracil'
p723
S'mobley_7794077'
p724
sS'2,5-dimethylpyridine'
p725
S'mobley_9507933'
p726
sS'nonanal'
p727
S'mobley_1976156'
p728
sS'trimethyl phosphate'
p729
S'mobley_6115639'
p730
sS'2,2,2-trifluoroethanol'
p731
S'mobley_3006808'
p732
sS'oct-1-ene'
p733
S'mobley_9197172'
p734
sS'2-methylbutan-1-ol'
p735
S'mobley_7983227'
p736
sS'1-methylpiperazine'
p737
S'mobley_2771569'
p738
sS'1-butoxy-2-propanol'
p739
S'mobley_7913234'
p740
sS'pent-2-ene'
p741
S'mobley_9112978'
p742
sS'propan-2-ol'
p743
S'mobley_7326982'
p744
sS'chlorfenvinphos'
p745
S'mobley_6522117'
p746
sS'ethyl paraben'
p747
S'mobley_4609460'
p748
sS'diphenyl ether'
p749
S'mobley_6102880'
p750
sS'diflunisal'
p751
S'mobley_6055410'
p752
sS'1,1,2-trichloroethylene'
p753
S'mobley_766666'
p754
sS'isobutyl acetate'
p755
S'mobley_859464'
p756
sS'2,5-dimethylphenol'
p757
S'mobley_3144334'
p758
sS'2,6-dimethoxyphenol'
p759
S'mobley_486214'
p760
sS'9H-fluorene'
p761
S'mobley_9565165'
p762
sS'3-chlorophenol'
p763
S'mobley_8057732'
p764
sS'N-methylmethanamine'
p765
S'mobley_5692472'
p766
sS'hexanoic acid'
p767
S'mobley_1735893'
p768
sS'1,3,5-trichloro-2-phenyl-benzene'
p769
S'mobley_5538249'
p770
sS'4-methylpentan-2-ol'
p771
S'mobley_5123639'
p772
sS'4-chloroaniline'
p773
S'mobley_8723116'
p774
sS'diazinon'
p775
S'mobley_5393242'
p776
sS'propionic acid'
p777
S'mobley_7758918'
p778
sS'1,1,1,2,2-pentachloroethane'
p779
S'mobley_2492140'
p780
sS'2,3-dimethylbuta-1,3-diene'
p781
S'mobley_900088'
p782
sS'4-methylpyridine'
p783
S'mobley_1520842'
p784
sS'4-hydroxybenzaldehyde'
p785
S'mobley_7988076'
p786
sS'naphthalene'
p787
S'mobley_282648'
p788
sS'4-nitrophenol'
p789
S'mobley_2751110'
p790
sS'ametryn'
p791
S'mobley_3047364'
p792
sS'2-methylpent-1-ene'
p793
S'mobley_1899443'
p794
sS'pyrazon'
p795
S'mobley_2523689'
p796
sS'phenylmethanol'
p797
S'mobley_5311804'
p798
sS'hydrogen sulfide'
p799
S'mobley_1929982'
p800
sS'1-benzylimidazole'
p801
S'mobley_4613090'
p802
sS'bromo-trifluoro-methane'
p803
S'mobley_7732703'
p804
sS'2-methoxypropane'
p805
S'mobley_3269565'
p806
sS'acetylsalicylic acid'
p807
S'mobley_2913224'
p808
sS'4-bromophenol'
p809
S'mobley_1733799'
p810
sS'1,2,4,5-tetrachlorobenzene'
p811
S'mobley_6804509'
p812
sS'4-methoxy-N,N-dimethyl-benzamide'
p813
S'mobley_5600967'
p814
sS'ethylsulfanylethane'
p815
S'mobley_4983965'
p816
sS'1-iodohexane'
p817
S'mobley_6250025'
p818
sS'2-chloropropane'
p819
S'mobley_1231151'
p820
sS'isohexane'
p821
S'mobley_7106722'
p822
sS'N,N-diethylethanamine'
p823
S'mobley_8449031'
p824
sS'1,2-dimethylcyclohexane'
p825
S'mobley_4715906'
p826
sS'1-iodopentane'
p827
S'mobley_8525830'
p828
sS'4-methyl-1H-imidazole'
p829
S'mobley_5732611'
p830
sS'benzyl chloride'
p831
S'mobley_2484519'
p832
sS'1,2-bis(trifluoromethyl)benzene'
p833
S'mobley_6358463'
p834
sS'2,4-dimethylpentan-3-one'
p835
S'mobley_4013838'
p836
sS'methylsulfanylmethane'
p837
S'mobley_9073553'
p838
sS'1-butoxybutane'
p839
S'mobley_129464'
p840
sS'1,4-dichlorobutane'
p841
S'mobley_5286200'
p842
sS'(Z)-1,2-dichloroethylene'
p843
S'mobley_4465023'
p844
sS'heptane'
p845
S'mobley_8614858'
p846
sS'methyl octanoate'
p847
S'mobley_7608435'
p848
sS'1-amino-4-hydroxy-9,10-anthracenedione'
p849
S'mobley_4371692'
p850
sS'sulfolane'
p851
S'mobley_3323117'
p852
sS'1,2,4-trimethylbenzene'
p853
S'mobley_3183805'
p854
sS'but-1-yne'
p855
S'mobley_9121449'
p856
sS'dichloromethane'
p857
S'mobley_3762186'
p858
sS'3-chloroaniline'
p859
S'mobley_6257907'
p860
sS'cyclohexanamine'
p861
S'mobley_1036761'
p862
sS'n-pentane'
p863
S'mobley_5449201'
p864
sS'1-amino-9,10-anthracenedione'
p865
S'mobley_8052240'
p866
sS'hexachloroethane'
p867
S'mobley_1278715'
p868
sS'3-hydroxybenzonitrile'
p869
S'mobley_2661134'
p870
sS'methylcyclohexane'
p871
S'mobley_9100956'
p872
sS'2-methylbutan-2-ol'
p873
S'mobley_9838013'
p874
sS'nonan-1-ol'
p875
S'mobley_3378420'
p876
sS'triethylphosphate'
p877
S'mobley_1323538'
p878
sS'trans-3,7-Dimethylocta-2,6-dien-1-ol'
p879
S'mobley_819018'
p880
sS'N,N-dimethylbenzamide'
p881
S'mobley_4188615'
p882
sS'2-methylpropanal'
p883
S'mobley_5627459'
p884
sS'1-bromoheptane'
p885
S'mobley_2517158'
p886
sS'malathion'
p887
S'mobley_8916409'
p888
sS'1-bromohexane'
p889
S'mobley_929676'
p890
sS'heptan-1-amine'
p891
S'mobley_718988'
p892
sS'1-(2-hydroxyethylamino)-9,10-anthraquinone'
p893
S'mobley_2316618'
p894
sS'but-1-ene'
p895
S'mobley_1662128'
p896
sS'2-iodophenol'
p897
S'mobley_8789465'
p898
sS'sec-butylbenzene'
p899
S'mobley_2183616'
p900
sS'hept-1-yne'
p901
S'mobley_49274'
p902
sS'2,6-dimethylphenol'
p903
S'mobley_1755375'
p904
sS'1-methyl-2-nitro-benzene'
p905
S'mobley_5747188'
p906
sS'ethylene'
p907
S'mobley_6091882'
p908
sS'butyric acid'
p909
S'mobley_820789'
p910
sS'1,2,4-trichlorodibenzo-p-dioxin'
p911
S'mobley_8827942'
p912
sS'1-phenylethanone'
p913
S'mobley_7497999'
p914
sS'1,2,3,4,7,8-hexachlorodibenzo-p-dioxin'
p915
S'mobley_2960202'
p916
sS'iodoethane'
p917
S'mobley_1107178'
p918
sS'm-xylene'
p919
S'mobley_1424265'
p920
sS'decane'
p921
S'mobley_2197088'
p922
sS'ethylbenzene'
p923
S'mobley_8127829'
p924
sS'N,N-dimethyl-4-nitro-benzamide'
p925
S'mobley_7415647'
p926
sS'9,10-dihydroanthracene'
p927
S'mobley_2972345'
p928
sS'propylbenzene'
p929
S'mobley_6430250'
p930
sS'chloroform'
p931
S'mobley_2996632'
p932
sS'flurbiprofen'
p933
S'mobley_1527293'
p934
sS'chloro-difluoro-methane'
p935
S'mobley_8311321'
p936
sS'butanal'
p937
S'mobley_8573194'
p938
sS'3-chloroprop-1-ene'
p939
S'mobley_7099614'
p940
sS'methyldisulfanylmethane'
p941
S'mobley_7690440'
p942
sS'pyridine-4-carbonitrile'
p943
S'mobley_5026370'
p944
sS'2-bromo-1,1,1,2-tetrafluoro-ethane'
p945
S'mobley_8685905'
p946
sS'4-methylbenzaldehyde'
p947
S'mobley_6175884'
p948
sS'1-propylsulfanylpropane'
p949
S'mobley_5052949'
p950
sS'quinone'
p951
S'mobley_3727287'
p952
sS'2-nitropropane'
p953
S'mobley_967099'
p954
sS'2-chlorobutane'
p955
S'mobley_6235784'
p956
sS'1,2,3,4-tetrachloro-5-(3,4,5-trichlorophenyl)benzene'
p957
S'mobley_3269819'
p958
sS'2-bromo-2-chloro-1,1,1-trifluoro-ethane'
p959
S'mobley_4506634'
p960
sS'4-methyl-2-methoxyphenol'
p961
S'mobley_5917842'
p962
sS'(2E)-hex-2-enal'
p963
S'mobley_2792521'
p964
sS'2-methylhexane'
p965
S'mobley_4043987'
p966
sS'(2R,5R)-2-methyl-5-(1-methylethenyl)-cyclohexanone'
p967
S'mobley_1160109'
p968
sS'1-ethyl-2-methylbenzene'
p969
S'mobley_3040612'
p970
sS'1-bromopropane'
p971
S'mobley_7708038'
p972
sS'1,2,3,4-tetrachloro-5-(3,4-dichlorophenyl)benzene'
p973
S'mobley_1034539'
p974
sS'1,2,3,4-tetrachloro-5-(2,3,4-trichlorophenyl)benzene'
p975
S'mobley_667278'
p976
sS'chlorobenzene'
p977
S'mobley_7608462'
p978
sS'butan-1-ol'
p979
S'mobley_1019269'
p980
sS'2,6-dichlorosyringaldehyde'
p981
S'mobley_6195751'
p982
sS'3-methylhexane'
p983
S'mobley_9883303'
p984
sS'2,2-dichloro-1,1-difluoro-1-methoxy-ethane'
p985
S'mobley_5347550'
p986
sS'1,2,3,4,5-pentachloro-6-(2,3,4,5,6-pentachlorophenyl)benzene'
p987
S'mobley_5456566'
p988
sS'hexyl nitrate'
p989
S'mobley_3802803'
p990
sS'mesitylene'
p991
S'mobley_1987439'
p992
sS'1-propoxypropane'
p993
S'mobley_7542832'
p994
sS'1,3-dichlorobenzene'
p995
S'mobley_1079207'
p996
sS'methyl acetate'
p997
S'mobley_3982371'
p998
sS'butyl acetate'
p999
S'mobley_2364370'
p1000
sS'2-ethoxyethyl acetate'
p1001
S'mobley_7417968'
p1002
sS'1,1,1,2-tetrachloroethane'
p1003
S'mobley_1893815'
p1004
sS'pentan-2-one'
p1005
S'mobley_1881249'
p1006
sS'methyl pentanoate'
p1007
S'mobley_2341732'
p1008
sS'1,1,1-trimethoxyethane'
p1009
S'mobley_550662'
p1010
sS'phenol'
p1011
S'mobley_20524'
p1012
sS'1-bromo-pentane'
p1013
S'mobley_3738859'
p1014
sS'3,3-dimethylpentane'
p1015
S'mobley_2609604'
p1016
sS'methyl hexanoate'
p1017
S'mobley_1017962'
p1018
sS'2-hydroxybenzaldehyde'
p1019
S'mobley_2850833'
p1020
sS'pentachloronitrobenzene'
p1021
S'mobley_1396156'
p1022
sS'hept-1-ene'
p1023
S'mobley_4762983'
p1024
sS'1,2,3-trichloro-5-(2,5-dichlorophenyl)benzene'
p1025
S'mobley_8823527'
p1026
sS'1,1-diethoxyethane'
p1027
S'mobley_3686115'
p1028
sS'toluene'
p1029
S'mobley_1873346'
p1030
sS'isopentyl formate'
p1031
S'mobley_4924862'
p1032
sS'propan-1-ol'
p1033
S'mobley_313406'
p1034
sS'1-chlorodibenzo-p-dioxin'
p1035
S'mobley_7239499'
p1036
sS'benefin'
p1037
S'mobley_7829570'
p1038
sS'pentylcyclopentane'
p1039
S'mobley_2328633'
p1040
sS'1,4-dimethylcyclohexane'
p1041
S'mobley_9139060'
p1042
sS'm-bis(trifluoromethyl)benzene'
p1043
S'mobley_4678740'
p1044
sS'heptan-1-ol'
p1045
S'mobley_5079234'
p1046
sS'piperazine'
p1047
S'mobley_951560'
p1048
sS'3,4-dichlorophenol'
p1049
S'mobley_9257453'
p1050
sS'ethoxybenzene'
p1051
S'mobley_2763835'
p1052
sS'benzene'
p1053
S'mobley_3053621'
p1054
sS'2,3-dimethylphenol'
p1055
S'mobley_1571523'
p1056
sS'azetidine'
p1057
S'mobley_6266306'
p1058
sS'3-methylbutan-1-ol'
p1059
S'mobley_5973402'
p1060
sS'hex-2-enal'
p1061
g964
sS'hexyl acetate'
p1062
S'mobley_2607611'
p1063
sS'5-chlorouracil'
p1064
S'mobley_9557440'
p1065
sS'ibuprofen'
p1066
S'mobley_2078467'
p1067
sS'(3R)-3,7-Dimethylocta-1,6-dien-3-yl acetate'
p1068
S'mobley_6935906'
p1069
sS'octane'
p1070
S'mobley_3167746'
p1071
sS'4-methylmorpholine'
p1072
S'mobley_8558116'
p1073
sS'pyrrolidine'
p1074
S'mobley_646007'
p1075
sS'cumene'
p1076
S'mobley_5445548'
p1077
sS'4-methylpentan-2-one'
p1078
S'mobley_8337977'
p1079
sS'5-iodouracil'
p1080
S'mobley_2727678'
p1081
sS'hex-1-yne'
p1082
S'mobley_1674094'
p1083
sS'1,2-diethoxyethane'
p1084
S'mobley_4690963'
p1085
sS'2-methylaniline'
p1086
S'mobley_3187514'
p1087
sS'heptan-2-one'
p1088
S'mobley_3573480'
p1089
sS'imidazole'
p1090
S'mobley_7735340'
p1091
sS'isophorone'
p1092
S'mobley_7364468'
p1093
sS'isopentane'
p1094
S'mobley_1803862'
p1095
sS'isopentyl acetate'
p1096
S'mobley_5471704'
p1097
sS'1-pyrrolidin-1-ylethanone'
p1098
S'mobley_2725802'
p1099
sS'6-isopropyl-3-methyl-1-cyclohex-2-enone'
p1100
S'mobley_7676709'
p1101
sS'glycerol'
p1102
S'mobley_3259411'
p1103
sS'acetamide'
p1104
S'mobley_8048190'
p1105
sS'3-nitrophenol'
p1106
S'mobley_7176290'
p1107
sS'p-xylene'
p1108
S'mobley_3234716'
p1109
sS'4-fluorophenol'
p1110
S'mobley_852937'
p1111
sS'ketoprofen'
p1112
S'mobley_2099370'
p1113
sS'2-methoxy-2-methyl-propane'
p1114
S'mobley_9794857'
p1115
sS'1-(4-methoxyphenyl)ethanone'
p1116
S'mobley_632905'
p1117
sS'1-bromobutane'
p1118
S'mobley_2802855'
p1119
sS'1,3-dichloro-2-(2,6-dichlorophenyl)benzene'
p1120
S'mobley_628951'
p1121
sS'2-methyltetrahydrofuran'
p1122
S'mobley_5056289'
p1123
sS'2-methoxyethanol'
p1124
S'mobley_5816127'
p1125
sS'octan-1-ol'
p1126
S'mobley_36119'
p1127
sS'2-ethylphenol'
p1128
S'mobley_2126135'
p1129
sS'1-cyclopropylethanone'
p1130
S'mobley_197466'
p1131
sS'3-methylbut-1-ene'
p1132
S'mobley_2143011'
p1133
sS'[2-benzhydryloxyethyl]-dimethyl-amine'
p1134
S'mobley_1944394'
p1135
sS'methyl butanoate'
p1136
S'mobley_5390332'
p1137
sS'cyclohexene'
p1138
S'mobley_3211679'
p1139
sS'carbaryl'
p1140
S'mobley_9007496'
p1141
sS'2,3-dimethylnaphthalene'
p1142
S'mobley_547634'
p1143
sS'styrene'
p1144
S'mobley_2859600'
p1145
sS'nonan-5-one'
p1146
S'mobley_3318135'
p1147
sS'3,5-dichloro-2,6-dimethoxy-phenol'
p1148
S'mobley_6688723'
p1149
sS'nitroglycol'
p1150
S'mobley_52782'
p1151
sS'methyparathion'
p1152
S'mobley_1922649'
p1153
sS'dichlobenil'
p1154
S'mobley_9740891'
p1155
sS'cyclohepta-1,3,5-triene'
p1156
S'mobley_9729792'
p1157
sS'1-nitroethane'
p1158
S'mobley_8320545'
p1159
sS'1,1-dichloroethane'
p1160
S'mobley_3999471'
p1161
sS'1-(4-pyridyl)ethanone'
p1162
S'mobley_6794076'
p1163
sS'chloroethylene'
p1164
S'mobley_6474572'
p1165
sS'2-methoxyaniline'
p1166
S'mobley_5072416'
p1167
sS'1-ethyl-4-methyl-benzene'
p1168
S'mobley_9942801'
p1169
sS'naphthalen-2-ol'
p1170
S'mobley_3663158'
p1171
sS'o-xylene'
p1172
S'mobley_9478823'
p1173
sS'pentyl propanoate'
p1174
S'mobley_3572203'
p1175
sS'pyridine-3-carbonitrile'
p1176
S'mobley_8764620'
p1177
sS'2,4-dimethylpentane'
p1178
S'mobley_8436428'
p1179
sS'iodobenzene'
p1180
S'mobley_3398536'
p1181
sS'pyridine-4-carbaldehyde'
p1182
S'mobley_8798016'
p1183
sS'hydrazine'
p1184
S'mobley_7261305'
p1185
sS'ethanamine'
p1186
S'mobley_2410897'
p1187
sS'butyl nitrate'
p1188
S'mobley_902954'
p1189
sS'cyclopentanone'
p1190
S'mobley_3968043'
p1191
sS'methoxymethane'
p1192
S'mobley_7015518'
p1193
sS'1-chloropropane'
p1194
S'mobley_1977493'
p1195
sS'2,3,7,8-tetrachlorodibenzo-p-dioxin'
p1196
S'mobley_2845466'
p1197
sS'N-isopropylpropan-2-amine'
p1198
S'mobley_8705848'
p1199
sS'benzenethiol'
p1200
S'mobley_5520946'
p1201
sS'1-bromooctane'
p1202
S'mobley_9015240'
p1203
sS'pentan-2-ol'
p1204
S'mobley_2864987'
p1205
sS'heptanal'
p1206
S'mobley_7859387'
p1207
sS'but-2-enal'
p1208
S'mobley_6497672'
p1209
sS'chlordane'
p1210
S'mobley_6733657'
p1211
sS'2-iodopropane'
p1212
S'mobley_210639'
p1213
sS'1-methylpiperidine'
p1214
S'mobley_63712'
p1215
sS'naphthalen-1-amine'
p1216
S'mobley_3843583'
p1217
sS'ethyl formate'
p1218
S'mobley_2294995'
p1219
sS'2-methylpentan-3-ol'
p1220
S'mobley_7610437'
p1221
sS'trichlorfon'
p1222
S'mobley_6334915'
p1223
sS'ethanethiol'
p1224
S'mobley_1800170'
p1225
sS'1-methylcyclohexene'
p1226
S'mobley_6571751'
p1227
sS'1-iodopropane'
p1228
S'mobley_1199854'
p1229
sS'diethyl butanedioate'
p1230
S'mobley_1743409'
p1231
sS'2-methylprop-1-ene'
p1232
S'mobley_299266'
p1233
sS'trifluralin'
p1234
S'mobley_7176248'
p1235
sS'2-chloro-1,1,1-trifluoro-ethane'
p1236
S'mobley_8191186'
p1237
sS'benzaldehyde'
p1238
S'mobley_3969312'
p1239
sS'1-chloro-2-phenyl-benzene'
p1240
S'mobley_9717937'
p1241
sS'cyclohexane'
p1242
S'mobley_2689721'
p1243
sS'5-flurouracil'
p1244
S'mobley_337666'
p1245
sS'2-methylpyridine'
p1246
S'mobley_4287564'
p1247
sS'2,7-dichlorodibenzo-p-dioxin'
p1248
S'mobley_4149784'
p1249
sS'heptachlor'
p1250
S'mobley_468867'
p1251
sS'nitralin'
p1252
S'mobley_2725215'
p1253
sS'1,2-dimethoxyethane'
p1254
S'mobley_4630641'
p1255
sS'pyrene'
p1256
S'mobley_2577969'
p1257
sS'cyclopentanol'
p1258
S'mobley_8899867'
p1259
sS'profluralin'
p1260
S'mobley_2501588'
p1261
sS'neopentane'
p1262
S'mobley_1261349'
p1263
sS'ethylmethylsulfide'
p1264
S'mobley_2049967'
p1265
sS'2-fluorophenol'
p1266
S'mobley_7200804'
p1267
sS'chloropicrin'
p1268
S'mobley_2481002'
p1269
sS'2-chlorosyringaldehyde'
p1270
S'mobley_3265457'
p1271
sS'propanil'
p1272
S'mobley_7463408'
p1273
sS'6-chlorouracil'
p1274
S'mobley_4338603'
p1275
sS'carbofuran'
p1276
S'mobley_6620221'
p1277
sS'dibromomethane'
p1278
S'mobley_9246351'
p1279
sS'1,2-dichloropropane'
p1280
S'mobley_4699732'
p1281
sS'bromacil'
p1282
S'mobley_194273'
p1283
sS'fluoromethane'
p1284
S'mobley_9029594'
p1285
s.