(dp0
S'C(C(CO)O)O'
p1
S'mobley_3259411'
p2
sS'CN1CCN(CC1)C'
p3
S'mobley_4059279'
p4
sS'CCCCCBr'
p5
S'mobley_3738859'
p6
sS'CCc1cccc(c1N(COC)C(=O)CCl)CC'
p7
S'mobley_8124669'
p8
sS'CCC(=O)N'
p9
S'mobley_8427539'
p10
sS'CCC(=O)O'
p11
S'mobley_7758918'
p12
sS'C1COCCO1'
p13
S'mobley_6739648'
p14
sS'c1ccc2c(c1)Oc3c(c(c(c(c3Cl)Cl)Cl)Cl)O2'
p15
S'mobley_5510474'
p16
sS'CCCc1ccccc1'
p17
S'mobley_6430250'
p18
sS'CCCCl'
p19
S'mobley_1977493'
p20
sS'c1ccc(cc1)CO'
p21
S'mobley_5311804'
p22
sS'CN(C)C'
p23
S'mobley_9209581'
p24
sS'c1c(c(=O)[nH]c(=O)[nH]1)I'
p25
S'mobley_2727678'
p26
sS'Cc1ccc(cc1)C'
p27
S'mobley_3234716'
p28
sS'CC(=O)OCC(COC(=O)C)OC(=O)C'
p29
S'mobley_6198745'
p30
sS'CCOCCOC(=O)C'
p31
S'mobley_7417968'
p32
sS'CCCCS'
p33
S'mobley_1563176'
p34
sS'CN(C)CCOC(c1ccccc1)c2ccccc2'
p35
S'mobley_1944394'
p36
sS'Cc1ccc(cc1)N'
p37
S'mobley_5518547'
p38
sS'Cc1ccc(cc1)O'
p39
S'mobley_2925352'
p40
sS'CCCCI'
p41
S'mobley_8772587'
p42
sS'C1[C@H]([C@@H]2[C@H]([C@H]1Cl)[C@]3(C(=C([C@@]2(C3(Cl)Cl)Cl)Cl)Cl)Cl)Cl'
p43
S'mobley_6733657'
p44
sS'COc1ccccc1N'
p45
S'mobley_5072416'
p46
sS'CCCOC(=O)c1ccc(cc1)O'
p47
S'mobley_6201330'
p48
sS'CCCCO'
p49
S'mobley_1019269'
p50
sS'c1ccc2c(c1)CCC2'
p51
S'mobley_5094777'
p52
sS'CCCCC'
p53
S'mobley_5449201'
p54
sS'CCc1ccccn1'
p55
S'mobley_6988468'
p56
sS'c1cc(cc(c1)Cl)O'
p57
S'mobley_8057732'
p58
sS'C1CCC(=O)CC1'
p59
S'mobley_3682850'
p60
sS'[C@@H](C(F)(F)F)(F)Br'
p61
S'mobley_8685905'
p62
sS'CC(C)Cc1cnccn1'
p63
S'mobley_2693089'
p64
sS'C(I)I'
p65
S'mobley_664966'
p66
sS'CCCCCCON([O-])[O-]'
p67
S'mobley_3802803'
p68
sS'C(=C(F)F)(C(F)(F)F)F'
p69
S'mobley_5494918'
p70
sS'CCOC(=O)CCC(=O)OCC'
p71
S'mobley_1743409'
p72
sS'CCC#N'
p73
S'mobley_4305650'
p74
sS'C1CCOCC1'
p75
S'mobley_3395921'
p76
sS'CCC#C'
p77
S'mobley_9121449'
p78
sS'CC(OC)(OC)OC'
p79
S'mobley_550662'
p80
sS'CCCC(=O)O'
p81
S'mobley_820789'
p82
sS'C(=C\\Cl)\\Cl'
p83
S'mobley_4465023'
p84
sS'COc1ccc(cc1)N'
p85
S'mobley_4218209'
p86
sS'CC[C@@H](C)c1cc(cc(c1O)[N+](=O)[O-])[N+](=O)[O-]'
p87
S'mobley_3274817'
p88
sS'CC(=C)c1ccccc1'
p89
S'mobley_3746675'
p90
sS'C(F)(F)(F)Br'
p91
S'mobley_7732703'
p92
sS'CCCC(=O)C'
p93
S'mobley_1881249'
p94
sS'CC[C@H](C)Cl'
p95
S'mobley_6235784'
p96
sS'CC(=CCC/C(=C/CO)/C)C'
p97
S'mobley_819018'
p98
sS'CC(C)C=C'
p99
S'mobley_2143011'
p100
sS'CC(C)C=O'
p101
S'mobley_5627459'
p102
sS'CCC(CC)O'
p103
S'mobley_7227357'
p104
sS'Cc1ccccc1Cl'
p105
S'mobley_1760914'
p106
sS'COc1c(ccc(c1C(=O)O)Cl)Cl'
p107
S'mobley_5708811'
p108
sS'C1[C@@H]2[C@H](COS(=O)O1)[C@@]3(C(=C([C@]2(C3(Cl)Cl)Cl)Cl)Cl)Cl'
p109
S'mobley_9571888'
p110
sS'CCN(CC)c1c(cc(c(c1[N+](=O)[O-])N)C(F)(F)F)[N+](=O)[O-]'
p111
S'mobley_5076071'
p112
sS'c1ccccc1'
p113
S'mobley_3053621'
p114
sS'COP(=S)(OC)SCn1c(=O)c2ccccc2nn1'
p115
S'mobley_1770205'
p116
sS'C[C@H]1CC[C@@H](O1)C'
p117
S'mobley_8785107'
p118
sS'c1cc(cc(c1)O)C#N'
p119
S'mobley_2661134'
p120
sS'CCCCc1ccccc1'
p121
S'mobley_8809190'
p122
sS'CC(C)(C)c1ccc(cc1)O'
p123
S'mobley_5467162'
p124
sS'c1ccc2c(c1)C(=O)c3c(ccc(c3C2=O)N)N'
p125
S'mobley_242480'
p126
sS'C[C@@H](CCl)Cl'
p127
S'mobley_4699732'
p128
sS'c1ccc2c(c1)cccc2N'
p129
S'mobley_3843583'
p130
sS'C/C=C/C=O'
p131
S'mobley_6497672'
p132
sS'CC[C@H](C)n1c(=O)c(c([nH]c1=O)C)Br'
p133
S'mobley_194273'
p134
sS'Cc1c(c(=O)n(c(=O)[nH]1)C(C)(C)C)Cl'
p135
S'mobley_3105103'
p136
sS'C(CCCl)CCl'
p137
S'mobley_5286200'
p138
sS'c1ccc(cc1)C=O'
p139
S'mobley_3969312'
p140
sS'c1cnc[nH]1'
p141
S'mobley_7735340'
p142
sS'C[C@H](CC(C)C)O'
p143
S'mobley_5123639'
p144
sS'c1ccc(cc1)CCO'
p145
S'mobley_1858644'
p146
sS'COc1cc(c(c(c1O)OC)Cl)C=O'
p147
S'mobley_3265457'
p148
sS'c1cnccc1C=O'
p149
S'mobley_8798016'
p150
sS'CCCSCCC'
p151
S'mobley_5052949'
p152
sS'Cc1c[nH]cn1'
p153
S'mobley_5732611'
p154
sS'CBr'
p155
S'mobley_8983100'
p156
sS'c1ccc(c(c1)O)F'
p157
S'mobley_7200804'
p158
sS'C1CC=CC1'
p159
S'mobley_8885088'
p160
sS'c1cc(c(c(c1)Cl)c2c(cc(cc2Cl)Cl)Cl)Cl'
p161
S'mobley_5561855'
p162
sS'c1ccc(c(c1)O)I'
p163
S'mobley_8789465'
p164
sS'Cn1cccc1'
p165
S'mobley_3775790'
p166
sS'CCC(C)(C)C'
p167
S'mobley_5935995'
p168
sS'CCCCOC(=O)C'
p169
S'mobley_2364370'
p170
sS'CCNc1nc(nc(n1)SC)NC(C)(C)C'
p171
S'mobley_6338073'
p172
sS'Cc1cccc(c1)C'
p173
S'mobley_1424265'
p174
sS'c1ccc(cc1)CCl'
p175
S'mobley_2484519'
p176
sS'C(C(F)(F)F)O'
p177
S'mobley_3006808'
p178
sS'CCC(C)(C)O'
p179
S'mobley_9838013'
p180
sS'CSSC'
p181
S'mobley_7690440'
p182
sS'CCCCC#N'
p183
S'mobley_4893032'
p184
sS'CC1=CC[C@H](C[C@@H]1O)C(=C)C'
p185
S'mobley_9653690'
p186
sS'COC(=O)CC#N'
p187
S'mobley_9114381'
p188
sS'Cc1cccc(c1N)C'
p189
S'mobley_5571660'
p190
sS'CCCc1ccc(cc1)O'
p191
S'mobley_4683624'
p192
sS'c1ccc2c(c1)C(=O)c3ccc(cc3C2=O)N'
p193
S'mobley_5003962'
p194
sS'C(=C(Cl)Cl)Cl'
p195
S'mobley_766666'
p196
sS'CCCCCCBr'
p197
S'mobley_929676'
p198
sS'c1cc(c(cc1c2c(c(cc(c2Cl)Cl)Cl)Cl)Cl)Cl'
p199
S'mobley_8311303'
p200
sS'CC(=O)C(C)(C)C'
p201
S'mobley_5346580'
p202
sS'COCCOC'
p203
S'mobley_4630641'
p204
sS'c1cc(c(c(c1)Cl)Cl)Cl'
p205
S'mobley_3980099'
p206
sS'CCCOC=O'
p207
S'mobley_8754702'
p208
sS'CCCCC/C=C/C=O'
p209
S'mobley_6081058'
p210
sS'C(C(Cl)(Cl)Cl)Cl'
p211
S'mobley_1893815'
p212
sS'CC[C@H](C)c1ccccc1'
p213
S'mobley_2183616'
p214
sS'CCBr'
p215
S'mobley_994483'
p216
sS'C1C=CC[C@@H]2[C@@H]1C(=O)N(C2=O)SC(Cl)(Cl)Cl'
p217
S'mobley_1417007'
p218
sS'CCOP(=O)(OCC)OCC'
p219
S'mobley_1323538'
p220
sS'Cc1ccnc(c1)C'
p221
S'mobley_8861672'
p222
sS'Cc1cc(cc(c1)C)C'
p223
S'mobley_1987439'
p224
sS'CCCC(C)C'
p225
S'mobley_7106722'
p226
sS'CCC=C'
p227
S'mobley_1662128'
p228
sS'CCOC'
p229
S'mobley_6911232'
p230
sS'COc1c(cc(c(c1O)OC)Cl)Cl'
p231
S'mobley_6688723'
p232
sS'CC(C)SC(C)C'
p233
S'mobley_9974966'
p234
sS'CCCC(=O)CCC'
p235
S'mobley_2390199'
p236
sS'c1ccc2ccccc2c1'
p237
S'mobley_282648'
p238
sS'CCCCN'
p239
S'mobley_9733743'
p240
sS'COc1ccc(cc1)C(=O)OC'
p241
S'mobley_7393673'
p242
sS'Cc1cccc(c1C)Nc2ccccc2C(=O)O'
p243
S'mobley_4936555'
p244
sS'C(Cl)(Cl)(Cl)Cl'
p245
S'mobley_6359135'
p246
sS'C=Cc1ccccc1'
p247
S'mobley_2859600'
p248
sS'CCCCCOC(=O)C'
p249
S'mobley_8514745'
p250
sS'c1ccc(cc1)Cl'
p251
S'mobley_7608462'
p252
sS'COC(=O)CCl'
p253
S'mobley_6929123'
p254
sS'CCOC(=O)c1ccccc1'
p255
S'mobley_397645'
p256
sS'c1c2c(cc(c1Cl)Cl)Oc3c(c(c(c(c3Cl)Cl)Cl)Cl)O2'
p257
S'mobley_2960202'
p258
sS'Cc1ccc(nc1)C'
p259
S'mobley_9507933'
p260
sS'CCOCCO'
p261
S'mobley_9626434'
p262
sS'[C@@H](C(F)(F)F)(Cl)Br'
p263
S'mobley_4506634'
p264
sS'COc1cccc(c1O)OC'
p265
S'mobley_486214'
p266
sS'CCOC(=O)c1ccc(cc1)O'
p267
S'mobley_4609460'
p268
sS'CC(C)[N+](=O)[O-]'
p269
S'mobley_967099'
p270
sS'C(C(Cl)Cl)(Cl)Cl'
p271
S'mobley_6190089'
p272
sS'c1cc(ccc1[N+](=O)[O-])O'
p273
S'mobley_2751110'
p274
sS'c1ccc(cc1)F'
p275
S'mobley_4483973'
p276
sS'CC(C)(C)O'
p277
S'mobley_1650157'
p278
sS'CCCCCC=O'
p279
S'mobley_1827204'
p280
sS'CC(C)(C)C'
p281
S'mobley_1261349'
p282
sS'c1c(cc(c(c1Cl)Cl)Cl)Cl'
p283
S'mobley_1855337'
p284
sS'c1ccc(cc1)N'
p285
S'mobley_4883284'
p286
sS'c1ccc(cc1)O'
p287
S'mobley_20524'
p288
sS'CCCCCC=C'
p289
S'mobley_4762983'
p290
sS'c1ccc(cc1)I'
p291
S'mobley_3398536'
p292
sS'CCC[N@@](CC1CC1)c2c(cc(cc2[N+](=O)[O-])C(F)(F)F)[N+](=O)[O-]'
p293
S'mobley_2501588'
p294
sS'CC=O'
p295
S'mobley_1967551'
p296
sS'CCC(=O)CC'
p297
S'mobley_1875719'
p298
sS'C(=C/Cl)\\Cl'
p299
S'mobley_9913368'
p300
sS'Cc1c[nH]c2c1cccc2'
p301
S'mobley_1821184'
p302
sS'C(Cl)Cl'
p303
S'mobley_3762186'
p304
sS'CC=C'
p305
S'mobley_303222'
p306
sS'c1ccc(c(c1)Cl)Cl'
p307
S'mobley_2489709'
p308
sS'C1=C[C@@H]([C@@H]2[C@H]1[C@@]3(C(=C([C@]2(C3(Cl)Cl)Cl)Cl)Cl)Cl)Cl'
p309
S'mobley_468867'
p310
sS'COP(=O)(OC)OC'
p311
S'mobley_6115639'
p312
sS'CC(=O)OCCOC(=O)C'
p313
S'mobley_352111'
p314
sS'CCCCCCCCC(=O)C'
p315
S'mobley_9617923'
p316
sS'CCc1ccccc1C'
p317
S'mobley_3040612'
p318
sS'C(CO[N+](=O)[O-])O'
p319
S'mobley_6727159'
p320
sS'CCCN(CCC)c1c(cc(cc1[N+](=O)[O-])C(F)(F)F)[N+](=O)[O-]'
p321
S'mobley_7176248'
p322
sS'CCCOC'
p323
S'mobley_2422586'
p324
sS'COC(=O)C1CCCCC1'
p325
S'mobley_6978427'
p326
sS'CC(C)Cc1ccccc1'
p327
S'mobley_4252724'
p328
sS'Cc1ccccc1[N+](=O)[O-]'
p329
S'mobley_5747188'
p330
sS'C[C@@H]1CC[C@H](CC1=O)C(=C)C'
p331
S'mobley_1160109'
p332
sS'c1ccc-2c(c1)Cc3c2cccc3'
p333
S'mobley_9565165'
p334
sS'CNc1ccccc1'
p335
S'mobley_7774695'
p336
sS'c1ccc(cc1)C#N'
p337
S'mobley_2451097'
p338
sS'COC(OC)OC'
p339
S'mobley_2279874'
p340
sS'c1c(cc(cc1Cl)Cl)Cl'
p341
S'mobley_2681549'
p342
sS'C([C@H]([C@H]([C@@H]([C@@H](CO)O)O)O)O)O'
p343
S'mobley_4587267'
p344
sS'c1cc(ccc1C=O)O'
p345
S'mobley_7988076'
p346
sS'c1ccc(c(c1)N)[N+](=O)[O-]'
p347
S'mobley_5948990'
p348
sS'C(Cl)(Cl)Cl'
p349
S'mobley_2996632'
p350
sS'Cc1cccc(c1)[N+](=O)[O-]'
p351
S'mobley_7298388'
p352
sS'Cc1ccc(cc1)C(C)C'
p353
S'mobley_1449384'
p354
sS'CC1=CC(=O)[C@@H](CC1)C(C)C'
p355
S'mobley_7676709'
p356
sS'CCCCN(CC)C(=O)SCCC'
p357
S'mobley_1352110'
p358
sS'CCCc1ccc(c(c1)OC)O'
p359
S'mobley_3359593'
p360
sS'Cc1cc(cnc1)C'
p361
S'mobley_1363784'
p362
sS'CN1CCOCC1'
p363
S'mobley_8558116'
p364
sS'Cc1cccnc1C'
p365
S'mobley_8746821'
p366
sS'CC[C@@H](C)CO'
p367
S'mobley_7983227'
p368
sS'C(Br)(Br)Br'
p369
S'mobley_7578802'
p370
sS'C(F)(F)Cl'
p371
S'mobley_8311321'
p372
sS'C=C(c1ccccc1)c2ccccc2'
p373
S'mobley_4479135'
p374
sS'CN(C)C=O'
p375
S'mobley_8011706'
p376
sS'c1(=O)[nH]c(=O)[nH]c(=O)[nH]1'
p377
S'mobley_6239320'
p378
sS'c1cc(c(cc1c2ccc(cc2F)F)C(=O)O)O'
p379
S'mobley_6055410'
p380
sS'c1ccc(cc1)C(=O)N'
p381
S'mobley_1728386'
p382
sS'C1[C@@H]2[C@H]3[C@@H]([C@H]1[C@H]4[C@@H]2O4)[C@@]5(C(=C([C@]3(C5(Cl)Cl)Cl)Cl)Cl)Cl'
p383
S'mobley_8117218'
p384
sS'CCCCCC(=O)OCC'
p385
S'mobley_1592519'
p386
sS'c1c(cc(c(c1Cl)Cl)Cl)c2cc(c(c(c2Cl)Cl)Cl)Cl'
p387
S'mobley_3269819'
p388
sS'C[C@H]1CCCO1'
p389
S'mobley_5056289'
p390
sS'Cc1ccc(c(c1)OC)O'
p391
S'mobley_5917842'
p392
sS'C(C(Cl)Cl)Cl'
p393
S'mobley_1328465'
p394
sS'c1cc[nH]c1'
p395
S'mobley_2837389'
p396
sS'CC(C)CO[N+](=O)[O-]'
p397
S'mobley_2881590'
p398
sS'COC(c1ccccc1)(OC)OC'
p399
S'mobley_3325209'
p400
sS'Cc1ccc(c2c1cccc2)C'
p401
S'mobley_3715043'
p402
sS'CNC'
p403
S'mobley_5692472'
p404
sS'C[N+](=O)[O-]'
p405
S'mobley_1952272'
p406
sS'c1ccc2c(c1)Oc3c(cc(c(c3O2)Cl)Cl)Cl'
p407
S'mobley_8827942'
p408
sS'CCOP(=S)(OCC)SCSP(=S)(OCC)OCC'
p409
S'mobley_7754849'
p410
sS'c1c(c(=O)[nH]c(=O)[nH]1)Br'
p411
S'mobley_4039055'
p412
sS'COC(=O)C(F)(F)F'
p413
S'mobley_9028462'
p414
sS'CCOP(=O)(OCC)O/C(=C/Cl)/c1ccc(cc1Cl)Cl'
p415
S'mobley_6522117'
p416
sS'C=CCCC=C'
p417
S'mobley_5690766'
p418
sS'CCc1ccccc1O'
p419
S'mobley_2126135'
p420
sS'CC(=O)c1ccccc1'
p421
S'mobley_7497999'
p422
sS'c1cc(c(c(c1c2cc(c(c(c2Cl)Cl)Cl)Cl)Cl)Cl)Cl'
p423
S'mobley_667278'
p424
sS'c1c(c(cc(c1Cl)Cl)Cl)Cl'
p425
S'mobley_6804509'
p426
sS'CN(C)C(=O)c1ccc(cc1)[N+](=O)[O-]'
p427
S'mobley_7415647'
p428
sS'CC[C@H](C)O'
p429
S'mobley_1903702'
p430
sS'CC(C)(C)OC'
p431
S'mobley_9794857'
p432
sS'c1c2c(cc(c1Cl)Cl)Oc3cc(c(cc3O2)Cl)Cl'
p433
S'mobley_2845466'
p434
sS'Cc1ccccc1'
p435
S'mobley_1873346'
p436
sS'Cc1ccc(cc1)Br'
p437
S'mobley_4494568'
p438
sS'CCCCCC#C'
p439
S'mobley_49274'
p440
sS'COC=O'
p441
S'mobley_1717215'
p442
sS'c1cc(ccc1O)Br'
p443
S'mobley_1733799'
p444
sS'CCCBr'
p445
S'mobley_7708038'
p446
sS'CSC'
p447
S'mobley_9073553'
p448
sS'CC[C@H](C)O[N+](=O)[O-]'
p449
S'mobley_7869158'
p450
sS'Cc1cc(cc(c1)O)C'
p451
S'mobley_7009711'
p452
sS'CC(=C)C'
p453
S'mobley_299266'
p454
sS'c1ccc(cc1)Br'
p455
S'mobley_7599023'
p456
sS'CC(=C)C(=C)C'
p457
S'mobley_900088'
p458
sS'Cc1ccc(cc1)C(=O)N(C)C'
p459
S'mobley_2659552'
p460
sS'CCc1cccnc1'
p461
S'mobley_4884177'
p462
sS'c1ccc(cc1)c2ccccc2Cl'
p463
S'mobley_9717937'
p464
sS'COS(=O)(=O)C'
p465
S'mobley_9201263'
p466
sS'Cc1ccccc1C=O'
p467
S'mobley_8883511'
p468
sS'CC(C)OC'
p469
S'mobley_3269565'
p470
sS'C1(C(C(C1(F)F)(F)F)(F)F)(F)F'
p471
S'mobley_1723043'
p472
sS'C1CCOC1'
p473
S'mobley_8882696'
p474
sS'CC(C)NC(C)C'
p475
S'mobley_8705848'
p476
sS'CCCCCCCC(=O)OC'
p477
S'mobley_7608435'
p478
sS'c1ccc(cc1)[N+](=O)[O-]'
p479
S'mobley_4193752'
p480
sS'CCOC=O'
p481
S'mobley_2294995'
p482
sS'CS(=O)(=O)Cl'
p483
S'mobley_4850657'
p484
sS'Cc1ccc(cc1)C=O'
p485
S'mobley_6175884'
p486
sS'c1cc(c(c(c1)Cl)c2c(cccc2Cl)Cl)Cl'
p487
S'mobley_628951'
p488
sS'CCCNCCC'
p489
S'mobley_2958326'
p490
sS'c1cc(ccc1Br)Br'
p491
S'mobley_7150646'
p492
sS'c1cc(cc(c1)O)[N+](=O)[O-]'
p493
S'mobley_7176290'
p494
sS'c1ccc(cc1)OC=O'
p495
S'mobley_1046331'
p496
sS'COC(CC#N)(OC)OC'
p497
S'mobley_8789864'
p498
sS'c1ccc(c(c1)C(F)(F)F)C(F)(F)F'
p499
S'mobley_6358463'
p500
sS'CCC[C@H](C)CC'
p501
S'mobley_9883303'
p502
sS'CCOP(=S)(OCC)SCSCC'
p503
S'mobley_9460824'
p504
sS'CC[C@H](C(C)C)O'
p505
S'mobley_7610437'
p506
sS'Cc1ccc2cc(ccc2c1)C'
p507
S'mobley_5110043'
p508
sS'CCC(C)C'
p509
S'mobley_1803862'
p510
sS'c1ccc(c(c1)N)Cl'
p511
S'mobley_3169935'
p512
sS'CC(C)C(=O)C'
p513
S'mobley_8739734'
p514
sS'CCCC=C'
p515
S'mobley_4043951'
p516
sS'CCCC=O'
p517
S'mobley_8573194'
p518
sS'c1c(c(c(c(c1Cl)Cl)Cl)Cl)c2c(cc(c(c2Cl)Cl)Cl)Cl'
p519
S'mobley_8208692'
p520
sS'Cc1cccc2c1cccc2'
p521
S'mobley_9414831'
p522
sS'CC1(Cc2cccc(c2O1)OC(=O)NC)C'
p523
S'mobley_6620221'
p524
sS'c1(c(c(c(c(c1Cl)Cl)Cl)Cl)Cl)Cl'
p525
S'mobley_4845722'
p526
sS'CCOCCOCC'
p527
S'mobley_4690963'
p528
sS'C1C=CC=CC=C1'
p529
S'mobley_9729792'
p530
sS'CCCC(=O)OC'
p531
S'mobley_5390332'
p532
sS'c1cc(cnc1)C#N'
p533
S'mobley_8764620'
p534
sS'[C@@H](C(F)(F)F)(OC(F)F)Cl'
p535
S'mobley_2023925'
p536
sS'c1ccc(c(c1)C=O)O'
p537
S'mobley_2850833'
p538
sS'CN(C)c1ccccc1'
p539
S'mobley_5326154'
p540
sS'CCCC1CCCC1'
p541
S'mobley_6416775'
p542
sS'CCCCCCCC=C'
p543
S'mobley_3709920'
p544
sS'c1ccc(c(c1)[N+](=O)[O-])O'
p545
S'mobley_5063386'
p546
sS'C(F)(F)(F)F'
p547
S'mobley_676247'
p548
sS'CCCCCCCC=O'
p549
S'mobley_4694328'
p550
sS'C(CBr)Cl'
p551
S'mobley_7768165'
p552
sS'c1ccc(cc1)c2cc(c(c(c2Cl)Cl)Cl)Cl'
p553
S'mobley_9510785'
p554
sS'COc1cccc(c1)N'
p555
S'mobley_755351'
p556
sS'COc1cccc(c1)O'
p557
S'mobley_2457863'
p558
sS'CC1=CCCCC1'
p559
S'mobley_6571751'
p560
sS'C1CCC(CC1)O'
p561
S'mobley_7010316'
p562
sS'Cc1ccccc1O'
p563
S'mobley_4035953'
p564
sS'Cc1ccccc1N'
p565
S'mobley_3187514'
p566
sS'C(CO)O'
p567
S'mobley_4639255'
p568
sS'CC(C)CC(C)(C)C'
p569
S'mobley_1139153'
p570
sS'c1cc(ccc1O)Cl'
p571
S'mobley_7066554'
p572
sS'CCCCC(=O)CCCC'
p573
S'mobley_3318135'
p574
sS'c1cc(cc(c1)C(F)(F)F)C(F)(F)F'
p575
S'mobley_4678740'
p576
sS'CCCCOC[C@H](C)O'
p577
S'mobley_7913234'
p578
sS'c1cnccc1C#N'
p579
S'mobley_5026370'
p580
sS'CCOC(=O)C[C@H](C(=O)OCC)SP(=S)(OC)OC'
p581
S'mobley_8916409'
p582
sS'CN(C)CCC=C1c2ccccc2CCc3c1cccc3'
p583
S'mobley_5282042'
p584
sS'CC(=O)OC'
p585
S'mobley_3982371'
p586
sS'CCCS'
p587
S'mobley_186894'
p588
sS'c1ccc(cc1)c2ccccc2'
p589
S'mobley_2005792'
p590
sS'CC(C)(C)c1ccccc1'
p591
S'mobley_7893124'
p592
sS'Cc1c(nc(nc1OC(=O)N(C)C)N(C)C)C'
p593
S'mobley_3201701'
p594
sS'c1(c(c(c(c(c1Cl)Cl)Cl)Cl)Cl)c2c(c(c(c(c2Cl)Cl)Cl)Cl)Cl'
p595
S'mobley_5456566'
p596
sS'CCCCCCCl'
p597
S'mobley_1893937'
p598
sS'CCCC'
p599
S'mobley_1923244'
p600
sS'CC(C)OC(=O)C'
p601
S'mobley_6981465'
p602
sS'c1ccc2c(c1)C(=O)NC2=O'
p603
S'mobley_2782339'
p604
sS'CCNc1nc(nc(n1)SC)NC(C)C'
p605
S'mobley_3047364'
p606
sS'CC(=O)O'
p607
S'mobley_3034976'
p608
sS'CC(=O)C'
p609
S'mobley_3867265'
p610
sS'CCCI'
p611
S'mobley_1199854'
p612
sS'COCCN'
p613
S'mobley_6917738'
p614
sS'CCCO'
p615
S'mobley_313406'
p616
sS'CCCN'
p617
S'mobley_9185328'
p618
sS'CCCCCCCC'
p619
S'mobley_3167746'
p620
sS'CC(C)Br'
p621
S'mobley_9434451'
p622
sS'CCCCCCCI'
p623
S'mobley_4759887'
p624
sS'C1CC[S+2](C1)([O-])[O-]'
p625
S'mobley_3323117'
p626
sS'CCCCCCCO'
p627
S'mobley_5079234'
p628
sS'C[C@@H](c1ccc(cc1)CC(C)C)C(=O)O'
p629
S'mobley_2078467'
p630
sS'CC(C)CC(C)C'
p631
S'mobley_8436428'
p632
sS'c1ccc2c(c1)Oc3cc(c(cc3O2)Cl)Cl'
p633
S'mobley_1469079'
p634
sS'CC1CCCC1'
p635
S'mobley_5852491'
p636
sS'c1ccc2cc(ccc2c1)N'
p637
S'mobley_3264884'
p638
sS'c1ccc2cc(ccc2c1)O'
p639
S'mobley_3663158'
p640
sS'CCCl'
p641
S'mobley_2198613'
p642
sS'C[C@@H]1CCCC[C@@H]1C'
p643
S'mobley_4715906'
p644
sS'CCCCCCC=O'
p645
S'mobley_7859387'
p646
sS'C(CON([O-])[O-])CON([O-])[O-]'
p647
S'mobley_2636578'
p648
sS'c1cc(cnc1)C=O'
p649
S'mobley_6232400'
p650
sS'CC(=O)c1ccc(cc1)OC'
p651
S'mobley_632905'
p652
sS'c1c(c(=O)[nH]c(=O)[nH]1)F'
p653
S'mobley_337666'
p654
sS'CC1=CC(=O)CC(C1)(C)C'
p655
S'mobley_7364468'
p656
sS'CC#C'
p657
S'mobley_8260524'
p658
sS'CC(=C)C=C'
p659
S'mobley_8765203'
p660
sS'CCCCCCCCBr'
p661
S'mobley_9015240'
p662
sS'CC(C)COC(=O)C(C)C'
p663
S'mobley_6456034'
p664
sS'c1ccc(cc1)CCCO'
p665
S'mobley_7463799'
p666
sS'CC(C)(/C=N\\OC(=O)NC)SC'
p667
S'mobley_5200358'
p668
sS'CC/C=C\\C'
p669
S'mobley_9112978'
p670
sS'CCCCC(C)C'
p671
S'mobley_4043987'
p672
sS'COc1ccccc1OC'
p673
S'mobley_2613240'
p674
sS'C(CO[N+](=O)[O-])O[N+](=O)[O-]'
p675
S'mobley_52782'
p676
sS'CCCCCCOC(=O)C'
p677
S'mobley_2607611'
p678
sS'C1CCCC(CC1)O'
p679
S'mobley_1244778'
p680
sS'CCCC(C)(C)C'
p681
S'mobley_252413'
p682
sS'C1CCC(C1)O'
p683
S'mobley_8899867'
p684
sS'CCCC(C)(C)O'
p685
S'mobley_3414356'
p686
sS'CC(C)OC=O'
p687
S'mobley_6854178'
p688
sS'C=CCCl'
p689
S'mobley_7099614'
p690
sS'COC(=O)c1ccc(cc1)O'
p691
S'mobley_2295058'
p692
sS'CC(Cl)Cl'
p693
S'mobley_3999471'
p694
sS'CCCCBr'
p695
S'mobley_2802855'
p696
sS'CC(C)COC=O'
p697
S'mobley_7455579'
p698
sS'c1ccc(cc1)Cn2ccnc2'
p699
S'mobley_4613090'
p700
sS'C[C@@H](CCON([O-])[O-])ON([O-])[O-]'
p701
S'mobley_9741965'
p702
sS'Cn1cnc2c1c(=O)n(c(=O)n2C)C'
p703
S'mobley_7378987'
p704
sS'C[C@@H](c1cccc(c1)C(=O)c2ccccc2)C(=O)O'
p705
S'mobley_2099370'
p706
sS'CCNc1nc(nc(n1)Cl)NCC'
p707
S'mobley_8207196'
p708
sS'CCOP(=S)(OCC)S[C@@H](CCl)N1C(=O)c2ccccc2C1=O'
p709
S'mobley_2518989'
p710
sS'CCc1cnccn1'
p711
S'mobley_5220185'
p712
sS'CCC(C)CC'
p713
S'mobley_2213823'
p714
sS'C1CCNC1'
p715
S'mobley_646007'
p716
sS'CCCN(CCC)c1c(cc(cc1[N+](=O)[O-])S(=O)(=O)C)[N+](=O)[O-]'
p717
S'mobley_2725215'
p718
sS'Cc1ccc(c(c1)O)C'
p719
S'mobley_3144334'
p720
sS'c1cc(c(c(c1)Cl)C#N)Cl'
p721
S'mobley_9740891'
p722
sS'c1ccc(cc1)c2c(cc(cc2Cl)Cl)Cl'
p723
S'mobley_5538249'
p724
sS'c1ccc2c(c1)Oc3ccccc3O2'
p725
S'mobley_172879'
p726
sS'CCOC(OCC)Oc1ccccc1'
p727
S'mobley_4934872'
p728
sS'CCCCC(=O)OC'
p729
S'mobley_2341732'
p730
sS'CCC[C@H](CC)O'
p731
S'mobley_7977115'
p732
sS'CC(=O)c1cccnc1'
p733
S'mobley_6353617'
p734
sS'Cc1ccccc1C'
p735
S'mobley_9478823'
p736
sS'C1CCNCC1'
p737
S'mobley_6309289'
p738
sS'C1CCCC1'
p739
S'mobley_8006582'
p740
sS'CCCN(CCC)C(=O)SCCC'
p741
S'mobley_8713762'
p742
sS'c1ccc2c(c1)ccc3c2cccc3'
p743
S'mobley_7017274'
p744
sS'CC(=CCC[C@](C)(C=C)OC(=O)C)C'
p745
S'mobley_6935906'
p746
sS'C1CCC(CC1)N'
p747
S'mobley_1036761'
p748
sS'C(F)Cl'
p749
S'mobley_3425174'
p750
sS'CC(=C)[C@H]1CCC(=CC1)C=O'
p751
S'mobley_5006685'
p752
sS'CC(C)CC(=O)O'
p753
S'mobley_2929847'
p754
sS'c1ccc2c(c1)cccc2O'
p755
S'mobley_7039935'
p756
sS'c1cc(cc(c1)Cl)N'
p757
S'mobley_6257907'
p758
sS'CCOP(=S)(OCC)SCSc1ccc(cc1)Cl'
p759
S'mobley_1849020'
p760
sS'CC(C)CC(=O)C'
p761
S'mobley_8337977'
p762
sS'Cc1cccnc1'
p763
S'mobley_5977084'
p764
sS'C1CCC(=O)C1'
p765
S'mobley_3968043'
p766
sS'CC(=O)c1ccncc1'
p767
S'mobley_6794076'
p768
sS'CC(Cl)(Cl)Cl'
p769
S'mobley_3761215'
p770
sS'CCCC[N+](=O)[O-]'
p771
S'mobley_6006813'
p772
sS'C'
p773
S'mobley_9055303'
p774
sS'c1ccc(cc1)n2c(=O)c(c(cn2)N)Cl'
p775
S'mobley_2523689'
p776
sS'COC(CCl)(OC)OC'
p777
S'mobley_3589456'
p778
sS'Cc1ccc(cc1C)O'
p779
S'mobley_6743808'
p780
sS'C=O'
p781
S'mobley_2146331'
p782
sS'S'
p783
S'mobley_1929982'
p784
sS'CCOCC'
p785
S'mobley_1144156'
p786
sS'CC[C@@H](C)C(C)C'
p787
S'mobley_8668219'
p788
sS'C[C@@H](c1ccc2cc(ccc2c1)OC)C(=O)O'
p789
S'mobley_2269032'
p790
sS'C(=C(Cl)Cl)(Cl)Cl'
p791
S'mobley_5952846'
p792
sS'CCc1cccc2c1cccc2'
p793
S'mobley_5263791'
p794
sS'C=C'
p795
S'mobley_6091882'
p796
sS'CC(=O)C1CCCCC1'
p797
S'mobley_2043882'
p798
sS'c1cc(c(cc1Cl)c2cc(c(c(c2)Cl)Cl)Cl)Cl'
p799
S'mobley_8823527'
p800
sS'Cc1cccc(n1)C'
p801
S'mobley_4584540'
p802
sS'c1ccc2c(c1)C(=O)c3cccc(c3C2=O)NCCO'
p803
S'mobley_2316618'
p804
sS'CCCCCCC#C'
p805
S'mobley_8522124'
p806
sS'C[C@H](C(F)(F)F)O'
p807
S'mobley_9979854'
p808
sS'CCC(C)(C)CC'
p809
S'mobley_2609604'
p810
sS'C1CC1'
p811
S'mobley_2784376'
p812
sS'CCC[C@@H](C)O'
p813
S'mobley_2864987'
p814
sS'CC#N'
p815
S'mobley_7532833'
p816
sS'COC(=O)C1CC1'
p817
S'mobley_4620651'
p818
sS'c1ccc2cc3ccccc3cc2c1'
p819
S'mobley_637522'
p820
sS'COc1ccccc1'
p821
S'mobley_7295828'
p822
sS'CCCCCCCCCCO'
p823
S'mobley_3151666'
p824
sS'COCC(OC)(OC)OC'
p825
S'mobley_5747981'
p826
sS'CC(=O)CO[N+](=O)[O-]'
p827
S'mobley_4964807'
p828
sS'CC[N+](=O)[O-]'
p829
S'mobley_8320545'
p830
sS'C=C(Cl)Cl'
p831
S'mobley_2493732'
p832
sS'C[C@@H]1CC[C@H](C(=O)C1)C(C)C'
p833
S'mobley_5616693'
p834
sS'CCl'
p835
S'mobley_4434915'
p836
sS'CCCCC[N+](=O)[O-]'
p837
S'mobley_1235151'
p838
sS'CCOP(=S)(OCC)Oc1cc(nc(n1)C(C)C)C'
p839
S'mobley_5393242'
p840
sS'CC(C)CCC(C)(C)C'
p841
S'mobley_3060426'
p842
sS'COC(=O)c1ccc(cc1)[N+](=O)[O-]'
p843
S'mobley_1328936'
p844
sS'COS(=O)(=O)OC'
p845
S'mobley_5760563'
p846
sS'CCCCCCC(=O)C'
p847
S'mobley_9407874'
p848
sS'CI'
p849
S'mobley_4364398'
p850
sS'c1cc(cc(c1)[N+](=O)[O-])N'
p851
S'mobley_3777264'
p852
sS'CO'
p853
S'mobley_1636752'
p854
sS'CN'
p855
S'mobley_6714389'
p856
sS'CC'
p857
S'mobley_2008055'
p858
sS'CF'
p859
S'mobley_9029594'
p860
sS'N'
p861
S'mobley_5631798'
p862
sS'CS'
p863
S'mobley_525934'
p864
sS'CCCOC(=O)CC'
p865
S'mobley_5890803'
p866
sS'CCc1ccccc1'
p867
S'mobley_8127829'
p868
sS'CCCOC(=O)C'
p869
S'mobley_7573149'
p870
sS'c1ccnc(c1)Cl'
p871
S'mobley_4291494'
p872
sS'Cc1cc2ccccc2cc1C'
p873
S'mobley_547634'
p874
sS'COC(C(Cl)Cl)(F)F'
p875
S'mobley_5347550'
p876
sS'CC1CCC(CC1)C'
p877
S'mobley_9139060'
p878
sS'c1ccc(c(c1)O)Cl'
p879
S'mobley_1178614'
p880
sS'CS(=O)(=O)C'
p881
S'mobley_1708457'
p882
sS'c1ccc2c(c1)Oc3ccc(cc3O2)Cl'
p883
S'mobley_5371840'
p884
sS'C1[C@H]([C@@H]([C@H]([C@H](O1)O)O)O)O'
p885
S'mobley_1896013'
p886
sS'CC(=CCC/C(=C\\CO)/C)C'
p887
S'mobley_9897248'
p888
sS'CCCCCCCC(=O)C'
p889
S'mobley_1502181'
p890
sS'C([N+](=O)[O-])(Cl)(Cl)Cl'
p891
S'mobley_2481002'
p892
sS'Cc1cccc(c1C)O'
p893
S'mobley_1571523'
p894
sS'Cc1ccc(cc1)C(=O)C'
p895
S'mobley_349850'
p896
sS'CCCCOC(=O)c1ccc(cc1)O'
p897
S'mobley_7912193'
p898
sS'Cc1cccc(c1C)C'
p899
S'mobley_3452749'
p900
sS'c1cc2c(cc1Cl)Oc3ccc(cc3O2)Cl'
p901
S'mobley_4149784'
p902
sS'CC(C)CO'
p903
S'mobley_2245668'
p904
sS'CC(C)C(C)C'
p905
S'mobley_4561957'
p906
sS'c1ccsc1'
p907
S'mobley_2972906'
p908
sS'COP(=O)([C@H](C(Cl)(Cl)Cl)O)OC'
p909
S'mobley_6334915'
p910
sS'C(C(F)(F)F)Cl'
p911
S'mobley_8191186'
p912
sS'Cc1ccc(c(c1)C)C'
p913
S'mobley_3183805'
p914
sS'Cc1ccc(c(c1)C)O'
p915
S'mobley_4780078'
p916
sS'C[C@@H](CO[N+](=O)[O-])O[N+](=O)[O-]'
p917
S'mobley_3210206'
p918
sS'c1c(c(=O)[nH]c(=O)[nH]1)Cl'
p919
S'mobley_9557440'
p920
sS'CN1CCCCC1'
p921
S'mobley_63712'
p922
sS'c1(c(c(c(c(c1Cl)Cl)Cl)Cl)Cl)N(=O)=O'
p923
S'mobley_1396156'
p924
sS'CCOC(C)OCC'
p925
S'mobley_3686115'
p926
sS'CC(C)Cl'
p927
S'mobley_1231151'
p928
sS'C1CNCCN1'
p929
S'mobley_951560'
p930
sS'C1COCCN1'
p931
S'mobley_1659169'
p932
sS'c1ccc(cc1)c2cc(ccc2Cl)Cl'
p933
S'mobley_6359156'
p934
sS'c1c(=O)[nH]c(=O)[nH]c1Cl'
p935
S'mobley_4338603'
p936
sS'CC(C)COC(=O)C'
p937
S'mobley_859464'
p938
sS'c1cc(ccc1C#N)O'
p939
S'mobley_2123854'
p940
sS'CCCCCCCCl'
p941
S'mobley_7157427'
p942
sS'c1ccc(cc1)S'
p943
S'mobley_5520946'
p944
sS'CCc1ccc(cc1)O'
p945
S'mobley_2923700'
p946
sS'CCCCCCCCC'
p947
S'mobley_4375719'
p948
sS'c1cc2cccc3c2c(c1)CC3'
p949
S'mobley_2261979'
p950
sS'CCCCCCCCCC(=O)C'
p951
S'mobley_7375018'
p952
sS'CCC/C=C/C=O'
p953
S'mobley_2792521'
p954
sS'CC(C)CCO'
p955
S'mobley_5973402'
p956
sS'CCc1ccc(cc1)C'
p957
S'mobley_9942801'
p958
sS'CCCCCCCCO'
p959
S'mobley_36119'
p960
sS'CCCCCCCCN'
p961
S'mobley_6248915'
p962
sS'CCN(CC)CC'
p963
S'mobley_8449031'
p964
sS'CN(C)C(=O)c1ccccc1'
p965
S'mobley_4188615'
p966
sS'CC(C)(C)C(=O)OC'
p967
S'mobley_1781152'
p968
sS'c1ccc2c(c1)C(=O)c3cccc(c3C2=O)N'
p969
S'mobley_8052240'
p970
sS'c1cc(c(c(c1Cl)Cl)Cl)Cl'
p971
S'mobley_4219614'
p972
sS'CNC(=O)Oc1cccc2c1cccc2'
p973
S'mobley_9007496'
p974
sS'CC(C)(C)Br'
p975
S'mobley_7769613'
p976
sS'CCC(=O)OCC'
p977
S'mobley_7943327'
p978
sS'COP(=S)(OC)Oc1ccc(cc1)[N+](=O)[O-]'
p979
S'mobley_1922649'
p980
sS'CCS'
p981
S'mobley_1800170'
p982
sS'CCO'
p983
S'mobley_2310185'
p984
sS'CCN'
p985
S'mobley_2410897'
p986
sS'CCI'
p987
S'mobley_1107178'
p988
sS'CCCCCl'
p989
S'mobley_3639400'
p990
sS'CCSSCC'
p991
S'mobley_590519'
p992
sS'C[C@@H](c1ccc(c(c1)F)c2ccccc2)C(=O)O'
p993
S'mobley_1527293'
p994
sS'CC(C)CCOC=O'
p995
S'mobley_4924862'
p996
sS'CCC'
p997
S'mobley_2068538'
p998
sS'CC(C)CCOC(=O)C'
p999
S'mobley_5471704'
p1000
sS'CCCC[N@](CC)c1c(cc(cc1[N+](=O)[O-])C(F)(F)F)[N+](=O)[O-]'
p1001
S'mobley_7829570'
p1002
sS'CCSCC'
p1003
S'mobley_4983965'
p1004
sS'CCCC(=C)C'
p1005
S'mobley_1899443'
p1006
sS'CCCCCI'
p1007
S'mobley_8525830'
p1008
sS'CCCCCO'
p1009
S'mobley_5759258'
p1010
sS'CCCCCN'
p1011
S'mobley_7142697'
p1012
sS'c1ccc(cc1)CBr'
p1013
S'mobley_1905088'
p1014
sS'CCCCCC'
p1015
S'mobley_6812653'
p1016
sS'Cc1ccncc1'
p1017
S'mobley_1520842'
p1018
sS'c1cc(ccc1O)F'
p1019
S'mobley_852937'
p1020
sS'c1cc(cc(c1)O)C=O'
p1021
S'mobley_7688753'
p1022
sS'C1CCCCC1'
p1023
S'mobley_2689721'
p1024
sS'C(CBr)Br'
p1025
S'mobley_1792062'
p1026
sS'CCCCCCl'
p1027
S'mobley_2178600'
p1028
sS'CN1CCNCC1'
p1029
S'mobley_2771569'
p1030
sS'c1ccc2c(c1)Oc3cccc(c3O2)Cl'
p1031
S'mobley_7239499'
p1032
sS'C([C@@H]1[C@H]([C@@H]([C@H]([C@@H](O1)O)O)O)O)O'
p1033
S'mobley_9534740'
p1034
sS'C(C(Cl)(Cl)Cl)(Cl)Cl'
p1035
S'mobley_2492140'
p1036
sS'CCOP(=S)(OCC)Oc1c(cc(c(n1)Cl)Cl)Cl'
p1037
S'mobley_7326706'
p1038
sS'CCNCC'
p1039
S'mobley_8426916'
p1040
sS'COC(=O)c1ccccc1'
p1041
S'mobley_3968739'
p1042
sS'C(C(F)(Cl)Cl)(F)(F)Cl'
p1043
S'mobley_1838110'
p1044
sS'CSc1ccccc1'
p1045
S'mobley_1189457'
p1046
sS'COC'
p1047
S'mobley_7015518'
p1048
sS'CC(C)(C)Cl'
p1049
S'mobley_7047032'
p1050
sS'CC(=O)NC'
p1051
S'mobley_1963873'
p1052
sS'CCCCCCN'
p1053
S'mobley_6060301'
p1054
sS'CCCCCCI'
p1055
S'mobley_6250025'
p1056
sS'Cc1cnccn1'
p1057
S'mobley_8966374'
p1058
sS'C(CCl)Cl'
p1059
S'mobley_1857976'
p1060
sS'CCCCCCC'
p1061
S'mobley_8614858'
p1062
sS'CCC(=O)OC'
p1063
S'mobley_1075836'
p1064
sS'CCCCCCc1ccccc1'
p1065
S'mobley_588781'
p1066
sS'c1cc(c(cc1Cl)Cl)Cl'
p1067
S'mobley_7814642'
p1068
sS'c1ccncc1'
p1069
S'mobley_296847'
p1070
sS'c1cc(cc(c1)Cl)Cl'
p1071
S'mobley_1079207'
p1072
sS'C(Br)Br'
p1073
S'mobley_9246351'
p1074
sS'Cn1ccnc1'
p1075
S'mobley_5499659'
p1076
sS'CCCC#N'
p1077
S'mobley_8221999'
p1078
sS'CCCCCCC=C'
p1079
S'mobley_9197172'
p1080
sS'CCCC#C'
p1081
S'mobley_430089'
p1082
sS'CCCC(=O)OCCC'
p1083
S'mobley_3690931'
p1084
sS'CCC[N+](=O)[O-]'
p1085
S'mobley_9671033'
p1086
sS'CC(=O)N1CCCC1'
p1087
S'mobley_2725802'
p1088
sS'CCCCCCO'
p1089
S'mobley_3546460'
p1090
sS'CCc1cccc(c1)O'
p1091
S'mobley_2354112'
p1092
sS'COc1c(c(c(c(c1Cl)C=O)Cl)OC)O'
p1093
S'mobley_6195751'
p1094
sS'COc1ccccc1O'
p1095
S'mobley_3515580'
p1096
sS'c1cc(cnc1)Cl'
p1097
S'mobley_2789243'
p1098
sS'c1cc(ccc1Cl)Cl'
p1099
S'mobley_4553008'
p1100
sS'CCOP(=S)(OCC)Oc1ccc(cc1)[N+](=O)[O-]'
p1101
S'mobley_9281946'
p1102
sS'CC(C)C(C)C(C)C'
p1103
S'mobley_4177472'
p1104
sS'CCOC(=O)C'
p1105
S'mobley_6973347'
p1106
sS'CC(=O)Oc1ccccc1C(=O)O'
p1107
S'mobley_2913224'
p1108
sS'c1cc(ccc1N)Cl'
p1109
S'mobley_8723116'
p1110
sS'CC(C)I'
p1111
S'mobley_210639'
p1112
sS'CCCCC(=O)O'
p1113
S'mobley_4792268'
p1114
sS'Cc1cc(c2ccccc2c1)C'
p1115
S'mobley_5665561'
p1116
sS'CC(C)O'
p1117
S'mobley_7326982'
p1118
sS'CC(C)C'
p1119
S'mobley_5157661'
p1120
sS'CCCCC#C'
p1121
S'mobley_1674094'
p1122
sS'CCCCC(=O)C'
p1123
S'mobley_2487143'
p1124
sS'CCCCCCCCC=O'
p1125
S'mobley_1976156'
p1126
sS'CCOc1ccccc1'
p1127
S'mobley_2763835'
p1128
sS'CC(C)OC(C)C'
p1129
S'mobley_1615431'
p1130
sS'c1cc(c(cc1O)Cl)Cl'
p1131
S'mobley_9257453'
p1132
sS'COCOC'
p1133
S'mobley_3083321'
p1134
sS'CCCCCCCCCO'
p1135
S'mobley_3378420'
p1136
sS'CCOC(=O)CC(=O)OCC'
p1137
S'mobley_2402487'
p1138
sS'c1ccc(cc1)Oc2ccccc2'
p1139
S'mobley_6102880'
p1140
sS'CCCCCCCCCC'
p1141
S'mobley_2197088'
p1142
sS'CC(=O)N'
p1143
S'mobley_8048190'
p1144
sS'C1CNC1'
p1145
S'mobley_6266306'
p1146
sS'Cc1ccncc1C'
p1147
S'mobley_2371092'
p1148
sS'C1=CC(=O)C=CC1=O'
p1149
S'mobley_3727287'
p1150
sS'CCc1ccncc1'
p1151
S'mobley_6303022'
p1152
sS'c1cc(ccc1N)N(=O)=O'
p1153
S'mobley_6082662'
p1154
sS'CCCCC=C'
p1155
S'mobley_5310099'
p1156
sS'CC(C)c1ccccc1'
p1157
S'mobley_5445548'
p1158
sS'COCCO'
p1159
S'mobley_5816127'
p1160
sS'CCSC'
p1161
S'mobley_2049967'
p1162
sS'CN(CC(F)(F)F)c1ccccc1'
p1163
S'mobley_3266352'
p1164
sS'NN'
p1165
S'mobley_7261305'
p1166
sS'CCC(=O)Nc1ccc(c(c1)Cl)Cl'
p1167
S'mobley_7463408'
p1168
sS'CCCCNCCCC'
p1169
S'mobley_7860938'
p1170
sS'C=CC=C'
p1171
S'mobley_511661'
p1172
sS'CCCCC=O'
p1173
S'mobley_8492526'
p1174
sS'CC=C(C)C'
p1175
S'mobley_778352'
p1176
sS'c1ccc(cc1)C(F)(F)F'
p1177
S'mobley_8809274'
p1178
sS'CCC=O'
p1179
S'mobley_6632459'
p1180
sS'CN(C)C(=O)c1ccc(cc1)OC'
p1181
S'mobley_5600967'
p1182
sS'c1cc2ccc3cccc4c3c2c(c1)cc4'
p1183
S'mobley_2577969'
p1184
sS'CC1CCCCC1'
p1185
S'mobley_9100956'
p1186
sS'CC(OC(=O)C)OC(=O)C'
p1187
S'mobley_4463913'
p1188
sS'C[C@@H](C(F)(F)F)O'
p1189
S'mobley_628086'
p1190
sS'CCCC/C=C/C'
p1191
S'mobley_8467917'
p1192
sS'c1ccc(cc1)O[C@@H](C(F)F)F'
p1193
S'mobley_6843802'
p1194
sS'c1cc2c(cc1Cl)Oc3c(c(c(c(c3Cl)Cl)Cl)Cl)O2'
p1195
S'mobley_3976574'
p1196
sS'C[C@@H]1CC[C@H]([C@@H](C1)O)C(C)C'
p1197
S'mobley_8337722'
p1198
sS'CN(C)C(=O)Nc1ccccc1'
p1199
S'mobley_6861308'
p1200
sS'CCCCCC(=O)C'
p1201
S'mobley_3573480'
p1202
sS'C=CCC=C'
p1203
S'mobley_9246215'
p1204
sS'CCCCCC1CCCC1'
p1205
S'mobley_2328633'
p1206
sS'C(C(Cl)(Cl)Cl)(Cl)(Cl)Cl'
p1207
S'mobley_1278715'
p1208
sS'CCCCCC(=O)N'
p1209
S'mobley_7203421'
p1210
sS'CCCCCC(=O)O'
p1211
S'mobley_1735893'
p1212
sS'CCCC[C@@H](C)CC'
p1213
S'mobley_6896128'
p1214
sS'CCCC(=O)OCC'
p1215
S'mobley_1722522'
p1216
sS'C(CCl)CCl'
p1217
S'mobley_9624458'
p1218
sS'CCCCCCCBr'
p1219
S'mobley_2517158'
p1220
sS'COC(C(F)(F)F)(OC)OC'
p1221
S'mobley_7360181'
p1222
sS'c1ccc2c(c1)C(=O)c3c(ccc(c3C2=O)O)N'
p1223
S'mobley_4371692'
p1224
sS'CC(C)CBr'
p1225
S'mobley_627267'
p1226
sS'CCCCCOC(=O)CC'
p1227
S'mobley_3572203'
p1228
sS'C1CCC=CC1'
p1229
S'mobley_3211679'
p1230
sS'CCCCCCCN'
p1231
S'mobley_718988'
p1232
sS'C=CCO'
p1233
S'mobley_8118832'
p1234
sS'c1c(c(=O)[nH]c(=O)[nH]1)C(F)(F)F'
p1235
S'mobley_7794077'
p1236
sS'c1cc(c(cc1c2cc(c(c(c2Cl)Cl)Cl)Cl)Cl)Cl'
p1237
S'mobley_1034539'
p1238
sS'CCCCOCCO'
p1239
S'mobley_5880265'
p1240
sS'Cc1cccc(c1)O'
p1241
S'mobley_8691603'
p1242
sS'CCCCOCCCC'
p1243
S'mobley_129464'
p1244
sS'CS(=O)C'
p1245
S'mobley_8578590'
p1246
sS'Cc1cc(ccc1Cl)O'
p1247
S'mobley_4395315'
p1248
sS'CC(C)C(=O)C(C)C'
p1249
S'mobley_4013838'
p1250
sS'c1ccc2c(c1)cccn2'
p1251
S'mobley_5857'
p1252
sS'c1ccc2c(c1)Cc3ccccc3C2'
p1253
S'mobley_2972345'
p1254
sS'C=CCl'
p1255
S'mobley_6474572'
p1256
sS'CC(=O)C1CC1'
p1257
S'mobley_197466'
p1258
sS'c1cc2c(cc1Cl)Oc3cc(c(c(c3O2)Cl)Cl)Cl'
p1259
S'mobley_2844990'
p1260
sS'CCCCCc1ccccc1'
p1261
S'mobley_3525176'
p1262
sS'CC(F)F'
p1263
S'mobley_3370989'
p1264
sS'c12c(c(c(c(c1Cl)Cl)Cl)Cl)Oc3c(c(c(c(c3Cl)Cl)Cl)Cl)O2'
p1265
S'mobley_9821936'
p1266
sS'Cc1ccccn1'
p1267
S'mobley_4287564'
p1268
sS'CCCCC(=O)OCC'
p1269
S'mobley_6619554'
p1270
sS'Cc1cccc(c1O)C'
p1271
S'mobley_1755375'
p1272
sS'CCCOCCC'
p1273
S'mobley_7542832'
p1274
sS'CCCOCCO'
p1275
S'mobley_4687447'
p1276
sS'CCCCCC(=O)OC'
p1277
S'mobley_1017962'
p1278
sS'Cc1cccs1'
p1279
S'mobley_9705941'
p1280
sS'CCCCO[N+](=O)[O-]'
p1281
S'mobley_902954'
p1282
sS'C(CCl)OCCCl'
p1283
S'mobley_4603202'
p1284
s.